
DueProject.elf:     file format elf32-littlearm

Sections:
Idx Name          Size      VMA       LMA       File off  Algn
  0 .text         00008aa4  00080000  00080000  00010000  2**3
                  CONTENTS, ALLOC, LOAD, READONLY, CODE
  1 .ARM.exidx    00000008  00088aa4  00088aa4  00018aa4  2**2
                  CONTENTS, ALLOC, LOAD, READONLY, DATA
  2 .relocate     00000ae8  20070000  00088aac  00020000  2**3
                  CONTENTS, ALLOC, LOAD, CODE
  3 .bss          00001c9c  20070ae8  00089598  00020ae8  2**3
                  ALLOC
  4 .stack        00002004  20072784  0008b234  00020ae8  2**0
                  ALLOC
  5 .ARM.attributes 00000029  00000000  00000000  00020ae8  2**0
                  CONTENTS, READONLY
  6 .comment      00000059  00000000  00000000  00020b11  2**0
                  CONTENTS, READONLY
  7 .debug_info   0001e9f9  00000000  00000000  00020b6a  2**0
                  CONTENTS, READONLY, DEBUGGING
  8 .debug_abbrev 000044e3  00000000  00000000  0003f563  2**0
                  CONTENTS, READONLY, DEBUGGING
  9 .debug_loc    00005afb  00000000  00000000  00043a46  2**0
                  CONTENTS, READONLY, DEBUGGING
 10 .debug_aranges 00000cc8  00000000  00000000  00049541  2**0
                  CONTENTS, READONLY, DEBUGGING
 11 .debug_ranges 00000bf8  00000000  00000000  0004a209  2**0
                  CONTENTS, READONLY, DEBUGGING
 12 .debug_macro  0000b4c4  00000000  00000000  0004ae01  2**0
                  CONTENTS, READONLY, DEBUGGING
 13 .debug_line   000157b5  00000000  00000000  000562c5  2**0
                  CONTENTS, READONLY, DEBUGGING
 14 .debug_str    0006712c  00000000  00000000  0006ba7a  2**0
                  CONTENTS, READONLY, DEBUGGING
 15 .debug_frame  00003030  00000000  00000000  000d2ba8  2**2
                  CONTENTS, READONLY, DEBUGGING

Disassembly of section .text:

00080000 <exception_table>:
   80000:	88 47 07 20 8d 17 08 00 89 17 08 00 89 17 08 00     .G. ............
   80010:	89 17 08 00 89 17 08 00 89 17 08 00 00 00 00 00     ................
	...
   8002c:	89 17 08 00 89 17 08 00 00 00 00 00 89 17 08 00     ................
   8003c:	89 17 08 00 89 17 08 00 89 17 08 00 89 17 08 00     ................
   8004c:	89 17 08 00 89 17 08 00 89 17 08 00 89 17 08 00     ................
   8005c:	89 17 08 00 89 17 08 00 89 17 08 00 00 00 00 00     ................
   8006c:	fd 15 08 00 11 16 08 00 25 16 08 00 39 16 08 00     ........%...9...
	...
   80084:	25 10 08 00 89 17 08 00 89 17 08 00 89 17 08 00     %...............
   80094:	89 17 08 00 89 17 08 00 89 17 08 00 89 17 08 00     ................
   800a4:	00 00 00 00 89 17 08 00 7d 0b 08 00 89 17 08 00     ........}.......
   800b4:	89 17 08 00 89 17 08 00 89 17 08 00 89 17 08 00     ................
   800c4:	89 17 08 00 89 17 08 00 89 17 08 00 89 17 08 00     ................
   800d4:	ad 0e 08 00 89 17 08 00 89 17 08 00 89 17 08 00     ................
   800e4:	89 17 08 00 89 17 08 00 89 17 08 00 89 17 08 00     ................

000800f4 <__do_global_dtors_aux>:
   800f4:	b510      	push	{r4, lr}
   800f6:	4c05      	ldr	r4, [pc, #20]	; (8010c <__do_global_dtors_aux+0x18>)
   800f8:	7823      	ldrb	r3, [r4, #0]
   800fa:	b933      	cbnz	r3, 8010a <__do_global_dtors_aux+0x16>
   800fc:	4b04      	ldr	r3, [pc, #16]	; (80110 <__do_global_dtors_aux+0x1c>)
   800fe:	b113      	cbz	r3, 80106 <__do_global_dtors_aux+0x12>
   80100:	4804      	ldr	r0, [pc, #16]	; (80114 <__do_global_dtors_aux+0x20>)
   80102:	f3af 8000 	nop.w
   80106:	2301      	movs	r3, #1
   80108:	7023      	strb	r3, [r4, #0]
   8010a:	bd10      	pop	{r4, pc}
   8010c:	20070ae8 	.word	0x20070ae8
   80110:	00000000 	.word	0x00000000
   80114:	00088aac 	.word	0x00088aac

00080118 <frame_dummy>:
   80118:	4b0c      	ldr	r3, [pc, #48]	; (8014c <frame_dummy+0x34>)
   8011a:	b143      	cbz	r3, 8012e <frame_dummy+0x16>
   8011c:	480c      	ldr	r0, [pc, #48]	; (80150 <frame_dummy+0x38>)
   8011e:	b510      	push	{r4, lr}
   80120:	490c      	ldr	r1, [pc, #48]	; (80154 <frame_dummy+0x3c>)
   80122:	f3af 8000 	nop.w
   80126:	480c      	ldr	r0, [pc, #48]	; (80158 <frame_dummy+0x40>)
   80128:	6803      	ldr	r3, [r0, #0]
   8012a:	b923      	cbnz	r3, 80136 <frame_dummy+0x1e>
   8012c:	bd10      	pop	{r4, pc}
   8012e:	480a      	ldr	r0, [pc, #40]	; (80158 <frame_dummy+0x40>)
   80130:	6803      	ldr	r3, [r0, #0]
   80132:	b933      	cbnz	r3, 80142 <frame_dummy+0x2a>
   80134:	4770      	bx	lr
   80136:	4b09      	ldr	r3, [pc, #36]	; (8015c <frame_dummy+0x44>)
   80138:	2b00      	cmp	r3, #0
   8013a:	d0f7      	beq.n	8012c <frame_dummy+0x14>
   8013c:	e8bd 4010 	ldmia.w	sp!, {r4, lr}
   80140:	4718      	bx	r3
   80142:	4b06      	ldr	r3, [pc, #24]	; (8015c <frame_dummy+0x44>)
   80144:	2b00      	cmp	r3, #0
   80146:	d0f5      	beq.n	80134 <frame_dummy+0x1c>
   80148:	4718      	bx	r3
   8014a:	bf00      	nop
   8014c:	00000000 	.word	0x00000000
   80150:	00088aac 	.word	0x00088aac
   80154:	20070aec 	.word	0x20070aec
   80158:	00088aac 	.word	0x00088aac
   8015c:	00000000 	.word	0x00000000

00080160 <get_decimal_string>:
 #include <asf.h>
 #include <string.h>
 #include "dec_string.h"

 char* get_decimal_string(double in) 
 {
   80160:	b5f8      	push	{r3, r4, r5, r6, r7, lr}
   80162:	4606      	mov	r6, r0
   80164:	460f      	mov	r7, r1
	char *string = malloc(100);
   80166:	2064      	movs	r0, #100	; 0x64
   80168:	4b07      	ldr	r3, [pc, #28]	; (80188 <get_decimal_string+0x28>)
   8016a:	4798      	blx	r3
   8016c:	4604      	mov	r4, r0

	memset(string, 0, 100);
   8016e:	2264      	movs	r2, #100	; 0x64
   80170:	2100      	movs	r1, #0
   80172:	4b06      	ldr	r3, [pc, #24]	; (8018c <get_decimal_string+0x2c>)
   80174:	4798      	blx	r3
	sprintf(string, "%0.10f", in);
   80176:	4632      	mov	r2, r6
   80178:	463b      	mov	r3, r7
   8017a:	4905      	ldr	r1, [pc, #20]	; (80190 <get_decimal_string+0x30>)
   8017c:	4620      	mov	r0, r4
   8017e:	4d05      	ldr	r5, [pc, #20]	; (80194 <get_decimal_string+0x34>)
   80180:	47a8      	blx	r5

	return string;
 }
   80182:	4620      	mov	r0, r4
   80184:	bdf8      	pop	{r3, r4, r5, r6, r7, pc}
   80186:	bf00      	nop
   80188:	00082ce9 	.word	0x00082ce9
   8018c:	0008323d 	.word	0x0008323d
   80190:	0008876c 	.word	0x0008876c
   80194:	000834b5 	.word	0x000834b5

00080198 <tdoa_init>:
static double powZj;
static double powZk;
static double powZl;

void tdoa_init()
{
   80198:	b430      	push	{r4, r5}
	
	coord_t.xi = 0.12;
   8019a:	4b93      	ldr	r3, [pc, #588]	; (803e8 <tdoa_init+0x250>)
   8019c:	a15c      	add	r1, pc, #368	; (adr r1, 80310 <tdoa_init+0x178>)
   8019e:	e9d1 0100 	ldrd	r0, r1, [r1]
   801a2:	e9c3 0100 	strd	r0, r1, [r3]
	coord_t.xj = 1.91;
   801a6:	a15c      	add	r1, pc, #368	; (adr r1, 80318 <tdoa_init+0x180>)
   801a8:	e9d1 0100 	ldrd	r0, r1, [r1]
   801ac:	e9c3 0102 	strd	r0, r1, [r3, #8]
	coord_t.xk = 0.1225;
   801b0:	a15b      	add	r1, pc, #364	; (adr r1, 80320 <tdoa_init+0x188>)
   801b2:	e9d1 0100 	ldrd	r0, r1, [r1]
   801b6:	e9c3 0104 	strd	r0, r1, [r3, #16]
	coord_t.xl = 1.975;
   801ba:	a15b      	add	r1, pc, #364	; (adr r1, 80328 <tdoa_init+0x190>)
   801bc:	e9d1 0100 	ldrd	r0, r1, [r1]
   801c0:	e9c3 0106 	strd	r0, r1, [r3, #24]

	coord_t.yi = 0.16;
   801c4:	a15a      	add	r1, pc, #360	; (adr r1, 80330 <tdoa_init+0x198>)
   801c6:	e9d1 0100 	ldrd	r0, r1, [r1]
   801ca:	e9c3 0108 	strd	r0, r1, [r3, #32]
	coord_t.yj = 0.155;
   801ce:	a15a      	add	r1, pc, #360	; (adr r1, 80338 <tdoa_init+0x1a0>)
   801d0:	e9d1 0100 	ldrd	r0, r1, [r1]
   801d4:	e9c3 010a 	strd	r0, r1, [r3, #40]	; 0x28
	coord_t.yk = 3.922;
   801d8:	a159      	add	r1, pc, #356	; (adr r1, 80340 <tdoa_init+0x1a8>)
   801da:	e9d1 0100 	ldrd	r0, r1, [r1]
   801de:	e9c3 010c 	strd	r0, r1, [r3, #48]	; 0x30
	coord_t.yl = 3.952;
   801e2:	a159      	add	r1, pc, #356	; (adr r1, 80348 <tdoa_init+0x1b0>)
   801e4:	e9d1 0100 	ldrd	r0, r1, [r1]
   801e8:	e9c3 010e 	strd	r0, r1, [r3, #56]	; 0x38

	coord_t.zi = 1.98;
   801ec:	a558      	add	r5, pc, #352	; (adr r5, 80350 <tdoa_init+0x1b8>)
   801ee:	e9d5 4500 	ldrd	r4, r5, [r5]
   801f2:	e9c3 4510 	strd	r4, r5, [r3, #64]	; 0x40
	coord_t.zj = 2;
   801f6:	2000      	movs	r0, #0
   801f8:	f04f 4180 	mov.w	r1, #1073741824	; 0x40000000
   801fc:	e9c3 0112 	strd	r0, r1, [r3, #72]	; 0x48
	coord_t.zk = 1.98;
   80200:	e9c3 4514 	strd	r4, r5, [r3, #80]	; 0x50
	coord_t.zl = 2;
   80204:	e9c3 0116 	strd	r0, r1, [r3, #88]	; 0x58
	coord_t.zj = 1.98;
	coord_t.zk = 1.98;
	coord_t.zl = 2;
	*/
	
	xji = coord_t.xj - coord_t.xi;
   80208:	a153      	add	r1, pc, #332	; (adr r1, 80358 <tdoa_init+0x1c0>)
   8020a:	e9d1 0100 	ldrd	r0, r1, [r1]
   8020e:	4b77      	ldr	r3, [pc, #476]	; (803ec <tdoa_init+0x254>)
   80210:	e9c3 0100 	strd	r0, r1, [r3]
	xki = coord_t.xk - coord_t.xi;
   80214:	a152      	add	r1, pc, #328	; (adr r1, 80360 <tdoa_init+0x1c8>)
   80216:	e9d1 0100 	ldrd	r0, r1, [r1]
   8021a:	4b75      	ldr	r3, [pc, #468]	; (803f0 <tdoa_init+0x258>)
   8021c:	e9c3 0100 	strd	r0, r1, [r3]
	xjk = coord_t.xj - coord_t.xk;
   80220:	a151      	add	r1, pc, #324	; (adr r1, 80368 <tdoa_init+0x1d0>)
   80222:	e9d1 0100 	ldrd	r0, r1, [r1]
   80226:	4b73      	ldr	r3, [pc, #460]	; (803f4 <tdoa_init+0x25c>)
   80228:	e9c3 0100 	strd	r0, r1, [r3]
	xlk = coord_t.xl - coord_t.xk;
   8022c:	a150      	add	r1, pc, #320	; (adr r1, 80370 <tdoa_init+0x1d8>)
   8022e:	e9d1 0100 	ldrd	r0, r1, [r1]
   80232:	4b71      	ldr	r3, [pc, #452]	; (803f8 <tdoa_init+0x260>)
   80234:	e9c3 0100 	strd	r0, r1, [r3]

	yji = coord_t.yj - coord_t.yi;
   80238:	a14f      	add	r1, pc, #316	; (adr r1, 80378 <tdoa_init+0x1e0>)
   8023a:	e9d1 0100 	ldrd	r0, r1, [r1]
   8023e:	4b6f      	ldr	r3, [pc, #444]	; (803fc <tdoa_init+0x264>)
   80240:	e9c3 0100 	strd	r0, r1, [r3]
	yki = coord_t.yk - coord_t.yi;
   80244:	a14e      	add	r1, pc, #312	; (adr r1, 80380 <tdoa_init+0x1e8>)
   80246:	e9d1 0100 	ldrd	r0, r1, [r1]
   8024a:	4b6d      	ldr	r3, [pc, #436]	; (80400 <tdoa_init+0x268>)
   8024c:	e9c3 0100 	strd	r0, r1, [r3]
	yjk = coord_t.yj - coord_t.yk;
   80250:	a14d      	add	r1, pc, #308	; (adr r1, 80388 <tdoa_init+0x1f0>)
   80252:	e9d1 0100 	ldrd	r0, r1, [r1]
   80256:	4b6b      	ldr	r3, [pc, #428]	; (80404 <tdoa_init+0x26c>)
   80258:	e9c3 0100 	strd	r0, r1, [r3]
	ylk = coord_t.yl - coord_t.yk;
   8025c:	a14c      	add	r1, pc, #304	; (adr r1, 80390 <tdoa_init+0x1f8>)
   8025e:	e9d1 0100 	ldrd	r0, r1, [r1]
   80262:	4b69      	ldr	r3, [pc, #420]	; (80408 <tdoa_init+0x270>)
   80264:	e9c3 0100 	strd	r0, r1, [r3]

	zji = coord_t.zj - coord_t.zi;
   80268:	a34b      	add	r3, pc, #300	; (adr r3, 80398 <tdoa_init+0x200>)
   8026a:	e9d3 2300 	ldrd	r2, r3, [r3]
   8026e:	4967      	ldr	r1, [pc, #412]	; (8040c <tdoa_init+0x274>)
   80270:	e9c1 2300 	strd	r2, r3, [r1]
	zki = coord_t.zk - coord_t.zi;
   80274:	2400      	movs	r4, #0
   80276:	2500      	movs	r5, #0
   80278:	4965      	ldr	r1, [pc, #404]	; (80410 <tdoa_init+0x278>)
   8027a:	e9c1 4500 	strd	r4, r5, [r1]
	zjk = coord_t.zj - coord_t.zk;
   8027e:	4965      	ldr	r1, [pc, #404]	; (80414 <tdoa_init+0x27c>)
   80280:	e9c1 2300 	strd	r2, r3, [r1]
	zlk = coord_t.zl - coord_t.zk;
   80284:	4964      	ldr	r1, [pc, #400]	; (80418 <tdoa_init+0x280>)
   80286:	e9c1 2300 	strd	r2, r3, [r1]

	powXi = pow2(coord_t.xi);
   8028a:	a145      	add	r1, pc, #276	; (adr r1, 803a0 <tdoa_init+0x208>)
   8028c:	e9d1 0100 	ldrd	r0, r1, [r1]
   80290:	4b62      	ldr	r3, [pc, #392]	; (8041c <tdoa_init+0x284>)
   80292:	e9c3 0100 	strd	r0, r1, [r3]
	powXj = pow2(coord_t.xj);
   80296:	a144      	add	r1, pc, #272	; (adr r1, 803a8 <tdoa_init+0x210>)
   80298:	e9d1 0100 	ldrd	r0, r1, [r1]
   8029c:	4b60      	ldr	r3, [pc, #384]	; (80420 <tdoa_init+0x288>)
   8029e:	e9c3 0100 	strd	r0, r1, [r3]
	powXk = pow2(coord_t.xk);
   802a2:	a143      	add	r1, pc, #268	; (adr r1, 803b0 <tdoa_init+0x218>)
   802a4:	e9d1 0100 	ldrd	r0, r1, [r1]
   802a8:	4b5e      	ldr	r3, [pc, #376]	; (80424 <tdoa_init+0x28c>)
   802aa:	e9c3 0100 	strd	r0, r1, [r3]
	powXl = pow2(coord_t.xl);
   802ae:	a142      	add	r1, pc, #264	; (adr r1, 803b8 <tdoa_init+0x220>)
   802b0:	e9d1 0100 	ldrd	r0, r1, [r1]
   802b4:	4b5c      	ldr	r3, [pc, #368]	; (80428 <tdoa_init+0x290>)
   802b6:	e9c3 0100 	strd	r0, r1, [r3]

	powYi = pow2(coord_t.yi);
   802ba:	a141      	add	r1, pc, #260	; (adr r1, 803c0 <tdoa_init+0x228>)
   802bc:	e9d1 0100 	ldrd	r0, r1, [r1]
   802c0:	4b5a      	ldr	r3, [pc, #360]	; (8042c <tdoa_init+0x294>)
   802c2:	e9c3 0100 	strd	r0, r1, [r3]
	powYj = pow2(coord_t.yj);
   802c6:	a140      	add	r1, pc, #256	; (adr r1, 803c8 <tdoa_init+0x230>)
   802c8:	e9d1 0100 	ldrd	r0, r1, [r1]
   802cc:	4b58      	ldr	r3, [pc, #352]	; (80430 <tdoa_init+0x298>)
   802ce:	e9c3 0100 	strd	r0, r1, [r3]
	powYk = pow2(coord_t.yk);
   802d2:	a13f      	add	r1, pc, #252	; (adr r1, 803d0 <tdoa_init+0x238>)
   802d4:	e9d1 0100 	ldrd	r0, r1, [r1]
   802d8:	4b56      	ldr	r3, [pc, #344]	; (80434 <tdoa_init+0x29c>)
   802da:	e9c3 0100 	strd	r0, r1, [r3]
	powYl = pow2(coord_t.yl);
   802de:	a13e      	add	r1, pc, #248	; (adr r1, 803d8 <tdoa_init+0x240>)
   802e0:	e9d1 0100 	ldrd	r0, r1, [r1]
   802e4:	4b54      	ldr	r3, [pc, #336]	; (80438 <tdoa_init+0x2a0>)
   802e6:	e9c3 0100 	strd	r0, r1, [r3]

	powZi = pow2(coord_t.zi);
   802ea:	a13d      	add	r1, pc, #244	; (adr r1, 803e0 <tdoa_init+0x248>)
   802ec:	e9d1 0100 	ldrd	r0, r1, [r1]
   802f0:	4b52      	ldr	r3, [pc, #328]	; (8043c <tdoa_init+0x2a4>)
   802f2:	e9c3 0100 	strd	r0, r1, [r3]
	powZj = pow2(coord_t.zj);
   802f6:	2200      	movs	r2, #0
   802f8:	4b51      	ldr	r3, [pc, #324]	; (80440 <tdoa_init+0x2a8>)
   802fa:	4c52      	ldr	r4, [pc, #328]	; (80444 <tdoa_init+0x2ac>)
   802fc:	e9c4 2300 	strd	r2, r3, [r4]
	powZk = pow2(coord_t.zk);
   80300:	4c51      	ldr	r4, [pc, #324]	; (80448 <tdoa_init+0x2b0>)
   80302:	e9c4 0100 	strd	r0, r1, [r4]
	powZl = pow2(coord_t.zl);
   80306:	4951      	ldr	r1, [pc, #324]	; (8044c <tdoa_init+0x2b4>)
   80308:	e9c1 2300 	strd	r2, r3, [r1]
}
   8030c:	bc30      	pop	{r4, r5}
   8030e:	4770      	bx	lr
   80310:	eb851eb8 	.word	0xeb851eb8
   80314:	3fbeb851 	.word	0x3fbeb851
   80318:	28f5c28f 	.word	0x28f5c28f
   8031c:	3ffe8f5c 	.word	0x3ffe8f5c
   80320:	f5c28f5c 	.word	0xf5c28f5c
   80324:	3fbf5c28 	.word	0x3fbf5c28
   80328:	9999999a 	.word	0x9999999a
   8032c:	3fff9999 	.word	0x3fff9999
   80330:	47ae147b 	.word	0x47ae147b
   80334:	3fc47ae1 	.word	0x3fc47ae1
   80338:	3d70a3d7 	.word	0x3d70a3d7
   8033c:	3fc3d70a 	.word	0x3fc3d70a
   80340:	89374bc7 	.word	0x89374bc7
   80344:	400f6041 	.word	0x400f6041
   80348:	2d0e5604 	.word	0x2d0e5604
   8034c:	400f9db2 	.word	0x400f9db2
   80350:	7ae147ae 	.word	0x7ae147ae
   80354:	3fffae14 	.word	0x3fffae14
   80358:	0a3d70a4 	.word	0x0a3d70a4
   8035c:	3ffca3d7 	.word	0x3ffca3d7
   80360:	47ae1480 	.word	0x47ae1480
   80364:	3f647ae1 	.word	0x3f647ae1
   80368:	99999999 	.word	0x99999999
   8036c:	3ffc9999 	.word	0x3ffc9999
   80370:	0a3d70a4 	.word	0x0a3d70a4
   80374:	3ffda3d7 	.word	0x3ffda3d7
   80378:	47ae1480 	.word	0x47ae1480
   8037c:	bf747ae1 	.word	0xbf747ae1
   80380:	74bc6a7f 	.word	0x74bc6a7f
   80384:	400e1893 	.word	0x400e1893
   80388:	e560418a 	.word	0xe560418a
   8038c:	c00e22d0 	.word	0xc00e22d0
   80390:	eb851e80 	.word	0xeb851e80
   80394:	3f9eb851 	.word	0x3f9eb851
   80398:	47ae1480 	.word	0x47ae1480
   8039c:	3f947ae1 	.word	0x3f947ae1
   803a0:	487fcb92 	.word	0x487fcb92
   803a4:	3f8d7dbf 	.word	0x3f8d7dbf
   803a8:	0d844d01 	.word	0x0d844d01
   803ac:	400d2f4f 	.word	0x400d2f4f
   803b0:	c7e28240 	.word	0xc7e28240
   803b4:	3f8ebb98 	.word	0x3f8ebb98
   803b8:	e147ae15 	.word	0xe147ae15
   803bc:	400f347a 	.word	0x400f347a
   803c0:	eb1c432d 	.word	0xeb1c432d
   803c4:	3f9a36e2 	.word	0x3f9a36e2
   803c8:	7525460b 	.word	0x7525460b
   803cc:	3f989a02 	.word	0x3f989a02
   803d0:	8398a655 	.word	0x8398a655
   803d4:	402ec3a0 	.word	0x402ec3a0
   803d8:	5785f8d3 	.word	0x5785f8d3
   803dc:	402f3c92 	.word	0x402f3c92
   803e0:	acd9e83e 	.word	0xacd9e83e
   803e4:	400f5cfa 	.word	0x400f5cfa
   803e8:	20070d60 	.word	0x20070d60
   803ec:	20070b88 	.word	0x20070b88
   803f0:	20070b98 	.word	0x20070b98
   803f4:	20070b90 	.word	0x20070b90
   803f8:	20070ba0 	.word	0x20070ba0
   803fc:	20070ba8 	.word	0x20070ba8
   80400:	20070bb8 	.word	0x20070bb8
   80404:	20070bb0 	.word	0x20070bb0
   80408:	20070bc0 	.word	0x20070bc0
   8040c:	20070bc8 	.word	0x20070bc8
   80410:	20070bd8 	.word	0x20070bd8
   80414:	20070bd0 	.word	0x20070bd0
   80418:	20070be0 	.word	0x20070be0
   8041c:	20070b28 	.word	0x20070b28
   80420:	20070b30 	.word	0x20070b30
   80424:	20070b38 	.word	0x20070b38
   80428:	20070b40 	.word	0x20070b40
   8042c:	20070b48 	.word	0x20070b48
   80430:	20070b50 	.word	0x20070b50
   80434:	20070b58 	.word	0x20070b58
   80438:	20070b60 	.word	0x20070b60
   8043c:	20070b68 	.word	0x20070b68
   80440:	40100000 	.word	0x40100000
   80444:	20070b70 	.word	0x20070b70
   80448:	20070b78 	.word	0x20070b78
   8044c:	20070b80 	.word	0x20070b80

00080450 <set_tdoa>:

void set_tdoa(double ti, double tj, double tk, double tl)
{
   80450:	e92d 4ff0 	stmdb	sp!, {r4, r5, r6, r7, r8, r9, sl, fp, lr}
   80454:	b083      	sub	sp, #12
   80456:	4604      	mov	r4, r0
   80458:	460d      	mov	r5, r1
   8045a:	e9cd 2300 	strd	r2, r3, [sp]
	// tj = 1, ti = 1.00085, tk = 0.9956, tl = 0.99397
	// real values ti = 0.0065174534, tj = 0.00561862, tk = 0.0058444995, tl = 0.0049055456
	tdoa_t.tij = ti-tj; //0.00085;
   8045e:	f8df b0a8 	ldr.w	fp, [pc, #168]	; 80508 <set_tdoa+0xb8>
   80462:	47d8      	blx	fp
   80464:	4680      	mov	r8, r0
   80466:	4689      	mov	r9, r1
   80468:	f8df a0a0 	ldr.w	sl, [pc, #160]	; 8050c <set_tdoa+0xbc>
   8046c:	e9ca 8900 	strd	r8, r9, [sl]
	tdoa_t.tik = ti-tk; //0.00525;
   80470:	e9dd 230c 	ldrd	r2, r3, [sp, #48]	; 0x30
   80474:	4620      	mov	r0, r4
   80476:	4629      	mov	r1, r5
   80478:	47d8      	blx	fp
   8047a:	4606      	mov	r6, r0
   8047c:	460f      	mov	r7, r1
   8047e:	e9ca 6702 	strd	r6, r7, [sl, #8]
	tdoa_t.tkj = tk-tj; //-0.0044;
   80482:	e9dd 2300 	ldrd	r2, r3, [sp]
   80486:	e9dd 010c 	ldrd	r0, r1, [sp, #48]	; 0x30
   8048a:	47d8      	blx	fp
   8048c:	4604      	mov	r4, r0
   8048e:	460d      	mov	r5, r1
   80490:	e9ca 4504 	strd	r4, r5, [sl, #16]
	tdoa_t.tkl = tk-tl; //0.00163;
   80494:	e9dd 230e 	ldrd	r2, r3, [sp, #56]	; 0x38
   80498:	e9dd 010c 	ldrd	r0, r1, [sp, #48]	; 0x30
   8049c:	47d8      	blx	fp
   8049e:	e9cd 0100 	strd	r0, r1, [sp]
   804a2:	4602      	mov	r2, r0
   804a4:	460b      	mov	r3, r1
   804a6:	e9ca 2306 	strd	r2, r3, [sl, #24]
	printf("tij: %s sec\n", get_decimal_string(tdoa_t.tij)); // 0.0008988334
	printf("tik: %s sec\n", get_decimal_string(tdoa_t.tik)); // 0.0006729539
	printf("tkj: %s sec\n", get_decimal_string(tdoa_t.tkj)); // 0.0002258795
	printf("tkl: %s sec\n", get_decimal_string(tdoa_t.tkl)); // 0.0009389539
	*/
	Rij = v * tdoa_t.tij;
   804aa:	f8df a064 	ldr.w	sl, [pc, #100]	; 80510 <set_tdoa+0xc0>
   804ae:	2200      	movs	r2, #0
   804b0:	4b10      	ldr	r3, [pc, #64]	; (804f4 <set_tdoa+0xa4>)
   804b2:	4640      	mov	r0, r8
   804b4:	4649      	mov	r1, r9
   804b6:	47d0      	blx	sl
   804b8:	4b0f      	ldr	r3, [pc, #60]	; (804f8 <set_tdoa+0xa8>)
   804ba:	e9c3 0100 	strd	r0, r1, [r3]
	Rik = v * tdoa_t.tik;
   804be:	2200      	movs	r2, #0
   804c0:	4b0c      	ldr	r3, [pc, #48]	; (804f4 <set_tdoa+0xa4>)
   804c2:	4630      	mov	r0, r6
   804c4:	4639      	mov	r1, r7
   804c6:	47d0      	blx	sl
   804c8:	4b0c      	ldr	r3, [pc, #48]	; (804fc <set_tdoa+0xac>)
   804ca:	e9c3 0100 	strd	r0, r1, [r3]
	Rkj = v * tdoa_t.tkj;
   804ce:	2200      	movs	r2, #0
   804d0:	4b08      	ldr	r3, [pc, #32]	; (804f4 <set_tdoa+0xa4>)
   804d2:	4620      	mov	r0, r4
   804d4:	4629      	mov	r1, r5
   804d6:	47d0      	blx	sl
   804d8:	4b09      	ldr	r3, [pc, #36]	; (80500 <set_tdoa+0xb0>)
   804da:	e9c3 0100 	strd	r0, r1, [r3]
	Rkl = v * tdoa_t.tkl;
   804de:	2200      	movs	r2, #0
   804e0:	4b04      	ldr	r3, [pc, #16]	; (804f4 <set_tdoa+0xa4>)
   804e2:	e9dd 0100 	ldrd	r0, r1, [sp]
   804e6:	47d0      	blx	sl
   804e8:	4b06      	ldr	r3, [pc, #24]	; (80504 <set_tdoa+0xb4>)
   804ea:	e9c3 0100 	strd	r0, r1, [r3]
	Ril = v * (ti - tl);
}
   804ee:	b003      	add	sp, #12
   804f0:	e8bd 8ff0 	ldmia.w	sp!, {r4, r5, r6, r7, r8, r9, sl, fp, pc}
   804f4:	40754000 	.word	0x40754000
   804f8:	20070b08 	.word	0x20070b08
   804fc:	20070b10 	.word	0x20070b10
   80500:	20070b18 	.word	0x20070b18
   80504:	20070b20 	.word	0x20070b20
   80508:	00081e41 	.word	0x00081e41
   8050c:	20070d40 	.word	0x20070d40
   80510:	000821a9 	.word	0x000821a9

00080514 <calculate_position>:
	}
	return z;
}
*/
void calculate_position(double *x, double *y, double *z)
{
   80514:	e92d 4ff0 	stmdb	sp!, {r4, r5, r6, r7, r8, r9, sl, fp, lr}
   80518:	b0ad      	sub	sp, #180	; 0xb4
   8051a:	9029      	str	r0, [sp, #164]	; 0xa4
   8051c:	912a      	str	r1, [sp, #168]	; 0xa8
   8051e:	922b      	str	r2, [sp, #172]	; 0xac
	double Yi = (Rij*yki)-(Rik*yji);
   80520:	4b8f      	ldr	r3, [pc, #572]	; (80760 <calculate_position+0x24c>)
   80522:	cb18      	ldmia	r3, {r3, r4}
   80524:	4618      	mov	r0, r3
   80526:	4621      	mov	r1, r4
   80528:	4b8e      	ldr	r3, [pc, #568]	; (80764 <calculate_position+0x250>)
   8052a:	cb18      	ldmia	r3, {r3, r4}
   8052c:	461f      	mov	r7, r3
   8052e:	46a0      	mov	r8, r4
   80530:	4b8d      	ldr	r3, [pc, #564]	; (80768 <calculate_position+0x254>)
   80532:	cb18      	ldmia	r3, {r3, r4}
   80534:	461d      	mov	r5, r3
   80536:	4626      	mov	r6, r4
   80538:	4c8c      	ldr	r4, [pc, #560]	; (8076c <calculate_position+0x258>)
   8053a:	e9cd 7808 	strd	r7, r8, [sp, #32]
   8053e:	463a      	mov	r2, r7
   80540:	4643      	mov	r3, r8
   80542:	e9cd 0100 	strd	r0, r1, [sp]
   80546:	47a0      	blx	r4
   80548:	4680      	mov	r8, r0
   8054a:	4689      	mov	r9, r1
   8054c:	4b88      	ldr	r3, [pc, #544]	; (80770 <calculate_position+0x25c>)
   8054e:	e9d3 2300 	ldrd	r2, r3, [r3]
   80552:	e9cd 5604 	strd	r5, r6, [sp, #16]
   80556:	4628      	mov	r0, r5
   80558:	4631      	mov	r1, r6
   8055a:	47a0      	blx	r4
   8055c:	4e85      	ldr	r6, [pc, #532]	; (80774 <calculate_position+0x260>)
   8055e:	4602      	mov	r2, r0
   80560:	460b      	mov	r3, r1
   80562:	4640      	mov	r0, r8
   80564:	4649      	mov	r1, r9
   80566:	47b0      	blx	r6
   80568:	e9cd 0110 	strd	r0, r1, [sp, #64]	; 0x40
	double Yk = (Rkj*ylk)-(Rkl*yjk);
   8056c:	4b82      	ldr	r3, [pc, #520]	; (80778 <calculate_position+0x264>)
   8056e:	e9d3 ab00 	ldrd	sl, fp, [r3]
   80572:	4b82      	ldr	r3, [pc, #520]	; (8077c <calculate_position+0x268>)
   80574:	e9d3 2300 	ldrd	r2, r3, [r3]
   80578:	e9cd 2302 	strd	r2, r3, [sp, #8]
   8057c:	4b80      	ldr	r3, [pc, #512]	; (80780 <calculate_position+0x26c>)
   8057e:	e9d3 2300 	ldrd	r2, r3, [r3]
   80582:	4650      	mov	r0, sl
   80584:	4659      	mov	r1, fp
   80586:	47a0      	blx	r4
   80588:	4680      	mov	r8, r0
   8058a:	4689      	mov	r9, r1
   8058c:	4b7d      	ldr	r3, [pc, #500]	; (80784 <calculate_position+0x270>)
   8058e:	e9d3 2300 	ldrd	r2, r3, [r3]
   80592:	e9dd 0102 	ldrd	r0, r1, [sp, #8]
   80596:	47a0      	blx	r4
   80598:	4602      	mov	r2, r0
   8059a:	460b      	mov	r3, r1
   8059c:	4640      	mov	r0, r8
   8059e:	4649      	mov	r1, r9
   805a0:	47b0      	blx	r6
   805a2:	e9cd 0112 	strd	r0, r1, [sp, #72]	; 0x48
}

/* Math function for raising x to the power of 2 */
double pow2(double x)
{
	return x*x;
   805a6:	e9dd 7804 	ldrd	r7, r8, [sp, #16]
   805aa:	463a      	mov	r2, r7
   805ac:	4643      	mov	r3, r8
   805ae:	4638      	mov	r0, r7
   805b0:	4641      	mov	r1, r8
   805b2:	47a0      	blx	r4
   805b4:	e9cd 0114 	strd	r0, r1, [sp, #80]	; 0x50
	double A = (Rik*xji-Rij*xki)/Yi;
   805b8:	4b73      	ldr	r3, [pc, #460]	; (80788 <calculate_position+0x274>)
   805ba:	e9d3 1200 	ldrd	r1, r2, [r3]
   805be:	e9cd 1206 	strd	r1, r2, [sp, #24]
   805c2:	4b72      	ldr	r3, [pc, #456]	; (8078c <calculate_position+0x278>)
   805c4:	e9d3 2300 	ldrd	r2, r3, [r3]
   805c8:	e9cd 7804 	strd	r7, r8, [sp, #16]
   805cc:	4638      	mov	r0, r7
   805ce:	4641      	mov	r1, r8
   805d0:	47a0      	blx	r4
   805d2:	4680      	mov	r8, r0
   805d4:	4689      	mov	r9, r1
   805d6:	e9dd 2306 	ldrd	r2, r3, [sp, #24]
   805da:	e9dd 0100 	ldrd	r0, r1, [sp]
   805de:	47a0      	blx	r4
   805e0:	4602      	mov	r2, r0
   805e2:	460b      	mov	r3, r1
   805e4:	4640      	mov	r0, r8
   805e6:	4649      	mov	r1, r9
   805e8:	47b0      	blx	r6
   805ea:	4f69      	ldr	r7, [pc, #420]	; (80790 <calculate_position+0x27c>)
   805ec:	e9dd 2310 	ldrd	r2, r3, [sp, #64]	; 0x40
   805f0:	47b8      	blx	r7
   805f2:	e9cd 0116 	strd	r0, r1, [sp, #88]	; 0x58
	double B = (Rik*zji-Rij*zki)/Yi;
   805f6:	4b67      	ldr	r3, [pc, #412]	; (80794 <calculate_position+0x280>)
   805f8:	e9d3 2300 	ldrd	r2, r3, [r3]
   805fc:	e9cd 2318 	strd	r2, r3, [sp, #96]	; 0x60
   80600:	4b65      	ldr	r3, [pc, #404]	; (80798 <calculate_position+0x284>)
   80602:	e9d3 2300 	ldrd	r2, r3, [r3]
   80606:	e9dd 0104 	ldrd	r0, r1, [sp, #16]
   8060a:	47a0      	blx	r4
   8060c:	4680      	mov	r8, r0
   8060e:	4689      	mov	r9, r1
   80610:	e9dd 2318 	ldrd	r2, r3, [sp, #96]	; 0x60
   80614:	e9dd 0100 	ldrd	r0, r1, [sp]
   80618:	47a0      	blx	r4
   8061a:	4602      	mov	r2, r0
   8061c:	460b      	mov	r3, r1
   8061e:	4640      	mov	r0, r8
   80620:	4649      	mov	r1, r9
   80622:	47b0      	blx	r6
   80624:	e9dd 2310 	ldrd	r2, r3, [sp, #64]	; 0x40
   80628:	47b8      	blx	r7
   8062a:	e9cd 0124 	strd	r0, r1, [sp, #144]	; 0x90
	double C = (Rik*(powRij+powXi-powXj+powYi-powYj+powZi-powZj) - (Rij*(powRik+powXi-powXk+powYi-powYk+powZi-powZk)))/(2*Yi);
   8062e:	4b5b      	ldr	r3, [pc, #364]	; (8079c <calculate_position+0x288>)
   80630:	e9d3 1200 	ldrd	r1, r2, [r3]
   80634:	e9cd 121a 	strd	r1, r2, [sp, #104]	; 0x68
   80638:	4b59      	ldr	r3, [pc, #356]	; (807a0 <calculate_position+0x28c>)
   8063a:	e9d3 8900 	ldrd	r8, r9, [r3]
   8063e:	e9cd 891c 	strd	r8, r9, [sp, #112]	; 0x70
   80642:	4b58      	ldr	r3, [pc, #352]	; (807a4 <calculate_position+0x290>)
   80644:	e9d3 8900 	ldrd	r8, r9, [r3]
   80648:	4b57      	ldr	r3, [pc, #348]	; (807a8 <calculate_position+0x294>)
   8064a:	e9d3 1200 	ldrd	r1, r2, [r3]
   8064e:	e9cd 121e 	strd	r1, r2, [sp, #120]	; 0x78
   80652:	4b56      	ldr	r3, [pc, #344]	; (807ac <calculate_position+0x298>)
   80654:	e9d3 2300 	ldrd	r2, r3, [r3]
   80658:	e9cd 2320 	strd	r2, r3, [sp, #128]	; 0x80
   8065c:	4b54      	ldr	r3, [pc, #336]	; (807b0 <calculate_position+0x29c>)
   8065e:	e9d3 1200 	ldrd	r1, r2, [r3]
   80662:	e9cd 1222 	strd	r1, r2, [sp, #136]	; 0x88
   80666:	4b53      	ldr	r3, [pc, #332]	; (807b4 <calculate_position+0x2a0>)
   80668:	e9d3 1200 	ldrd	r1, r2, [r3]
   8066c:	e9cd 120a 	strd	r1, r2, [sp, #40]	; 0x28
   80670:	4b51      	ldr	r3, [pc, #324]	; (807b8 <calculate_position+0x2a4>)
   80672:	e9d3 1200 	ldrd	r1, r2, [r3]
   80676:	e9cd 120c 	strd	r1, r2, [sp, #48]	; 0x30
   8067a:	4b50      	ldr	r3, [pc, #320]	; (807bc <calculate_position+0x2a8>)
   8067c:	e9d3 2300 	ldrd	r2, r3, [r3]
   80680:	e9cd 230e 	strd	r2, r3, [sp, #56]	; 0x38
   80684:	4d4e      	ldr	r5, [pc, #312]	; (807c0 <calculate_position+0x2ac>)
   80686:	e9dd 2314 	ldrd	r2, r3, [sp, #80]	; 0x50
   8068a:	e9dd 011a 	ldrd	r0, r1, [sp, #104]	; 0x68
   8068e:	47a8      	blx	r5
   80690:	e9dd 230a 	ldrd	r2, r3, [sp, #40]	; 0x28
   80694:	47b0      	blx	r6
   80696:	4642      	mov	r2, r8
   80698:	464b      	mov	r3, r9
   8069a:	47a8      	blx	r5
   8069c:	e9dd 230c 	ldrd	r2, r3, [sp, #48]	; 0x30
   806a0:	47b0      	blx	r6
   806a2:	e9dd 2320 	ldrd	r2, r3, [sp, #128]	; 0x80
   806a6:	47a8      	blx	r5
   806a8:	e9dd 230e 	ldrd	r2, r3, [sp, #56]	; 0x38
   806ac:	47b0      	blx	r6
   806ae:	e9cd 0126 	strd	r0, r1, [sp, #152]	; 0x98
	return x*x;
   806b2:	e9dd 0100 	ldrd	r0, r1, [sp]
   806b6:	4602      	mov	r2, r0
   806b8:	460b      	mov	r3, r1
   806ba:	47a0      	blx	r4
	double C = (Rik*(powRij+powXi-powXj+powYi-powYj+powZi-powZj) - (Rij*(powRik+powXi-powXk+powYi-powYk+powZi-powZk)))/(2*Yi);
   806bc:	e9dd 231a 	ldrd	r2, r3, [sp, #104]	; 0x68
   806c0:	47a8      	blx	r5
   806c2:	e9dd 231c 	ldrd	r2, r3, [sp, #112]	; 0x70
   806c6:	47b0      	blx	r6
   806c8:	4642      	mov	r2, r8
   806ca:	464b      	mov	r3, r9
   806cc:	47a8      	blx	r5
   806ce:	e9dd 231e 	ldrd	r2, r3, [sp, #120]	; 0x78
   806d2:	47b0      	blx	r6
   806d4:	e9dd 2320 	ldrd	r2, r3, [sp, #128]	; 0x80
   806d8:	47a8      	blx	r5
   806da:	e9dd 2322 	ldrd	r2, r3, [sp, #136]	; 0x88
   806de:	47b0      	blx	r6
   806e0:	e9dd 2304 	ldrd	r2, r3, [sp, #16]
   806e4:	47a0      	blx	r4
   806e6:	4680      	mov	r8, r0
   806e8:	4689      	mov	r9, r1
   806ea:	e9dd 2326 	ldrd	r2, r3, [sp, #152]	; 0x98
   806ee:	e9dd 0100 	ldrd	r0, r1, [sp]
   806f2:	47a0      	blx	r4
   806f4:	4602      	mov	r2, r0
   806f6:	460b      	mov	r3, r1
   806f8:	4640      	mov	r0, r8
   806fa:	4649      	mov	r1, r9
   806fc:	47b0      	blx	r6
   806fe:	4680      	mov	r8, r0
   80700:	4689      	mov	r9, r1
   80702:	e9dd 0110 	ldrd	r0, r1, [sp, #64]	; 0x40
   80706:	4602      	mov	r2, r0
   80708:	460b      	mov	r3, r1
   8070a:	47a8      	blx	r5
   8070c:	4602      	mov	r2, r0
   8070e:	460b      	mov	r3, r1
   80710:	4640      	mov	r0, r8
   80712:	4649      	mov	r1, r9
   80714:	47b8      	blx	r7
   80716:	e9cd 0110 	strd	r0, r1, [sp, #64]	; 0x40
	double D = (Rkl*xjk-Rkj*xlk)/Yk;
   8071a:	4b2a      	ldr	r3, [pc, #168]	; (807c4 <calculate_position+0x2b0>)
   8071c:	e9d3 2300 	ldrd	r2, r3, [r3]
   80720:	e9dd 0102 	ldrd	r0, r1, [sp, #8]
   80724:	47a0      	blx	r4
   80726:	4680      	mov	r8, r0
   80728:	4689      	mov	r9, r1
   8072a:	4b27      	ldr	r3, [pc, #156]	; (807c8 <calculate_position+0x2b4>)
   8072c:	e9d3 2300 	ldrd	r2, r3, [r3]
   80730:	4650      	mov	r0, sl
   80732:	4659      	mov	r1, fp
   80734:	47a0      	blx	r4
   80736:	4602      	mov	r2, r0
   80738:	460b      	mov	r3, r1
   8073a:	4640      	mov	r0, r8
   8073c:	4649      	mov	r1, r9
   8073e:	47b0      	blx	r6
   80740:	e9dd 2312 	ldrd	r2, r3, [sp, #72]	; 0x48
   80744:	47b8      	blx	r7
	double G = (E-B)/(A-D);
   80746:	4602      	mov	r2, r0
   80748:	460b      	mov	r3, r1
   8074a:	e9dd 0116 	ldrd	r0, r1, [sp, #88]	; 0x58
   8074e:	47b0      	blx	r6
   80750:	e9cd 0100 	strd	r0, r1, [sp]
	double E = (Rkl*zjk-Rkj*zlk)/Yk;
   80754:	4b1d      	ldr	r3, [pc, #116]	; (807cc <calculate_position+0x2b8>)
   80756:	e9d3 2300 	ldrd	r2, r3, [r3]
   8075a:	e9dd 0102 	ldrd	r0, r1, [sp, #8]
   8075e:	e037      	b.n	807d0 <calculate_position+0x2bc>
   80760:	20070b08 	.word	0x20070b08
   80764:	20070bb8 	.word	0x20070bb8
   80768:	20070b10 	.word	0x20070b10
   8076c:	000821a9 	.word	0x000821a9
   80770:	20070ba8 	.word	0x20070ba8
   80774:	00081e41 	.word	0x00081e41
   80778:	20070b18 	.word	0x20070b18
   8077c:	20070b20 	.word	0x20070b20
   80780:	20070bc0 	.word	0x20070bc0
   80784:	20070bb0 	.word	0x20070bb0
   80788:	20070b98 	.word	0x20070b98
   8078c:	20070b88 	.word	0x20070b88
   80790:	000823fd 	.word	0x000823fd
   80794:	20070bd8 	.word	0x20070bd8
   80798:	20070bc8 	.word	0x20070bc8
   8079c:	20070b28 	.word	0x20070b28
   807a0:	20070b30 	.word	0x20070b30
   807a4:	20070b48 	.word	0x20070b48
   807a8:	20070b50 	.word	0x20070b50
   807ac:	20070b68 	.word	0x20070b68
   807b0:	20070b70 	.word	0x20070b70
   807b4:	20070b38 	.word	0x20070b38
   807b8:	20070b58 	.word	0x20070b58
   807bc:	20070b78 	.word	0x20070b78
   807c0:	00081e45 	.word	0x00081e45
   807c4:	20070b90 	.word	0x20070b90
   807c8:	20070ba0 	.word	0x20070ba0
   807cc:	20070bd0 	.word	0x20070bd0
   807d0:	47a0      	blx	r4
   807d2:	4680      	mov	r8, r0
   807d4:	4689      	mov	r9, r1
   807d6:	4b9d      	ldr	r3, [pc, #628]	; (80a4c <calculate_position+0x538>)
   807d8:	e9d3 2300 	ldrd	r2, r3, [r3]
   807dc:	4650      	mov	r0, sl
   807de:	4659      	mov	r1, fp
   807e0:	47a0      	blx	r4
   807e2:	4602      	mov	r2, r0
   807e4:	460b      	mov	r3, r1
   807e6:	4640      	mov	r0, r8
   807e8:	4649      	mov	r1, r9
   807ea:	47b0      	blx	r6
   807ec:	e9dd 2312 	ldrd	r2, r3, [sp, #72]	; 0x48
   807f0:	47b8      	blx	r7
	double G = (E-B)/(A-D);
   807f2:	e9dd 2324 	ldrd	r2, r3, [sp, #144]	; 0x90
   807f6:	47b0      	blx	r6
   807f8:	e9dd 2300 	ldrd	r2, r3, [sp]
   807fc:	47b8      	blx	r7
   807fe:	e9cd 0104 	strd	r0, r1, [sp, #16]
	return x*x;
   80802:	4652      	mov	r2, sl
   80804:	465b      	mov	r3, fp
   80806:	4650      	mov	r0, sl
   80808:	4659      	mov	r1, fp
   8080a:	47a0      	blx	r4
	double F = (Rkl*(powRkj+powXk-powXj+powYk-powYj+powZk-powZj) - (Rkj*(powRkl+powXk-powXl+powYk-powYl+powZk-powZl)))/(2*Yk);
   8080c:	e9dd 230a 	ldrd	r2, r3, [sp, #40]	; 0x28
   80810:	47a8      	blx	r5
   80812:	e9dd 231c 	ldrd	r2, r3, [sp, #112]	; 0x70
   80816:	47b0      	blx	r6
   80818:	e9dd 230c 	ldrd	r2, r3, [sp, #48]	; 0x30
   8081c:	47a8      	blx	r5
   8081e:	e9dd 231e 	ldrd	r2, r3, [sp, #120]	; 0x78
   80822:	47b0      	blx	r6
   80824:	e9dd 230e 	ldrd	r2, r3, [sp, #56]	; 0x38
   80828:	47a8      	blx	r5
   8082a:	e9dd 2322 	ldrd	r2, r3, [sp, #136]	; 0x88
   8082e:	47b0      	blx	r6
   80830:	e9dd 2302 	ldrd	r2, r3, [sp, #8]
   80834:	47a0      	blx	r4
   80836:	4680      	mov	r8, r0
   80838:	4689      	mov	r9, r1
	return x*x;
   8083a:	e9dd 0102 	ldrd	r0, r1, [sp, #8]
   8083e:	4602      	mov	r2, r0
   80840:	460b      	mov	r3, r1
   80842:	47a0      	blx	r4
	double F = (Rkl*(powRkj+powXk-powXj+powYk-powYj+powZk-powZj) - (Rkj*(powRkl+powXk-powXl+powYk-powYl+powZk-powZl)))/(2*Yk);
   80844:	e9dd 230a 	ldrd	r2, r3, [sp, #40]	; 0x28
   80848:	47a8      	blx	r5
   8084a:	4b81      	ldr	r3, [pc, #516]	; (80a50 <calculate_position+0x53c>)
   8084c:	e9d3 2300 	ldrd	r2, r3, [r3]
   80850:	47b0      	blx	r6
   80852:	e9dd 230c 	ldrd	r2, r3, [sp, #48]	; 0x30
   80856:	47a8      	blx	r5
   80858:	4b7e      	ldr	r3, [pc, #504]	; (80a54 <calculate_position+0x540>)
   8085a:	e9d3 2300 	ldrd	r2, r3, [r3]
   8085e:	47b0      	blx	r6
   80860:	e9dd 230e 	ldrd	r2, r3, [sp, #56]	; 0x38
   80864:	47a8      	blx	r5
   80866:	4b7c      	ldr	r3, [pc, #496]	; (80a58 <calculate_position+0x544>)
   80868:	e9d3 2300 	ldrd	r2, r3, [r3]
   8086c:	47b0      	blx	r6
   8086e:	4652      	mov	r2, sl
   80870:	465b      	mov	r3, fp
   80872:	47a0      	blx	r4
   80874:	4602      	mov	r2, r0
   80876:	460b      	mov	r3, r1
   80878:	4640      	mov	r0, r8
   8087a:	4649      	mov	r1, r9
   8087c:	47b0      	blx	r6
   8087e:	4680      	mov	r8, r0
   80880:	4689      	mov	r9, r1
   80882:	e9dd bc12 	ldrd	fp, ip, [sp, #72]	; 0x48
   80886:	465a      	mov	r2, fp
   80888:	4663      	mov	r3, ip
   8088a:	4658      	mov	r0, fp
   8088c:	4661      	mov	r1, ip
   8088e:	47a8      	blx	r5
   80890:	4602      	mov	r2, r0
   80892:	460b      	mov	r3, r1
   80894:	4640      	mov	r0, r8
   80896:	4649      	mov	r1, r9
   80898:	47b8      	blx	r7
	double H = (F-C)/(A-D);
   8089a:	e9dd 2310 	ldrd	r2, r3, [sp, #64]	; 0x40
   8089e:	47b0      	blx	r6
   808a0:	e9dd 2300 	ldrd	r2, r3, [sp]
   808a4:	47b8      	blx	r7
   808a6:	4680      	mov	r8, r0
   808a8:	4689      	mov	r9, r1
	double W = A*G + B;
   808aa:	e9dd ab04 	ldrd	sl, fp, [sp, #16]
   808ae:	4652      	mov	r2, sl
   808b0:	465b      	mov	r3, fp
   808b2:	e9dd 0116 	ldrd	r0, r1, [sp, #88]	; 0x58
   808b6:	47a0      	blx	r4
   808b8:	e9dd 2324 	ldrd	r2, r3, [sp, #144]	; 0x90
   808bc:	47a8      	blx	r5
   808be:	e9cd 0100 	strd	r0, r1, [sp]
	double J = A*H + C;
   808c2:	e9cd 8902 	strd	r8, r9, [sp, #8]
   808c6:	4642      	mov	r2, r8
   808c8:	464b      	mov	r3, r9
   808ca:	e9dd 0116 	ldrd	r0, r1, [sp, #88]	; 0x58
   808ce:	47a0      	blx	r4
   808d0:	e9dd 2310 	ldrd	r2, r3, [sp, #64]	; 0x40
   808d4:	47a8      	blx	r5
   808d6:	e9cd 010a 	strd	r0, r1, [sp, #40]	; 0x28
	double K = powRik + powXi - powXk + powYi - powYk + powZi - powZk + 2 * xki * H + 2 * yki * J;
   808da:	e9dd 8906 	ldrd	r8, r9, [sp, #24]
   808de:	4642      	mov	r2, r8
   808e0:	464b      	mov	r3, r9
   808e2:	4640      	mov	r0, r8
   808e4:	4649      	mov	r1, r9
   808e6:	47a8      	blx	r5
   808e8:	e9dd 2302 	ldrd	r2, r3, [sp, #8]
   808ec:	47a0      	blx	r4
   808ee:	e9dd 2326 	ldrd	r2, r3, [sp, #152]	; 0x98
   808f2:	47a8      	blx	r5
   808f4:	4680      	mov	r8, r0
   808f6:	4689      	mov	r9, r1
   808f8:	e9dd 0108 	ldrd	r0, r1, [sp, #32]
   808fc:	4602      	mov	r2, r0
   808fe:	460b      	mov	r3, r1
   80900:	47a8      	blx	r5
   80902:	e9dd 230a 	ldrd	r2, r3, [sp, #40]	; 0x28
   80906:	47a0      	blx	r4
   80908:	4602      	mov	r2, r0
   8090a:	460b      	mov	r3, r1
   8090c:	4640      	mov	r0, r8
   8090e:	4649      	mov	r1, r9
   80910:	47a8      	blx	r5
   80912:	e9cd 010c 	strd	r0, r1, [sp, #48]	; 0x30
	double L = 2*(xki*G+yki*W+2*zki);
   80916:	4652      	mov	r2, sl
   80918:	465b      	mov	r3, fp
   8091a:	e9dd 0106 	ldrd	r0, r1, [sp, #24]
   8091e:	47a0      	blx	r4
   80920:	4680      	mov	r8, r0
   80922:	4689      	mov	r9, r1
   80924:	e9dd 2300 	ldrd	r2, r3, [sp]
   80928:	e9dd 0108 	ldrd	r0, r1, [sp, #32]
   8092c:	47a0      	blx	r4
   8092e:	4602      	mov	r2, r0
   80930:	460b      	mov	r3, r1
   80932:	4640      	mov	r0, r8
   80934:	4649      	mov	r1, r9
   80936:	47a8      	blx	r5
   80938:	4680      	mov	r8, r0
   8093a:	4689      	mov	r9, r1
   8093c:	e9dd 0118 	ldrd	r0, r1, [sp, #96]	; 0x60
   80940:	4602      	mov	r2, r0
   80942:	460b      	mov	r3, r1
   80944:	47a8      	blx	r5
   80946:	4602      	mov	r2, r0
   80948:	460b      	mov	r3, r1
   8094a:	4640      	mov	r0, r8
   8094c:	4649      	mov	r1, r9
   8094e:	47a8      	blx	r5
   80950:	4602      	mov	r2, r0
   80952:	460b      	mov	r3, r1
   80954:	47a8      	blx	r5
   80956:	e9cd 0106 	strd	r0, r1, [sp, #24]
	double M = 4*powRik*(pow2(G)+pow2(W)+1)-pow2(L);
   8095a:	2200      	movs	r2, #0
   8095c:	4b3f      	ldr	r3, [pc, #252]	; (80a5c <calculate_position+0x548>)
   8095e:	e9dd 0114 	ldrd	r0, r1, [sp, #80]	; 0x50
   80962:	47a0      	blx	r4
   80964:	e9cd 010e 	strd	r0, r1, [sp, #56]	; 0x38
	return x*x;
   80968:	e9dd 8900 	ldrd	r8, r9, [sp]
   8096c:	4642      	mov	r2, r8
   8096e:	464b      	mov	r3, r9
   80970:	4640      	mov	r0, r8
   80972:	4649      	mov	r1, r9
   80974:	47a0      	blx	r4
   80976:	4680      	mov	r8, r0
   80978:	4689      	mov	r9, r1
   8097a:	4652      	mov	r2, sl
   8097c:	465b      	mov	r3, fp
   8097e:	e9cd ab04 	strd	sl, fp, [sp, #16]
   80982:	4650      	mov	r0, sl
   80984:	4659      	mov	r1, fp
   80986:	47a0      	blx	r4
	double M = 4*powRik*(pow2(G)+pow2(W)+1)-pow2(L);
   80988:	4602      	mov	r2, r0
   8098a:	460b      	mov	r3, r1
   8098c:	4640      	mov	r0, r8
   8098e:	4649      	mov	r1, r9
   80990:	47a8      	blx	r5
   80992:	2200      	movs	r2, #0
   80994:	4b32      	ldr	r3, [pc, #200]	; (80a60 <calculate_position+0x54c>)
   80996:	47a8      	blx	r5
   80998:	e9dd 230e 	ldrd	r2, r3, [sp, #56]	; 0x38
   8099c:	47a0      	blx	r4
   8099e:	4680      	mov	r8, r0
   809a0:	4689      	mov	r9, r1
	return x*x;
   809a2:	e9dd bc06 	ldrd	fp, ip, [sp, #24]
   809a6:	465a      	mov	r2, fp
   809a8:	4663      	mov	r3, ip
   809aa:	4658      	mov	r0, fp
   809ac:	4661      	mov	r1, ip
   809ae:	47a0      	blx	r4
	double M = 4*powRik*(pow2(G)+pow2(W)+1)-pow2(L);
   809b0:	4602      	mov	r2, r0
   809b2:	460b      	mov	r3, r1
   809b4:	4640      	mov	r0, r8
   809b6:	4649      	mov	r1, r9
   809b8:	47b0      	blx	r6
   809ba:	e9cd 0108 	strd	r0, r1, [sp, #32]
	double N = 8*powRik*(G*(coord_t.xi-H) + W*(coord_t.yi-J) + coord_t.zi) + (2*L*K);
   809be:	f8df 80a8 	ldr.w	r8, [pc, #168]	; 80a68 <calculate_position+0x554>
   809c2:	e9dd 2302 	ldrd	r2, r3, [sp, #8]
   809c6:	e9d8 0100 	ldrd	r0, r1, [r8]
   809ca:	47b0      	blx	r6
   809cc:	e9cd 0110 	strd	r0, r1, [sp, #64]	; 0x40
   809d0:	e9dd 230a 	ldrd	r2, r3, [sp, #40]	; 0x28
   809d4:	e9d8 0108 	ldrd	r0, r1, [r8, #32]
   809d8:	47b0      	blx	r6
   809da:	e9cd 0112 	strd	r0, r1, [sp, #72]	; 0x48
   809de:	e9d8 ab10 	ldrd	sl, fp, [r8, #64]	; 0x40
   809e2:	e9dd 2310 	ldrd	r2, r3, [sp, #64]	; 0x40
   809e6:	e9dd 0104 	ldrd	r0, r1, [sp, #16]
   809ea:	47a0      	blx	r4
   809ec:	4680      	mov	r8, r0
   809ee:	4689      	mov	r9, r1
   809f0:	e9dd 2312 	ldrd	r2, r3, [sp, #72]	; 0x48
   809f4:	e9dd 0100 	ldrd	r0, r1, [sp]
   809f8:	47a0      	blx	r4
   809fa:	4602      	mov	r2, r0
   809fc:	460b      	mov	r3, r1
   809fe:	4640      	mov	r0, r8
   80a00:	4649      	mov	r1, r9
   80a02:	47a8      	blx	r5
   80a04:	4652      	mov	r2, sl
   80a06:	465b      	mov	r3, fp
   80a08:	47a8      	blx	r5
   80a0a:	4680      	mov	r8, r0
   80a0c:	4689      	mov	r9, r1
   80a0e:	2200      	movs	r2, #0
   80a10:	4b14      	ldr	r3, [pc, #80]	; (80a64 <calculate_position+0x550>)
   80a12:	e9dd 0114 	ldrd	r0, r1, [sp, #80]	; 0x50
   80a16:	47a0      	blx	r4
   80a18:	4602      	mov	r2, r0
   80a1a:	460b      	mov	r3, r1
   80a1c:	4640      	mov	r0, r8
   80a1e:	4649      	mov	r1, r9
   80a20:	47a0      	blx	r4
   80a22:	4680      	mov	r8, r0
   80a24:	4689      	mov	r9, r1
   80a26:	e9dd 0106 	ldrd	r0, r1, [sp, #24]
   80a2a:	4602      	mov	r2, r0
   80a2c:	460b      	mov	r3, r1
   80a2e:	47a8      	blx	r5
   80a30:	e9dd 230c 	ldrd	r2, r3, [sp, #48]	; 0x30
   80a34:	47a0      	blx	r4
   80a36:	4602      	mov	r2, r0
   80a38:	460b      	mov	r3, r1
   80a3a:	4640      	mov	r0, r8
   80a3c:	4649      	mov	r1, r9
   80a3e:	47a8      	blx	r5
   80a40:	4680      	mov	r8, r0
   80a42:	4689      	mov	r9, r1
	double n2m = N/(2*M);
   80a44:	e9dd 0108 	ldrd	r0, r1, [sp, #32]
   80a48:	4602      	mov	r2, r0
   80a4a:	e00f      	b.n	80a6c <calculate_position+0x558>
   80a4c:	20070be0 	.word	0x20070be0
   80a50:	20070b40 	.word	0x20070b40
   80a54:	20070b60 	.word	0x20070b60
   80a58:	20070b80 	.word	0x20070b80
   80a5c:	40100000 	.word	0x40100000
   80a60:	3ff00000 	.word	0x3ff00000
   80a64:	40200000 	.word	0x40200000
   80a68:	20070d60 	.word	0x20070d60
   80a6c:	460b      	mov	r3, r1
   80a6e:	47a8      	blx	r5
   80a70:	4602      	mov	r2, r0
   80a72:	460b      	mov	r3, r1
   80a74:	4640      	mov	r0, r8
   80a76:	4649      	mov	r1, r9
   80a78:	47b8      	blx	r7
   80a7a:	4602      	mov	r2, r0
   80a7c:	460b      	mov	r3, r1
   80a7e:	e9cd 2306 	strd	r2, r3, [sp, #24]
	return x*x;
   80a82:	47a0      	blx	r4
   80a84:	e9cd 0114 	strd	r0, r1, [sp, #80]	; 0x50
   80a88:	e9dd 8912 	ldrd	r8, r9, [sp, #72]	; 0x48
   80a8c:	4642      	mov	r2, r8
   80a8e:	464b      	mov	r3, r9
   80a90:	4640      	mov	r0, r8
   80a92:	4649      	mov	r1, r9
   80a94:	47a0      	blx	r4
   80a96:	4680      	mov	r8, r0
   80a98:	4689      	mov	r9, r1
   80a9a:	e9dd 0110 	ldrd	r0, r1, [sp, #64]	; 0x40
   80a9e:	4602      	mov	r2, r0
   80aa0:	460b      	mov	r3, r1
   80aa2:	47a0      	blx	r4
	double O = 4*powRik*(pow2(coord_t.xi-H) + pow2(coord_t.yi-J) + pow2(coord_t.zi)) - pow2(K);
   80aa4:	4602      	mov	r2, r0
   80aa6:	460b      	mov	r3, r1
   80aa8:	4640      	mov	r0, r8
   80aaa:	4649      	mov	r1, r9
   80aac:	47a8      	blx	r5
   80aae:	4680      	mov	r8, r0
   80ab0:	4689      	mov	r9, r1
	return x*x;
   80ab2:	4652      	mov	r2, sl
   80ab4:	465b      	mov	r3, fp
   80ab6:	4650      	mov	r0, sl
   80ab8:	4659      	mov	r1, fp
   80aba:	47a0      	blx	r4
	double O = 4*powRik*(pow2(coord_t.xi-H) + pow2(coord_t.yi-J) + pow2(coord_t.zi)) - pow2(K);
   80abc:	4602      	mov	r2, r0
   80abe:	460b      	mov	r3, r1
   80ac0:	4640      	mov	r0, r8
   80ac2:	4649      	mov	r1, r9
   80ac4:	47a8      	blx	r5
   80ac6:	e9dd 230e 	ldrd	r2, r3, [sp, #56]	; 0x38
   80aca:	47a0      	blx	r4
   80acc:	4680      	mov	r8, r0
   80ace:	4689      	mov	r9, r1
	return x*x;
   80ad0:	e9dd ab0c 	ldrd	sl, fp, [sp, #48]	; 0x30
   80ad4:	4652      	mov	r2, sl
   80ad6:	465b      	mov	r3, fp
   80ad8:	4650      	mov	r0, sl
   80ada:	4659      	mov	r1, fp
   80adc:	47a0      	blx	r4
	double O = 4*powRik*(pow2(coord_t.xi-H) + pow2(coord_t.yi-J) + pow2(coord_t.zi)) - pow2(K);
   80ade:	4602      	mov	r2, r0
   80ae0:	460b      	mov	r3, r1
   80ae2:	4640      	mov	r0, r8
   80ae4:	4649      	mov	r1, r9
   80ae6:	47b0      	blx	r6
	double om = O/M; //nan arises if M = 0
   80ae8:	e9dd 2308 	ldrd	r2, r3, [sp, #32]
   80aec:	47b8      	blx	r7
	double sq = pow2(n2m) - om;
   80aee:	4602      	mov	r2, r0
   80af0:	460b      	mov	r3, r1
   80af2:	e9dd 0114 	ldrd	r0, r1, [sp, #80]	; 0x50
   80af6:	47b0      	blx	r6
   80af8:	4605      	mov	r5, r0
   80afa:	460c      	mov	r4, r1
	if (sq < 0)
   80afc:	2200      	movs	r2, #0
   80afe:	2300      	movs	r3, #0
   80b00:	4628      	mov	r0, r5
   80b02:	4621      	mov	r1, r4
   80b04:	4e18      	ldr	r6, [pc, #96]	; (80b68 <calculate_position+0x654>)
   80b06:	47b0      	blx	r6
   80b08:	2800      	cmp	r0, #0
   80b0a:	d129      	bne.n	80b60 <calculate_position+0x64c>
	double temp_z = n2m - sqrt(sq);
   80b0c:	4628      	mov	r0, r5
   80b0e:	4621      	mov	r1, r4
   80b10:	4b16      	ldr	r3, [pc, #88]	; (80b6c <calculate_position+0x658>)
   80b12:	4798      	blx	r3
   80b14:	4602      	mov	r2, r0
   80b16:	460b      	mov	r3, r1
   80b18:	e9dd 0106 	ldrd	r0, r1, [sp, #24]
   80b1c:	4c14      	ldr	r4, [pc, #80]	; (80b70 <calculate_position+0x65c>)
   80b1e:	47a0      	blx	r4
   80b20:	4604      	mov	r4, r0
   80b22:	460d      	mov	r5, r1
	*z = temp_z;
   80b24:	9b2b      	ldr	r3, [sp, #172]	; 0xac
   80b26:	e9c3 4500 	strd	r4, r5, [r3]
	*x = G * temp_z + H;
   80b2a:	4e12      	ldr	r6, [pc, #72]	; (80b74 <calculate_position+0x660>)
   80b2c:	4602      	mov	r2, r0
   80b2e:	460b      	mov	r3, r1
   80b30:	e9dd 0104 	ldrd	r0, r1, [sp, #16]
   80b34:	47b0      	blx	r6
   80b36:	4f10      	ldr	r7, [pc, #64]	; (80b78 <calculate_position+0x664>)
   80b38:	e9dd 2302 	ldrd	r2, r3, [sp, #8]
   80b3c:	47b8      	blx	r7
   80b3e:	9b29      	ldr	r3, [sp, #164]	; 0xa4
   80b40:	e9c3 0100 	strd	r0, r1, [r3]
	*y = W * temp_z + J;
   80b44:	4622      	mov	r2, r4
   80b46:	462b      	mov	r3, r5
   80b48:	e9dd 0100 	ldrd	r0, r1, [sp]
   80b4c:	47b0      	blx	r6
   80b4e:	e9dd 230a 	ldrd	r2, r3, [sp, #40]	; 0x28
   80b52:	47b8      	blx	r7
   80b54:	9b2a      	ldr	r3, [sp, #168]	; 0xa8
   80b56:	e9c3 0100 	strd	r0, r1, [r3]
}
   80b5a:	b02d      	add	sp, #180	; 0xb4
   80b5c:	e8bd 8ff0 	ldmia.w	sp!, {r4, r5, r6, r7, r8, r9, sl, fp, pc}
		sq = (sq)*(-1);
   80b60:	f104 4400 	add.w	r4, r4, #2147483648	; 0x80000000
   80b64:	e7d2      	b.n	80b0c <calculate_position+0x5f8>
   80b66:	bf00      	nop
   80b68:	0008268d 	.word	0x0008268d
   80b6c:	00081c01 	.word	0x00081c01
   80b70:	00081e41 	.word	0x00081e41
   80b74:	000821a9 	.word	0x000821a9
   80b78:	00081e45 	.word	0x00081e45

00080b7c <TC0_Handler>:
/**
*  Interrupt handler for TC0 interrupt. Buffer cycles of all four signals for about 150 ms
*  Executes once done buffering all four signals.
*/
void TC0_Handler(void)
{
   80b7c:	b500      	push	{lr}
   80b7e:	b083      	sub	sp, #12
	//ioport_set_pin_level(CHECK_PIN,LOW);		//put test pin LOW
	volatile uint32_t ul_dummy;
	//static int counter = 0;
	/* Clear status bit to acknowledge interrupt */
	ul_dummy = tc_get_status(TC0, 0);	//The compare bit is cleared by reading the register, manual p. 915
   80b80:	2100      	movs	r1, #0
   80b82:	4806      	ldr	r0, [pc, #24]	; (80b9c <TC0_Handler+0x20>)
   80b84:	4b06      	ldr	r3, [pc, #24]	; (80ba0 <TC0_Handler+0x24>)
   80b86:	4798      	blx	r3
   80b88:	9001      	str	r0, [sp, #4]

	/* Avoid compiler warning */
	UNUSED(ul_dummy);
   80b8a:	9b01      	ldr	r3, [sp, #4]
	pio_enable_interrupt(PIOB, PIO_PB26);	
   80b8c:	f04f 6180 	mov.w	r1, #67108864	; 0x4000000
   80b90:	4804      	ldr	r0, [pc, #16]	; (80ba4 <TC0_Handler+0x28>)
   80b92:	4b05      	ldr	r3, [pc, #20]	; (80ba8 <TC0_Handler+0x2c>)
   80b94:	4798      	blx	r3
	//stop = tc_read_cv(TC1, 1);
	//res = (float)(stop-start)/42000000;
	//printf("Time 2: %s ms\n", get_decimal_string(res*1000));
	pio_enable_interrupt(PIOB, PIO_PB26);
	*/
}
   80b96:	b003      	add	sp, #12
   80b98:	f85d fb04 	ldr.w	pc, [sp], #4
   80b9c:	40080000 	.word	0x40080000
   80ba0:	00080ff1 	.word	0x00080ff1
   80ba4:	400e1000 	.word	0x400e1000
   80ba8:	000813bf 	.word	0x000813bf

00080bac <TC1_init>:
	pio_disable_interrupt(PIOA, PIO_PA14);
	NVIC_EnableIRQ(PIOA_IRQn);
}

void TC1_init(void)
{
   80bac:	b510      	push	{r4, lr}
	/* Configure power management of timer clocks (ID_TC4 = channel 1 of TC1) */
	pmc_enable_periph_clk(ID_TC4);
   80bae:	201f      	movs	r0, #31
   80bb0:	4b06      	ldr	r3, [pc, #24]	; (80bcc <TC1_init+0x20>)
   80bb2:	4798      	blx	r3
	tc_init(TC1, 1, 0 | TC_CMR_CPCTRG);
   80bb4:	4c06      	ldr	r4, [pc, #24]	; (80bd0 <TC1_init+0x24>)
   80bb6:	f44f 4280 	mov.w	r2, #16384	; 0x4000
   80bba:	2101      	movs	r1, #1
   80bbc:	4620      	mov	r0, r4
   80bbe:	4b05      	ldr	r3, [pc, #20]	; (80bd4 <TC1_init+0x28>)
   80bc0:	4798      	blx	r3
	tc_start(TC1, 1);
   80bc2:	2101      	movs	r1, #1
   80bc4:	4620      	mov	r0, r4
   80bc6:	4b04      	ldr	r3, [pc, #16]	; (80bd8 <TC1_init+0x2c>)
   80bc8:	4798      	blx	r3
   80bca:	bd10      	pop	{r4, pc}
   80bcc:	00081735 	.word	0x00081735
   80bd0:	40084000 	.word	0x40084000
   80bd4:	00080fb1 	.word	0x00080fb1
   80bd8:	00080fc9 	.word	0x00080fc9
   80bdc:	00000000 	.word	0x00000000

00080be0 <pin_edge_handler>:


void pin_edge_handler(const uint32_t id, const uint32_t index)
{
	//static double previous_z = 1;
	if ((id == ID_PIOB) && (index == PIO_PB26)){
   80be0:	280c      	cmp	r0, #12
   80be2:	d000      	beq.n	80be6 <pin_edge_handler+0x6>
   80be4:	4770      	bx	lr
   80be6:	f1b1 6f80 	cmp.w	r1, #67108864	; 0x4000000
   80bea:	d1fb      	bne.n	80be4 <pin_edge_handler+0x4>
{
   80bec:	e92d 47f0 	stmdb	sp!, {r4, r5, r6, r7, r8, r9, sl, lr}
   80bf0:	b08e      	sub	sp, #56	; 0x38
		if (pio_get(PIOB, PIO_TYPE_PIO_INPUT, PIO_PB26)){
   80bf2:	f04f 6280 	mov.w	r2, #67108864	; 0x4000000
   80bf6:	f04f 5120 	mov.w	r1, #671088640	; 0x28000000
   80bfa:	4877      	ldr	r0, [pc, #476]	; (80dd8 <pin_edge_handler+0x1f8>)
   80bfc:	4b77      	ldr	r3, [pc, #476]	; (80ddc <pin_edge_handler+0x1fc>)
   80bfe:	4798      	blx	r3
   80c00:	b910      	cbnz	r0, 80c08 <pin_edge_handler+0x28>
		else{
			//puts("------------No edge detected------------");
		}
	}
	
}
   80c02:	b00e      	add	sp, #56	; 0x38
   80c04:	e8bd 87f0 	ldmia.w	sp!, {r4, r5, r6, r7, r8, r9, sl, pc}
			signal_arrival_time = tc_read_cv(TC1, 1);
   80c08:	2101      	movs	r1, #1
   80c0a:	4875      	ldr	r0, [pc, #468]	; (80de0 <pin_edge_handler+0x200>)
   80c0c:	4b75      	ldr	r3, [pc, #468]	; (80de4 <pin_edge_handler+0x204>)
   80c0e:	4798      	blx	r3
   80c10:	4b75      	ldr	r3, [pc, #468]	; (80de8 <pin_edge_handler+0x208>)
   80c12:	6018      	str	r0, [r3, #0]
			switch (counter)
   80c14:	4b75      	ldr	r3, [pc, #468]	; (80dec <pin_edge_handler+0x20c>)
   80c16:	681b      	ldr	r3, [r3, #0]
   80c18:	2b03      	cmp	r3, #3
   80c1a:	d8f2      	bhi.n	80c02 <pin_edge_handler+0x22>
   80c1c:	e8df f003 	tbb	[pc, r3]
   80c20:	583b1e02 	.word	0x583b1e02
		bool level)
{
	Pio *base = arch_ioport_pin_to_base(pin);

	if (level) {
		base->PIO_SODR = arch_ioport_pin_to_mask(pin);
   80c24:	2301      	movs	r3, #1
   80c26:	4a72      	ldr	r2, [pc, #456]	; (80df0 <pin_edge_handler+0x210>)
   80c28:	6313      	str	r3, [r2, #48]	; 0x30
				arrayOfTDMAvalues[counter++] = signal_arrival_time;
   80c2a:	4a70      	ldr	r2, [pc, #448]	; (80dec <pin_edge_handler+0x20c>)
   80c2c:	6013      	str	r3, [r2, #0]
   80c2e:	4b71      	ldr	r3, [pc, #452]	; (80df4 <pin_edge_handler+0x214>)
   80c30:	6018      	str	r0, [r3, #0]
				pio_disable_interrupt(PIOB, PIO_PB26);
   80c32:	f04f 6180 	mov.w	r1, #67108864	; 0x4000000
   80c36:	4868      	ldr	r0, [pc, #416]	; (80dd8 <pin_edge_handler+0x1f8>)
   80c38:	4b6f      	ldr	r3, [pc, #444]	; (80df8 <pin_edge_handler+0x218>)
   80c3a:	4798      	blx	r3
				tc_write_rc(TC0, 0, 1050000); //25 ms
   80c3c:	4c6f      	ldr	r4, [pc, #444]	; (80dfc <pin_edge_handler+0x21c>)
   80c3e:	4a70      	ldr	r2, [pc, #448]	; (80e00 <pin_edge_handler+0x220>)
   80c40:	2100      	movs	r1, #0
   80c42:	4620      	mov	r0, r4
   80c44:	4b6f      	ldr	r3, [pc, #444]	; (80e04 <pin_edge_handler+0x224>)
   80c46:	4798      	blx	r3
				tc_enable_interrupt(TC0, 0, TC_IER_CPCS);
   80c48:	2210      	movs	r2, #16
   80c4a:	2100      	movs	r1, #0
   80c4c:	4620      	mov	r0, r4
   80c4e:	4b6e      	ldr	r3, [pc, #440]	; (80e08 <pin_edge_handler+0x228>)
   80c50:	4798      	blx	r3
				tc_start(TC0, 0);
   80c52:	2100      	movs	r1, #0
   80c54:	4620      	mov	r0, r4
   80c56:	4b6d      	ldr	r3, [pc, #436]	; (80e0c <pin_edge_handler+0x22c>)
   80c58:	4798      	blx	r3
				break;
   80c5a:	e7d2      	b.n	80c02 <pin_edge_handler+0x22>
	} else {
		base->PIO_CODR = arch_ioport_pin_to_mask(pin);
   80c5c:	2201      	movs	r2, #1
   80c5e:	4b64      	ldr	r3, [pc, #400]	; (80df0 <pin_edge_handler+0x210>)
   80c60:	635a      	str	r2, [r3, #52]	; 0x34
				arrayOfTDMAvalues[counter++] = signal_arrival_time;
   80c62:	2202      	movs	r2, #2
   80c64:	4b61      	ldr	r3, [pc, #388]	; (80dec <pin_edge_handler+0x20c>)
   80c66:	601a      	str	r2, [r3, #0]
   80c68:	4b62      	ldr	r3, [pc, #392]	; (80df4 <pin_edge_handler+0x214>)
   80c6a:	6058      	str	r0, [r3, #4]
				pio_disable_interrupt(PIOB, PIO_PB26);
   80c6c:	f04f 6180 	mov.w	r1, #67108864	; 0x4000000
   80c70:	4859      	ldr	r0, [pc, #356]	; (80dd8 <pin_edge_handler+0x1f8>)
   80c72:	4b61      	ldr	r3, [pc, #388]	; (80df8 <pin_edge_handler+0x218>)
   80c74:	4798      	blx	r3
				tc_write_rc(TC0, 0, 1050000);
   80c76:	4c61      	ldr	r4, [pc, #388]	; (80dfc <pin_edge_handler+0x21c>)
   80c78:	4a61      	ldr	r2, [pc, #388]	; (80e00 <pin_edge_handler+0x220>)
   80c7a:	2100      	movs	r1, #0
   80c7c:	4620      	mov	r0, r4
   80c7e:	4b61      	ldr	r3, [pc, #388]	; (80e04 <pin_edge_handler+0x224>)
   80c80:	4798      	blx	r3
				tc_enable_interrupt(TC0, 0, TC_IER_CPCS);
   80c82:	2210      	movs	r2, #16
   80c84:	2100      	movs	r1, #0
   80c86:	4620      	mov	r0, r4
   80c88:	4b5f      	ldr	r3, [pc, #380]	; (80e08 <pin_edge_handler+0x228>)
   80c8a:	4798      	blx	r3
				tc_start(TC0, 0);
   80c8c:	2100      	movs	r1, #0
   80c8e:	4620      	mov	r0, r4
   80c90:	4b5e      	ldr	r3, [pc, #376]	; (80e0c <pin_edge_handler+0x22c>)
   80c92:	4798      	blx	r3
				break;
   80c94:	e7b5      	b.n	80c02 <pin_edge_handler+0x22>
		base->PIO_SODR = arch_ioport_pin_to_mask(pin);
   80c96:	2201      	movs	r2, #1
   80c98:	4b55      	ldr	r3, [pc, #340]	; (80df0 <pin_edge_handler+0x210>)
   80c9a:	631a      	str	r2, [r3, #48]	; 0x30
				arrayOfTDMAvalues[counter++] = signal_arrival_time;
   80c9c:	2203      	movs	r2, #3
   80c9e:	4b53      	ldr	r3, [pc, #332]	; (80dec <pin_edge_handler+0x20c>)
   80ca0:	601a      	str	r2, [r3, #0]
   80ca2:	4b54      	ldr	r3, [pc, #336]	; (80df4 <pin_edge_handler+0x214>)
   80ca4:	6098      	str	r0, [r3, #8]
				pio_disable_interrupt(PIOB, PIO_PB26);
   80ca6:	f04f 6180 	mov.w	r1, #67108864	; 0x4000000
   80caa:	484b      	ldr	r0, [pc, #300]	; (80dd8 <pin_edge_handler+0x1f8>)
   80cac:	4b52      	ldr	r3, [pc, #328]	; (80df8 <pin_edge_handler+0x218>)
   80cae:	4798      	blx	r3
				tc_write_rc(TC0, 0, 1050000);
   80cb0:	4c52      	ldr	r4, [pc, #328]	; (80dfc <pin_edge_handler+0x21c>)
   80cb2:	4a53      	ldr	r2, [pc, #332]	; (80e00 <pin_edge_handler+0x220>)
   80cb4:	2100      	movs	r1, #0
   80cb6:	4620      	mov	r0, r4
   80cb8:	4b52      	ldr	r3, [pc, #328]	; (80e04 <pin_edge_handler+0x224>)
   80cba:	4798      	blx	r3
				tc_enable_interrupt(TC0, 0, TC_IER_CPCS);
   80cbc:	2210      	movs	r2, #16
   80cbe:	2100      	movs	r1, #0
   80cc0:	4620      	mov	r0, r4
   80cc2:	4b51      	ldr	r3, [pc, #324]	; (80e08 <pin_edge_handler+0x228>)
   80cc4:	4798      	blx	r3
				tc_start(TC0, 0);
   80cc6:	2100      	movs	r1, #0
   80cc8:	4620      	mov	r0, r4
   80cca:	4b50      	ldr	r3, [pc, #320]	; (80e0c <pin_edge_handler+0x22c>)
   80ccc:	4798      	blx	r3
				break;
   80cce:	e798      	b.n	80c02 <pin_edge_handler+0x22>
		base->PIO_CODR = arch_ioport_pin_to_mask(pin);
   80cd0:	f04f 0a01 	mov.w	sl, #1
   80cd4:	4b46      	ldr	r3, [pc, #280]	; (80df0 <pin_edge_handler+0x210>)
   80cd6:	f8c3 a034 	str.w	sl, [r3, #52]	; 0x34
				arrayOfTDMAvalues[counter] = signal_arrival_time;
   80cda:	4d46      	ldr	r5, [pc, #280]	; (80df4 <pin_edge_handler+0x214>)
   80cdc:	60e8      	str	r0, [r5, #12]
				pio_disable_interrupt(PIOB, PIO_PB26);
   80cde:	f04f 6180 	mov.w	r1, #67108864	; 0x4000000
   80ce2:	483d      	ldr	r0, [pc, #244]	; (80dd8 <pin_edge_handler+0x1f8>)
   80ce4:	4b44      	ldr	r3, [pc, #272]	; (80df8 <pin_edge_handler+0x218>)
   80ce6:	4798      	blx	r3
				float arrayOfTDOAvalues[4] = {(float)(arrayOfTDMAvalues[0])/42000000, (float) (arrayOfTDMAvalues[1])/42000000-0.03, 
   80ce8:	4f49      	ldr	r7, [pc, #292]	; (80e10 <pin_edge_handler+0x230>)
   80cea:	6868      	ldr	r0, [r5, #4]
   80cec:	47b8      	blx	r7
   80cee:	4e49      	ldr	r6, [pc, #292]	; (80e14 <pin_edge_handler+0x234>)
   80cf0:	4949      	ldr	r1, [pc, #292]	; (80e18 <pin_edge_handler+0x238>)
   80cf2:	47b0      	blx	r6
   80cf4:	4c49      	ldr	r4, [pc, #292]	; (80e1c <pin_edge_handler+0x23c>)
   80cf6:	47a0      	blx	r4
   80cf8:	f8df 913c 	ldr.w	r9, [pc, #316]	; 80e38 <pin_edge_handler+0x258>
   80cfc:	a330      	add	r3, pc, #192	; (adr r3, 80dc0 <pin_edge_handler+0x1e0>)
   80cfe:	e9d3 2300 	ldrd	r2, r3, [r3]
   80d02:	47c8      	blx	r9
   80d04:	f8df 8134 	ldr.w	r8, [pc, #308]	; 80e3c <pin_edge_handler+0x25c>
   80d08:	47c0      	blx	r8
				set_tdoa(arrayOfTDOAvalues[0], arrayOfTDOAvalues[1], arrayOfTDOAvalues[2], arrayOfTDOAvalues[3]);
   80d0a:	47a0      	blx	r4
   80d0c:	e9cd 0104 	strd	r0, r1, [sp, #16]
				float arrayOfTDOAvalues[4] = {(float)(arrayOfTDMAvalues[0])/42000000, (float) (arrayOfTDMAvalues[1])/42000000-0.03, 
   80d10:	6828      	ldr	r0, [r5, #0]
   80d12:	47b8      	blx	r7
   80d14:	4940      	ldr	r1, [pc, #256]	; (80e18 <pin_edge_handler+0x238>)
   80d16:	47b0      	blx	r6
				set_tdoa(arrayOfTDOAvalues[0], arrayOfTDOAvalues[1], arrayOfTDOAvalues[2], arrayOfTDOAvalues[3]);
   80d18:	47a0      	blx	r4
   80d1a:	e9cd 0106 	strd	r0, r1, [sp, #24]
				(float) (arrayOfTDMAvalues[2])/42000000-2*0.03, (float) (arrayOfTDMAvalues[3])/42000000-3*0.03};
   80d1e:	68e8      	ldr	r0, [r5, #12]
   80d20:	47b8      	blx	r7
   80d22:	493d      	ldr	r1, [pc, #244]	; (80e18 <pin_edge_handler+0x238>)
   80d24:	47b0      	blx	r6
   80d26:	47a0      	blx	r4
   80d28:	a327      	add	r3, pc, #156	; (adr r3, 80dc8 <pin_edge_handler+0x1e8>)
   80d2a:	e9d3 2300 	ldrd	r2, r3, [r3]
   80d2e:	47c8      	blx	r9
   80d30:	47c0      	blx	r8
				set_tdoa(arrayOfTDOAvalues[0], arrayOfTDOAvalues[1], arrayOfTDOAvalues[2], arrayOfTDOAvalues[3]);
   80d32:	47a0      	blx	r4
   80d34:	e9cd 0102 	strd	r0, r1, [sp, #8]
				(float) (arrayOfTDMAvalues[2])/42000000-2*0.03, (float) (arrayOfTDMAvalues[3])/42000000-3*0.03};
   80d38:	68a8      	ldr	r0, [r5, #8]
   80d3a:	47b8      	blx	r7
   80d3c:	4936      	ldr	r1, [pc, #216]	; (80e18 <pin_edge_handler+0x238>)
   80d3e:	47b0      	blx	r6
   80d40:	47a0      	blx	r4
   80d42:	a323      	add	r3, pc, #140	; (adr r3, 80dd0 <pin_edge_handler+0x1f0>)
   80d44:	e9d3 2300 	ldrd	r2, r3, [r3]
   80d48:	47c8      	blx	r9
   80d4a:	47c0      	blx	r8
				set_tdoa(arrayOfTDOAvalues[0], arrayOfTDOAvalues[1], arrayOfTDOAvalues[2], arrayOfTDOAvalues[3]);
   80d4c:	47a0      	blx	r4
   80d4e:	e9cd 0100 	strd	r0, r1, [sp]
   80d52:	e9dd 2304 	ldrd	r2, r3, [sp, #16]
   80d56:	e9dd 0106 	ldrd	r0, r1, [sp, #24]
   80d5a:	4c31      	ldr	r4, [pc, #196]	; (80e20 <pin_edge_handler+0x240>)
   80d5c:	47a0      	blx	r4
				double x, y, z = 0;
   80d5e:	aa0e      	add	r2, sp, #56	; 0x38
   80d60:	2000      	movs	r0, #0
   80d62:	2100      	movs	r1, #0
   80d64:	e962 0102 	strd	r0, r1, [r2, #-8]!
				calculate_position(&x, &y, &z);
   80d68:	a90a      	add	r1, sp, #40	; 0x28
   80d6a:	a808      	add	r0, sp, #32
   80d6c:	4b2d      	ldr	r3, [pc, #180]	; (80e24 <pin_edge_handler+0x244>)
   80d6e:	4798      	blx	r3
				printf("x, y, z: %s, %s, %s\n", get_decimal_string(x), get_decimal_string(y), get_decimal_string(z));	
   80d70:	e9dd 0108 	ldrd	r0, r1, [sp, #32]
   80d74:	4c2c      	ldr	r4, [pc, #176]	; (80e28 <pin_edge_handler+0x248>)
   80d76:	47a0      	blx	r4
   80d78:	4605      	mov	r5, r0
   80d7a:	e9dd 010a 	ldrd	r0, r1, [sp, #40]	; 0x28
   80d7e:	47a0      	blx	r4
   80d80:	4606      	mov	r6, r0
   80d82:	e9dd 010c 	ldrd	r0, r1, [sp, #48]	; 0x30
   80d86:	47a0      	blx	r4
   80d88:	4603      	mov	r3, r0
   80d8a:	4632      	mov	r2, r6
   80d8c:	4629      	mov	r1, r5
   80d8e:	4827      	ldr	r0, [pc, #156]	; (80e2c <pin_edge_handler+0x24c>)
   80d90:	4c27      	ldr	r4, [pc, #156]	; (80e30 <pin_edge_handler+0x250>)
   80d92:	47a0      	blx	r4
				tc_write_rc(TC0, 0, 2100000); //50ms
   80d94:	4c19      	ldr	r4, [pc, #100]	; (80dfc <pin_edge_handler+0x21c>)
   80d96:	4a27      	ldr	r2, [pc, #156]	; (80e34 <pin_edge_handler+0x254>)
   80d98:	2100      	movs	r1, #0
   80d9a:	4620      	mov	r0, r4
   80d9c:	4b19      	ldr	r3, [pc, #100]	; (80e04 <pin_edge_handler+0x224>)
   80d9e:	4798      	blx	r3
				tc_enable_interrupt(TC0, 0, TC_IER_CPCS);
   80da0:	2210      	movs	r2, #16
   80da2:	2100      	movs	r1, #0
   80da4:	4620      	mov	r0, r4
   80da6:	4b18      	ldr	r3, [pc, #96]	; (80e08 <pin_edge_handler+0x228>)
   80da8:	4798      	blx	r3
				tc_start(TC0, 0);
   80daa:	2100      	movs	r1, #0
   80dac:	4620      	mov	r0, r4
   80dae:	4c17      	ldr	r4, [pc, #92]	; (80e0c <pin_edge_handler+0x22c>)
   80db0:	47a0      	blx	r4
				tc_start(TC1, 1); //retrigger TC1
   80db2:	4651      	mov	r1, sl
   80db4:	480a      	ldr	r0, [pc, #40]	; (80de0 <pin_edge_handler+0x200>)
   80db6:	47a0      	blx	r4
				counter = 0;
   80db8:	2200      	movs	r2, #0
   80dba:	4b0c      	ldr	r3, [pc, #48]	; (80dec <pin_edge_handler+0x20c>)
   80dbc:	601a      	str	r2, [r3, #0]
}
   80dbe:	e720      	b.n	80c02 <pin_edge_handler+0x22>
   80dc0:	eb851eb8 	.word	0xeb851eb8
   80dc4:	3f9eb851 	.word	0x3f9eb851
   80dc8:	70a3d70a 	.word	0x70a3d70a
   80dcc:	3fb70a3d 	.word	0x3fb70a3d
   80dd0:	eb851eb8 	.word	0xeb851eb8
   80dd4:	3faeb851 	.word	0x3faeb851
   80dd8:	400e1000 	.word	0x400e1000
   80ddc:	000812e3 	.word	0x000812e3
   80de0:	40084000 	.word	0x40084000
   80de4:	00080fd9 	.word	0x00080fd9
   80de8:	20070dc0 	.word	0x20070dc0
   80dec:	20070be8 	.word	0x20070be8
   80df0:	400e1400 	.word	0x400e1400
   80df4:	20070dc4 	.word	0x20070dc4
   80df8:	000813c3 	.word	0x000813c3
   80dfc:	40080000 	.word	0x40080000
   80e00:	00100590 	.word	0x00100590
   80e04:	00080fe1 	.word	0x00080fe1
   80e08:	00080fe9 	.word	0x00080fe9
   80e0c:	00080fc9 	.word	0x00080fc9
   80e10:	00082915 	.word	0x00082915
   80e14:	00082b2d 	.word	0x00082b2d
   80e18:	4c2037a0 	.word	0x4c2037a0
   80e1c:	00082101 	.word	0x00082101
   80e20:	00080451 	.word	0x00080451
   80e24:	00080515 	.word	0x00080515
   80e28:	00080161 	.word	0x00080161
   80e2c:	00088774 	.word	0x00088774
   80e30:	00082cc1 	.word	0x00082cc1
   80e34:	00200b20 	.word	0x00200b20
   80e38:	00081e41 	.word	0x00081e41
   80e3c:	00082709 	.word	0x00082709

00080e40 <init_amplitude_trigger>:


void init_amplitude_trigger(void){
   80e40:	b530      	push	{r4, r5, lr}
   80e42:	b083      	sub	sp, #12
	pmc_enable_periph_clk(ID_PIOB);
   80e44:	200c      	movs	r0, #12
   80e46:	4b11      	ldr	r3, [pc, #68]	; (80e8c <init_amplitude_trigger+0x4c>)
   80e48:	4798      	blx	r3
	pio_set_input(PIOB, PIO_PB26, PIO_PULLUP);
   80e4a:	4c11      	ldr	r4, [pc, #68]	; (80e90 <init_amplitude_trigger+0x50>)
   80e4c:	2201      	movs	r2, #1
   80e4e:	f04f 6180 	mov.w	r1, #67108864	; 0x4000000
   80e52:	4620      	mov	r0, r4
   80e54:	4b0f      	ldr	r3, [pc, #60]	; (80e94 <init_amplitude_trigger+0x54>)
   80e56:	4798      	blx	r3
	pio_pull_up(PIOB, PIO_PB26, 0); //enable pull-down, when no input then input state is low
   80e58:	2200      	movs	r2, #0
   80e5a:	f04f 6180 	mov.w	r1, #67108864	; 0x4000000
   80e5e:	4620      	mov	r0, r4
   80e60:	4b0d      	ldr	r3, [pc, #52]	; (80e98 <init_amplitude_trigger+0x58>)
   80e62:	4798      	blx	r3
	pio_handler_set(PIOB, ID_PIOB, PIO_PB26, PIO_IT_EDGE, pin_edge_handler);
   80e64:	4b0d      	ldr	r3, [pc, #52]	; (80e9c <init_amplitude_trigger+0x5c>)
   80e66:	9300      	str	r3, [sp, #0]
   80e68:	2340      	movs	r3, #64	; 0x40
   80e6a:	f04f 6280 	mov.w	r2, #67108864	; 0x4000000
   80e6e:	210c      	movs	r1, #12
   80e70:	4620      	mov	r0, r4
   80e72:	4d0b      	ldr	r5, [pc, #44]	; (80ea0 <init_amplitude_trigger+0x60>)
   80e74:	47a8      	blx	r5
	pio_enable_interrupt(PIOB, PIO_PB26);
   80e76:	f04f 6180 	mov.w	r1, #67108864	; 0x4000000
   80e7a:	4620      	mov	r0, r4
   80e7c:	4b09      	ldr	r3, [pc, #36]	; (80ea4 <init_amplitude_trigger+0x64>)
   80e7e:	4798      	blx	r3

    \param [in]      IRQn  External interrupt number. Value cannot be negative.
 */
__STATIC_INLINE void NVIC_EnableIRQ(IRQn_Type IRQn)
{
  NVIC->ISER[((uint32_t)(IRQn) >> 5)] = (1 << ((uint32_t)(IRQn) & 0x1F)); /* enable interrupt */
   80e80:	f44f 5280 	mov.w	r2, #4096	; 0x1000
   80e84:	4b08      	ldr	r3, [pc, #32]	; (80ea8 <init_amplitude_trigger+0x68>)
   80e86:	601a      	str	r2, [r3, #0]
	NVIC_EnableIRQ(PIOB_IRQn);
}
   80e88:	b003      	add	sp, #12
   80e8a:	bd30      	pop	{r4, r5, pc}
   80e8c:	00081735 	.word	0x00081735
   80e90:	400e1000 	.word	0x400e1000
   80e94:	00081339 	.word	0x00081339
   80e98:	000812d9 	.word	0x000812d9
   80e9c:	00080be1 	.word	0x00080be1
   80ea0:	0008158d 	.word	0x0008158d
   80ea4:	000813bf 	.word	0x000813bf
   80ea8:	e000e100 	.word	0xe000e100

00080eac <ADC_Handler>:
		ip = &buffer[i];    /* sets ip to point to element i of buffer (contains address of buffer[i]) */
		*ip = temp_buff[i]; /* *ip points to content of buffer[i], this will change content of buffer[i] */
	}
}

void ADC_Handler(void){
   80eac:	b538      	push	{r3, r4, r5, lr}
	/* Data transfer has been stopped (is complete) and RXBUFF status flag is set because ADC_RCR
	* and the ADC_RNCR have reached zero. Buffer of sample values is full.
	*/
	if ((adc_get_status(ADC) & ADC_ISR_RXBUFF) == ADC_ISR_RXBUFF) {
   80eae:	4825      	ldr	r0, [pc, #148]	; (80f44 <ADC_Handler+0x98>)
   80eb0:	4b25      	ldr	r3, [pc, #148]	; (80f48 <ADC_Handler+0x9c>)
   80eb2:	4798      	blx	r3
   80eb4:	f010 5f80 	tst.w	r0, #268435456	; 0x10000000
   80eb8:	d100      	bne.n	80ebc <ADC_Handler+0x10>
   80eba:	bd38      	pop	{r3, r4, r5, pc}
		tc_stop(TC0, 0);  
   80ebc:	2100      	movs	r1, #0
   80ebe:	4823      	ldr	r0, [pc, #140]	; (80f4c <ADC_Handler+0xa0>)
   80ec0:	4b23      	ldr	r3, [pc, #140]	; (80f50 <ADC_Handler+0xa4>)
   80ec2:	4798      	blx	r3
   80ec4:	4c23      	ldr	r4, [pc, #140]	; (80f54 <ADC_Handler+0xa8>)
		int max = 0;
		int index = 0;
		for (int i = 0; i < ADC_BUFFER_SIZE; i++)
   80ec6:	2300      	movs	r3, #0
		int index = 0;
   80ec8:	461a      	mov	r2, r3
		int max = 0;
   80eca:	4619      	mov	r1, r3
		for (int i = 0; i < ADC_BUFFER_SIZE; i++)
   80ecc:	f640 45bc 	movw	r5, #3260	; 0xcbc
		{
			if(adc_buffer_sample_values[i] > max){
   80ed0:	f934 0f02 	ldrsh.w	r0, [r4, #2]!
   80ed4:	4288      	cmp	r0, r1
   80ed6:	bfc4      	itt	gt
   80ed8:	461a      	movgt	r2, r3
				max = adc_buffer_sample_values[i];
   80eda:	4601      	movgt	r1, r0
		for (int i = 0; i < ADC_BUFFER_SIZE; i++)
   80edc:	3301      	adds	r3, #1
   80ede:	42ab      	cmp	r3, r5
   80ee0:	d1f6      	bne.n	80ed0 <ADC_Handler+0x24>
				index = i;
			}
			//printf("Buffer values: %u, index: %u\n", adc_buffer_sample_values[i], i);
		}
		printf("Max buffer value: %u, index: %u\n", max, index);
   80ee2:	481d      	ldr	r0, [pc, #116]	; (80f58 <ADC_Handler+0xac>)
   80ee4:	4b1d      	ldr	r3, [pc, #116]	; (80f5c <ADC_Handler+0xb0>)
   80ee6:	4798      	blx	r3
		//double frequency = calc_frequency(adc_buffer_sample_values, ADC_BUFFER_SIZE, sampel_frequency);
		//smooth_values(adc_buffer_sample_values);
		//printf("Frequency: %s Hz\n", get_decimal_string(frequency));
	    pio_enable_interrupt(PIOB, PIO_PB26); //re-enable edge-level detection 
   80ee8:	f04f 6180 	mov.w	r1, #67108864	; 0x4000000
   80eec:	481c      	ldr	r0, [pc, #112]	; (80f60 <ADC_Handler+0xb4>)
   80eee:	4b1d      	ldr	r3, [pc, #116]	; (80f64 <ADC_Handler+0xb8>)
   80ef0:	4798      	blx	r3
		/* Clear sample buffer */
		memset((void *)&adc_buffer_sample_values, 0, sizeof(adc_buffer_sample_values));
   80ef2:	f641 1278 	movw	r2, #6520	; 0x1978
   80ef6:	2100      	movs	r1, #0
   80ef8:	481b      	ldr	r0, [pc, #108]	; (80f68 <ADC_Handler+0xbc>)
   80efa:	4b1c      	ldr	r3, [pc, #112]	; (80f6c <ADC_Handler+0xc0>)
   80efc:	4798      	blx	r3
	if ((p_adc->ADC_RCR == 0) && (p_adc->ADC_RNCR == 0)) {
   80efe:	4b11      	ldr	r3, [pc, #68]	; (80f44 <ADC_Handler+0x98>)
   80f00:	f8d3 3104 	ldr.w	r3, [r3, #260]	; 0x104
   80f04:	b91b      	cbnz	r3, 80f0e <ADC_Handler+0x62>
   80f06:	4b0f      	ldr	r3, [pc, #60]	; (80f44 <ADC_Handler+0x98>)
   80f08:	f8d3 3114 	ldr.w	r3, [r3, #276]	; 0x114
   80f0c:	b16b      	cbz	r3, 80f2a <ADC_Handler+0x7e>
		if (p_adc->ADC_RNCR == 0)
   80f0e:	4b0d      	ldr	r3, [pc, #52]	; (80f44 <ADC_Handler+0x98>)
   80f10:	f8d3 3114 	ldr.w	r3, [r3, #276]	; 0x114
   80f14:	2b00      	cmp	r3, #0
   80f16:	d1d0      	bne.n	80eba <ADC_Handler+0xe>
			p_adc->ADC_RNPR = (uint32_t) p_s_buffer; /* Receive Next Pointer Register */
   80f18:	4b0a      	ldr	r3, [pc, #40]	; (80f44 <ADC_Handler+0x98>)
   80f1a:	4a13      	ldr	r2, [pc, #76]	; (80f68 <ADC_Handler+0xbc>)
   80f1c:	f8c3 2110 	str.w	r2, [r3, #272]	; 0x110
			p_adc->ADC_RNCR = ul_size;               /* Receive Next Counter Register */
   80f20:	f640 42bc 	movw	r2, #3260	; 0xcbc
   80f24:	f8c3 2114 	str.w	r2, [r3, #276]	; 0x114
		/* Read new buffer data. Necessary, otherwise buffer values are null/zero */
		adc_read_buffer(ADC, adc_buffer_sample_values, ADC_BUFFER_SIZE);
	}
}
   80f28:	e7c7      	b.n	80eba <ADC_Handler+0xe>
		p_adc->ADC_RPR = (uint32_t) p_s_buffer; /* Receive Pointer Register */
   80f2a:	4b06      	ldr	r3, [pc, #24]	; (80f44 <ADC_Handler+0x98>)
   80f2c:	4a0e      	ldr	r2, [pc, #56]	; (80f68 <ADC_Handler+0xbc>)
   80f2e:	f8c3 2100 	str.w	r2, [r3, #256]	; 0x100
		p_adc->ADC_RCR = ul_size;               /* Receive Counter Register */
   80f32:	f640 42bc 	movw	r2, #3260	; 0xcbc
   80f36:	f8c3 2104 	str.w	r2, [r3, #260]	; 0x104
		p_adc->ADC_PTCR = ADC_PTCR_RXTEN; /*ADC_PTCR = Transfer Control Register, RXTEN: Receiver Transfer Enable */
   80f3a:	2201      	movs	r2, #1
   80f3c:	f8c3 2120 	str.w	r2, [r3, #288]	; 0x120
   80f40:	bd38      	pop	{r3, r4, r5, pc}
   80f42:	bf00      	nop
   80f44:	400c0000 	.word	0x400c0000
   80f48:	00080fad 	.word	0x00080fad
   80f4c:	40080000 	.word	0x40080000
   80f50:	00080fd1 	.word	0x00080fd1
   80f54:	20070dd6 	.word	0x20070dd6
   80f58:	0008878c 	.word	0x0008878c
   80f5c:	00082cc1 	.word	0x00082cc1
   80f60:	400e1000 	.word	0x400e1000
   80f64:	000813bf 	.word	0x000813bf
   80f68:	20070dd8 	.word	0x20070dd8
   80f6c:	0008323d 	.word	0x0008323d

00080f70 <_read>:
   80f70:	e92d 41f0 	stmdb	sp!, {r4, r5, r6, r7, r8, lr}
   80f74:	b980      	cbnz	r0, 80f98 <_read+0x28>
   80f76:	460c      	mov	r4, r1
   80f78:	4690      	mov	r8, r2
   80f7a:	2a00      	cmp	r2, #0
   80f7c:	dd0f      	ble.n	80f9e <_read+0x2e>
   80f7e:	188f      	adds	r7, r1, r2
   80f80:	4e08      	ldr	r6, [pc, #32]	; (80fa4 <_read+0x34>)
   80f82:	4d09      	ldr	r5, [pc, #36]	; (80fa8 <_read+0x38>)
   80f84:	6830      	ldr	r0, [r6, #0]
   80f86:	4621      	mov	r1, r4
   80f88:	682b      	ldr	r3, [r5, #0]
   80f8a:	4798      	blx	r3
   80f8c:	3401      	adds	r4, #1
   80f8e:	42bc      	cmp	r4, r7
   80f90:	d1f8      	bne.n	80f84 <_read+0x14>
   80f92:	4640      	mov	r0, r8
   80f94:	e8bd 81f0 	ldmia.w	sp!, {r4, r5, r6, r7, r8, pc}
   80f98:	f04f 38ff 	mov.w	r8, #4294967295
   80f9c:	e7f9      	b.n	80f92 <_read+0x22>
   80f9e:	4680      	mov	r8, r0
   80fa0:	e7f7      	b.n	80f92 <_read+0x22>
   80fa2:	bf00      	nop
   80fa4:	20072758 	.word	0x20072758
   80fa8:	20072750 	.word	0x20072750

00080fac <adc_get_status>:
   80fac:	6b00      	ldr	r0, [r0, #48]	; 0x30
   80fae:	4770      	bx	lr

00080fb0 <tc_init>:
   80fb0:	b410      	push	{r4}
   80fb2:	0189      	lsls	r1, r1, #6
   80fb4:	1843      	adds	r3, r0, r1
   80fb6:	2402      	movs	r4, #2
   80fb8:	5044      	str	r4, [r0, r1]
   80fba:	f04f 31ff 	mov.w	r1, #4294967295
   80fbe:	6299      	str	r1, [r3, #40]	; 0x28
   80fc0:	6a19      	ldr	r1, [r3, #32]
   80fc2:	605a      	str	r2, [r3, #4]
   80fc4:	bc10      	pop	{r4}
   80fc6:	4770      	bx	lr

00080fc8 <tc_start>:
   80fc8:	0189      	lsls	r1, r1, #6
   80fca:	2305      	movs	r3, #5
   80fcc:	5043      	str	r3, [r0, r1]
   80fce:	4770      	bx	lr

00080fd0 <tc_stop>:
   80fd0:	0189      	lsls	r1, r1, #6
   80fd2:	2302      	movs	r3, #2
   80fd4:	5043      	str	r3, [r0, r1]
   80fd6:	4770      	bx	lr

00080fd8 <tc_read_cv>:
   80fd8:	eb00 1181 	add.w	r1, r0, r1, lsl #6
   80fdc:	6908      	ldr	r0, [r1, #16]
   80fde:	4770      	bx	lr

00080fe0 <tc_write_rc>:
   80fe0:	eb00 1181 	add.w	r1, r0, r1, lsl #6
   80fe4:	61ca      	str	r2, [r1, #28]
   80fe6:	4770      	bx	lr

00080fe8 <tc_enable_interrupt>:
   80fe8:	eb00 1181 	add.w	r1, r0, r1, lsl #6
   80fec:	624a      	str	r2, [r1, #36]	; 0x24
   80fee:	4770      	bx	lr

00080ff0 <tc_get_status>:
   80ff0:	eb00 1181 	add.w	r1, r0, r1, lsl #6
   80ff4:	6a08      	ldr	r0, [r1, #32]
   80ff6:	4770      	bx	lr

00080ff8 <usart_write>:
   80ff8:	6943      	ldr	r3, [r0, #20]
   80ffa:	f013 0f02 	tst.w	r3, #2
   80ffe:	bf1d      	ittte	ne
   81000:	f3c1 0108 	ubfxne	r1, r1, #0, #9
   81004:	61c1      	strne	r1, [r0, #28]
   81006:	2000      	movne	r0, #0
   81008:	2001      	moveq	r0, #1
   8100a:	4770      	bx	lr

0008100c <usart_read>:
   8100c:	6943      	ldr	r3, [r0, #20]
   8100e:	f013 0f01 	tst.w	r3, #1
   81012:	d005      	beq.n	81020 <usart_read+0x14>
   81014:	6983      	ldr	r3, [r0, #24]
   81016:	f3c3 0308 	ubfx	r3, r3, #0, #9
   8101a:	600b      	str	r3, [r1, #0]
   8101c:	2000      	movs	r0, #0
   8101e:	4770      	bx	lr
   81020:	2001      	movs	r0, #1
   81022:	4770      	bx	lr

00081024 <USART0_Handler>:
#if SAMD || SAMR21 || SAML21 || SAMR30
void USART_HOST_ISR_VECT(uint8_t instance)
#else
USART_HOST_ISR_VECT()
#endif
{
   81024:	b500      	push	{lr}
   81026:	b083      	sub	sp, #12
#if SAMD || SAMR21 || SAML21 || SAMR30
	usart_serial_read_packet(&host_uart_module, &temp, 1);
#elif SAM4E || SAM4S
	usart_serial_read_packet((Usart *)USART_HOST, &temp, 1);
#else
    usart_serial_read_packet(USART_HOST, &temp, 1);
   81028:	2201      	movs	r2, #1
   8102a:	f10d 0107 	add.w	r1, sp, #7
   8102e:	4810      	ldr	r0, [pc, #64]	; (81070 <USART0_Handler+0x4c>)
   81030:	4b10      	ldr	r3, [pc, #64]	; (81074 <USART0_Handler+0x50>)
   81032:	4798      	blx	r3
  This function disables IRQ interrupts by setting the I-bit in the CPSR.
  Can only be executed in Privileged modes.
 */
__attribute__( ( always_inline ) ) __STATIC_INLINE void __disable_irq(void)
{
  __ASM volatile ("cpsid i" : : : "memory");
   81034:	b672      	cpsid	i
    This function ensures the apparent order of the explicit memory operations before
    and after the instruction, without ensuring their completion.
 */
__attribute__( ( always_inline ) ) __STATIC_INLINE void __DMB(void)
{
  __ASM volatile ("dmb");
   81036:	f3bf 8f5f 	dmb	sy
#endif

	/* Introducing critical section to avoid buffer corruption. */
	cpu_irq_disable();
   8103a:	2200      	movs	r2, #0
   8103c:	4b0e      	ldr	r3, [pc, #56]	; (81078 <USART0_Handler+0x54>)
   8103e:	701a      	strb	r2, [r3, #0]

	/* The number of data in the receive buffer is incremented and the
	 * buffer is updated. */

	serial_rx_buf[serial_rx_buf_tail] = temp;
   81040:	4b0e      	ldr	r3, [pc, #56]	; (8107c <USART0_Handler+0x58>)
   81042:	781b      	ldrb	r3, [r3, #0]
   81044:	f89d 1007 	ldrb.w	r1, [sp, #7]
   81048:	4a0d      	ldr	r2, [pc, #52]	; (81080 <USART0_Handler+0x5c>)
   8104a:	54d1      	strb	r1, [r2, r3]

	if ((SERIAL_RX_BUF_SIZE_HOST - 1) == serial_rx_buf_tail) {
   8104c:	2b9b      	cmp	r3, #155	; 0x9b
   8104e:	d00b      	beq.n	81068 <USART0_Handler+0x44>
		/* Reached the end of buffer, revert back to beginning of
		 * buffer. */
		serial_rx_buf_tail = 0x00;
	} else {
		serial_rx_buf_tail++;
   81050:	3301      	adds	r3, #1
   81052:	4a0a      	ldr	r2, [pc, #40]	; (8107c <USART0_Handler+0x58>)
   81054:	7013      	strb	r3, [r2, #0]
	}

	cpu_irq_enable();
   81056:	2201      	movs	r2, #1
   81058:	4b07      	ldr	r3, [pc, #28]	; (81078 <USART0_Handler+0x54>)
   8105a:	701a      	strb	r2, [r3, #0]
   8105c:	f3bf 8f5f 	dmb	sy
  __ASM volatile ("cpsie i" : : : "memory");
   81060:	b662      	cpsie	i
}
   81062:	b003      	add	sp, #12
   81064:	f85d fb04 	ldr.w	pc, [sp], #4
		serial_rx_buf_tail = 0x00;
   81068:	2200      	movs	r2, #0
   8106a:	4b04      	ldr	r3, [pc, #16]	; (8107c <USART0_Handler+0x58>)
   8106c:	701a      	strb	r2, [r3, #0]
   8106e:	e7f2      	b.n	81056 <USART0_Handler+0x32>
   81070:	40098000 	.word	0x40098000
   81074:	000810d5 	.word	0x000810d5
   81078:	2007012c 	.word	0x2007012c
   8107c:	20070c88 	.word	0x20070c88
   81080:	20070bec 	.word	0x20070bec

00081084 <_write>:
   81084:	3801      	subs	r0, #1
   81086:	2802      	cmp	r0, #2
   81088:	d815      	bhi.n	810b6 <_write+0x32>
   8108a:	e92d 41f0 	stmdb	sp!, {r4, r5, r6, r7, r8, lr}
   8108e:	460e      	mov	r6, r1
   81090:	4614      	mov	r4, r2
   81092:	b19a      	cbz	r2, 810bc <_write+0x38>
   81094:	460d      	mov	r5, r1
   81096:	f8df 8038 	ldr.w	r8, [pc, #56]	; 810d0 <_write+0x4c>
   8109a:	4f0c      	ldr	r7, [pc, #48]	; (810cc <_write+0x48>)
   8109c:	f8d8 0000 	ldr.w	r0, [r8]
   810a0:	f815 1b01 	ldrb.w	r1, [r5], #1
   810a4:	683b      	ldr	r3, [r7, #0]
   810a6:	4798      	blx	r3
   810a8:	2800      	cmp	r0, #0
   810aa:	db0a      	blt.n	810c2 <_write+0x3e>
   810ac:	1ba8      	subs	r0, r5, r6
   810ae:	3c01      	subs	r4, #1
   810b0:	d1f4      	bne.n	8109c <_write+0x18>
   810b2:	e8bd 81f0 	ldmia.w	sp!, {r4, r5, r6, r7, r8, pc}
   810b6:	f04f 30ff 	mov.w	r0, #4294967295
   810ba:	4770      	bx	lr
   810bc:	4610      	mov	r0, r2
   810be:	e8bd 81f0 	ldmia.w	sp!, {r4, r5, r6, r7, r8, pc}
   810c2:	f04f 30ff 	mov.w	r0, #4294967295
   810c6:	e8bd 81f0 	ldmia.w	sp!, {r4, r5, r6, r7, r8, pc}
   810ca:	bf00      	nop
   810cc:	20072754 	.word	0x20072754
   810d0:	20072758 	.word	0x20072758

000810d4 <usart_serial_read_packet>:
 *
 */
status_code_t usart_serial_read_packet(usart_if usart, uint8_t *data,
		size_t len)
{
	while (len) {
   810d4:	2a00      	cmp	r2, #0
   810d6:	d051      	beq.n	8117c <usart_serial_read_packet+0xa8>
{
   810d8:	e92d 4ff0 	stmdb	sp!, {r4, r5, r6, r7, r8, r9, sl, fp, lr}
   810dc:	b083      	sub	sp, #12
   810de:	4605      	mov	r5, r0
   810e0:	460c      	mov	r4, r1
   810e2:	4692      	mov	sl, r2
   810e4:	448a      	add	sl, r1

	/* Avoid Cppcheck Warning */
	UNUSED(val);

#ifdef UART
	if (UART == (Uart*)p_usart) {
   810e6:	4f26      	ldr	r7, [pc, #152]	; (81180 <usart_serial_read_packet+0xac>)
		while (uart_read((Uart*)p_usart, data));
   810e8:	f8df 90a8 	ldr.w	r9, [pc, #168]	; 81194 <usart_serial_read_packet+0xc0>
		while (usart_read(p_usart, &val));
		*data = (uint8_t)(val & 0xFF);
	}
# endif
# ifdef USART3
	if (USART3 == p_usart) {
   810ec:	4e25      	ldr	r6, [pc, #148]	; (81184 <usart_serial_read_packet+0xb0>)
   810ee:	e01d      	b.n	8112c <usart_serial_read_packet+0x58>
		while (uart_read((Uart*)p_usart, data));
   810f0:	4621      	mov	r1, r4
   810f2:	4638      	mov	r0, r7
   810f4:	47c8      	blx	r9
   810f6:	2800      	cmp	r0, #0
   810f8:	d1fa      	bne.n	810f0 <usart_serial_read_packet+0x1c>
   810fa:	e021      	b.n	81140 <usart_serial_read_packet+0x6c>
		while (usart_read(p_usart, &val));
   810fc:	469b      	mov	fp, r3
   810fe:	f8df 8098 	ldr.w	r8, [pc, #152]	; 81198 <usart_serial_read_packet+0xc4>
   81102:	a901      	add	r1, sp, #4
   81104:	4658      	mov	r0, fp
   81106:	47c0      	blx	r8
   81108:	2800      	cmp	r0, #0
   8110a:	d1fa      	bne.n	81102 <usart_serial_read_packet+0x2e>
		*data = (uint8_t)(val & 0xFF);
   8110c:	9b01      	ldr	r3, [sp, #4]
   8110e:	7023      	strb	r3, [r4, #0]
   81110:	e019      	b.n	81146 <usart_serial_read_packet+0x72>
		while (usart_read(p_usart, &val));
   81112:	469b      	mov	fp, r3
   81114:	f8df 8080 	ldr.w	r8, [pc, #128]	; 81198 <usart_serial_read_packet+0xc4>
   81118:	a901      	add	r1, sp, #4
   8111a:	4658      	mov	r0, fp
   8111c:	47c0      	blx	r8
   8111e:	2800      	cmp	r0, #0
   81120:	d1fa      	bne.n	81118 <usart_serial_read_packet+0x44>
		*data = (uint8_t)(val & 0xFF);
   81122:	9b01      	ldr	r3, [sp, #4]
   81124:	7023      	strb	r3, [r4, #0]
		usart_serial_getchar(usart, data);
		len--;
		data++;
   81126:	3401      	adds	r4, #1
	while (len) {
   81128:	4554      	cmp	r4, sl
   8112a:	d023      	beq.n	81174 <usart_serial_read_packet+0xa0>
	uint32_t val = 0;
   8112c:	2300      	movs	r3, #0
   8112e:	9301      	str	r3, [sp, #4]
	if (UART == (Uart*)p_usart) {
   81130:	42bd      	cmp	r5, r7
   81132:	d0dd      	beq.n	810f0 <usart_serial_read_packet+0x1c>
	if (USART0 == p_usart) {
   81134:	4b14      	ldr	r3, [pc, #80]	; (81188 <usart_serial_read_packet+0xb4>)
   81136:	429d      	cmp	r5, r3
   81138:	d0e0      	beq.n	810fc <usart_serial_read_packet+0x28>
	if (USART1 == p_usart) {
   8113a:	4b14      	ldr	r3, [pc, #80]	; (8118c <usart_serial_read_packet+0xb8>)
   8113c:	429d      	cmp	r5, r3
   8113e:	d0e8      	beq.n	81112 <usart_serial_read_packet+0x3e>
	if (USART2 == p_usart) {
   81140:	4b13      	ldr	r3, [pc, #76]	; (81190 <usart_serial_read_packet+0xbc>)
   81142:	429d      	cmp	r5, r3
   81144:	d00b      	beq.n	8115e <usart_serial_read_packet+0x8a>
	if (USART3 == p_usart) {
   81146:	42b5      	cmp	r5, r6
   81148:	d1ed      	bne.n	81126 <usart_serial_read_packet+0x52>
		while (usart_read(p_usart, &val));
   8114a:	f8df 804c 	ldr.w	r8, [pc, #76]	; 81198 <usart_serial_read_packet+0xc4>
   8114e:	a901      	add	r1, sp, #4
   81150:	4630      	mov	r0, r6
   81152:	47c0      	blx	r8
   81154:	2800      	cmp	r0, #0
   81156:	d1fa      	bne.n	8114e <usart_serial_read_packet+0x7a>
		*data = (uint8_t)(val & 0xFF);
   81158:	9b01      	ldr	r3, [sp, #4]
   8115a:	7023      	strb	r3, [r4, #0]
   8115c:	e7e3      	b.n	81126 <usart_serial_read_packet+0x52>
		while (usart_read(p_usart, &val));
   8115e:	469b      	mov	fp, r3
   81160:	f8df 8034 	ldr.w	r8, [pc, #52]	; 81198 <usart_serial_read_packet+0xc4>
   81164:	a901      	add	r1, sp, #4
   81166:	4658      	mov	r0, fp
   81168:	47c0      	blx	r8
   8116a:	2800      	cmp	r0, #0
   8116c:	d1fa      	bne.n	81164 <usart_serial_read_packet+0x90>
		*data = (uint8_t)(val & 0xFF);
   8116e:	9b01      	ldr	r3, [sp, #4]
   81170:	7023      	strb	r3, [r4, #0]
   81172:	e7d8      	b.n	81126 <usart_serial_read_packet+0x52>
	}
	return STATUS_OK;
}
   81174:	2000      	movs	r0, #0
   81176:	b003      	add	sp, #12
   81178:	e8bd 8ff0 	ldmia.w	sp!, {r4, r5, r6, r7, r8, r9, sl, fp, pc}
   8117c:	2000      	movs	r0, #0
   8117e:	4770      	bx	lr
   81180:	400e0800 	.word	0x400e0800
   81184:	400a4000 	.word	0x400a4000
   81188:	40098000 	.word	0x40098000
   8118c:	4009c000 	.word	0x4009c000
   81190:	400a0000 	.word	0x400a0000
   81194:	000811e3 	.word	0x000811e3
   81198:	0008100d 	.word	0x0008100d

0008119c <uart_init>:
   8119c:	b410      	push	{r4}
   8119e:	23ac      	movs	r3, #172	; 0xac
   811a0:	6003      	str	r3, [r0, #0]
   811a2:	680b      	ldr	r3, [r1, #0]
   811a4:	684a      	ldr	r2, [r1, #4]
   811a6:	fbb3 f3f2 	udiv	r3, r3, r2
   811aa:	091b      	lsrs	r3, r3, #4
   811ac:	1e5c      	subs	r4, r3, #1
   811ae:	f64f 72fe 	movw	r2, #65534	; 0xfffe
   811b2:	4294      	cmp	r4, r2
   811b4:	d80b      	bhi.n	811ce <uart_init+0x32>
   811b6:	6203      	str	r3, [r0, #32]
   811b8:	688b      	ldr	r3, [r1, #8]
   811ba:	6043      	str	r3, [r0, #4]
   811bc:	f240 2302 	movw	r3, #514	; 0x202
   811c0:	f8c0 3120 	str.w	r3, [r0, #288]	; 0x120
   811c4:	2350      	movs	r3, #80	; 0x50
   811c6:	6003      	str	r3, [r0, #0]
   811c8:	2000      	movs	r0, #0
   811ca:	bc10      	pop	{r4}
   811cc:	4770      	bx	lr
   811ce:	2001      	movs	r0, #1
   811d0:	e7fb      	b.n	811ca <uart_init+0x2e>

000811d2 <uart_write>:
   811d2:	6943      	ldr	r3, [r0, #20]
   811d4:	f013 0f02 	tst.w	r3, #2
   811d8:	bf1a      	itte	ne
   811da:	61c1      	strne	r1, [r0, #28]
   811dc:	2000      	movne	r0, #0
   811de:	2001      	moveq	r0, #1
   811e0:	4770      	bx	lr

000811e2 <uart_read>:
   811e2:	6943      	ldr	r3, [r0, #20]
   811e4:	f013 0f01 	tst.w	r3, #1
   811e8:	bf1d      	ittte	ne
   811ea:	6983      	ldrne	r3, [r0, #24]
   811ec:	700b      	strbne	r3, [r1, #0]
   811ee:	2000      	movne	r0, #0
   811f0:	2001      	moveq	r0, #1
   811f2:	4770      	bx	lr

000811f4 <sysclk_init>:
   811f4:	b510      	push	{r4, lr}
   811f6:	480e      	ldr	r0, [pc, #56]	; (81230 <sysclk_init+0x3c>)
   811f8:	4b0e      	ldr	r3, [pc, #56]	; (81234 <sysclk_init+0x40>)
   811fa:	4798      	blx	r3
   811fc:	213e      	movs	r1, #62	; 0x3e
   811fe:	2000      	movs	r0, #0
   81200:	4b0d      	ldr	r3, [pc, #52]	; (81238 <sysclk_init+0x44>)
   81202:	4798      	blx	r3
   81204:	4c0d      	ldr	r4, [pc, #52]	; (8123c <sysclk_init+0x48>)
   81206:	47a0      	blx	r4
   81208:	2800      	cmp	r0, #0
   8120a:	d0fc      	beq.n	81206 <sysclk_init+0x12>
   8120c:	4b0c      	ldr	r3, [pc, #48]	; (81240 <sysclk_init+0x4c>)
   8120e:	4798      	blx	r3
   81210:	4a0c      	ldr	r2, [pc, #48]	; (81244 <sysclk_init+0x50>)
   81212:	4b0d      	ldr	r3, [pc, #52]	; (81248 <sysclk_init+0x54>)
   81214:	629a      	str	r2, [r3, #40]	; 0x28
   81216:	4c0d      	ldr	r4, [pc, #52]	; (8124c <sysclk_init+0x58>)
   81218:	47a0      	blx	r4
   8121a:	2800      	cmp	r0, #0
   8121c:	d0fc      	beq.n	81218 <sysclk_init+0x24>
   8121e:	2010      	movs	r0, #16
   81220:	4b0b      	ldr	r3, [pc, #44]	; (81250 <sysclk_init+0x5c>)
   81222:	4798      	blx	r3
   81224:	4b0b      	ldr	r3, [pc, #44]	; (81254 <sysclk_init+0x60>)
   81226:	4798      	blx	r3
   81228:	4801      	ldr	r0, [pc, #4]	; (81230 <sysclk_init+0x3c>)
   8122a:	4b02      	ldr	r3, [pc, #8]	; (81234 <sysclk_init+0x40>)
   8122c:	4798      	blx	r3
   8122e:	bd10      	pop	{r4, pc}
   81230:	0501bd00 	.word	0x0501bd00
   81234:	200700a5 	.word	0x200700a5
   81238:	000816b1 	.word	0x000816b1
   8123c:	00081705 	.word	0x00081705
   81240:	00081715 	.word	0x00081715
   81244:	200d3f01 	.word	0x200d3f01
   81248:	400e0600 	.word	0x400e0600
   8124c:	00081725 	.word	0x00081725
   81250:	0008164d 	.word	0x0008164d
   81254:	00081825 	.word	0x00081825

00081258 <board_init>:
   81258:	b510      	push	{r4, lr}
   8125a:	f44f 4200 	mov.w	r2, #32768	; 0x8000
   8125e:	4b16      	ldr	r3, [pc, #88]	; (812b8 <board_init+0x60>)
   81260:	605a      	str	r2, [r3, #4]
   81262:	200b      	movs	r0, #11
   81264:	4c15      	ldr	r4, [pc, #84]	; (812bc <board_init+0x64>)
   81266:	47a0      	blx	r4
   81268:	200c      	movs	r0, #12
   8126a:	47a0      	blx	r4
   8126c:	200d      	movs	r0, #13
   8126e:	47a0      	blx	r4
   81270:	200e      	movs	r0, #14
   81272:	47a0      	blx	r4
   81274:	f04f 5160 	mov.w	r1, #939524096	; 0x38000000
   81278:	203b      	movs	r0, #59	; 0x3b
   8127a:	4c11      	ldr	r4, [pc, #68]	; (812c0 <board_init+0x68>)
   8127c:	47a0      	blx	r4
   8127e:	f04f 5160 	mov.w	r1, #939524096	; 0x38000000
   81282:	2055      	movs	r0, #85	; 0x55
   81284:	47a0      	blx	r4
   81286:	f04f 5160 	mov.w	r1, #939524096	; 0x38000000
   8128a:	2056      	movs	r0, #86	; 0x56
   8128c:	47a0      	blx	r4
   8128e:	490d      	ldr	r1, [pc, #52]	; (812c4 <board_init+0x6c>)
   81290:	2068      	movs	r0, #104	; 0x68
   81292:	47a0      	blx	r4
   81294:	490c      	ldr	r1, [pc, #48]	; (812c8 <board_init+0x70>)
   81296:	205c      	movs	r0, #92	; 0x5c
   81298:	47a0      	blx	r4
   8129a:	4a0c      	ldr	r2, [pc, #48]	; (812cc <board_init+0x74>)
   8129c:	f44f 7140 	mov.w	r1, #768	; 0x300
   812a0:	480b      	ldr	r0, [pc, #44]	; (812d0 <board_init+0x78>)
   812a2:	4b0c      	ldr	r3, [pc, #48]	; (812d4 <board_init+0x7c>)
   812a4:	4798      	blx	r3
   812a6:	f04f 6100 	mov.w	r1, #134217728	; 0x8000000
   812aa:	202b      	movs	r0, #43	; 0x2b
   812ac:	47a0      	blx	r4
   812ae:	f04f 6100 	mov.w	r1, #134217728	; 0x8000000
   812b2:	202a      	movs	r0, #42	; 0x2a
   812b4:	47a0      	blx	r4
   812b6:	bd10      	pop	{r4, pc}
   812b8:	400e1a50 	.word	0x400e1a50
   812bc:	00081735 	.word	0x00081735
   812c0:	000813d1 	.word	0x000813d1
   812c4:	28000079 	.word	0x28000079
   812c8:	28000001 	.word	0x28000001
   812cc:	08000001 	.word	0x08000001
   812d0:	400e0e00 	.word	0x400e0e00
   812d4:	000814a1 	.word	0x000814a1

000812d8 <pio_pull_up>:
   812d8:	b90a      	cbnz	r2, 812de <pio_pull_up+0x6>
   812da:	6601      	str	r1, [r0, #96]	; 0x60
   812dc:	4770      	bx	lr
   812de:	6641      	str	r1, [r0, #100]	; 0x64
   812e0:	4770      	bx	lr

000812e2 <pio_get>:
   812e2:	f021 6100 	bic.w	r1, r1, #134217728	; 0x8000000
   812e6:	f1b1 5f40 	cmp.w	r1, #805306368	; 0x30000000
   812ea:	bf0c      	ite	eq
   812ec:	6b83      	ldreq	r3, [r0, #56]	; 0x38
   812ee:	6bc3      	ldrne	r3, [r0, #60]	; 0x3c
   812f0:	4213      	tst	r3, r2
   812f2:	bf14      	ite	ne
   812f4:	2001      	movne	r0, #1
   812f6:	2000      	moveq	r0, #0
   812f8:	4770      	bx	lr

000812fa <pio_set_peripheral>:
   812fa:	6442      	str	r2, [r0, #68]	; 0x44
   812fc:	f1b1 5f80 	cmp.w	r1, #268435456	; 0x10000000
   81300:	d016      	beq.n	81330 <pio_set_peripheral+0x36>
   81302:	d80b      	bhi.n	8131c <pio_set_peripheral+0x22>
   81304:	b149      	cbz	r1, 8131a <pio_set_peripheral+0x20>
   81306:	f1b1 6f00 	cmp.w	r1, #134217728	; 0x8000000
   8130a:	d105      	bne.n	81318 <pio_set_peripheral+0x1e>
   8130c:	6f03      	ldr	r3, [r0, #112]	; 0x70
   8130e:	6f01      	ldr	r1, [r0, #112]	; 0x70
   81310:	400b      	ands	r3, r1
   81312:	ea23 0302 	bic.w	r3, r3, r2
   81316:	6703      	str	r3, [r0, #112]	; 0x70
   81318:	6042      	str	r2, [r0, #4]
   8131a:	4770      	bx	lr
   8131c:	f1b1 5f40 	cmp.w	r1, #805306368	; 0x30000000
   81320:	d0fb      	beq.n	8131a <pio_set_peripheral+0x20>
   81322:	f1b1 5f60 	cmp.w	r1, #939524096	; 0x38000000
   81326:	d0f8      	beq.n	8131a <pio_set_peripheral+0x20>
   81328:	f1b1 5f20 	cmp.w	r1, #671088640	; 0x28000000
   8132c:	d1f4      	bne.n	81318 <pio_set_peripheral+0x1e>
   8132e:	4770      	bx	lr
   81330:	6f03      	ldr	r3, [r0, #112]	; 0x70
   81332:	4313      	orrs	r3, r2
   81334:	6703      	str	r3, [r0, #112]	; 0x70
   81336:	e7ef      	b.n	81318 <pio_set_peripheral+0x1e>

00081338 <pio_set_input>:
   81338:	6441      	str	r1, [r0, #68]	; 0x44
   8133a:	f012 0f01 	tst.w	r2, #1
   8133e:	bf14      	ite	ne
   81340:	6641      	strne	r1, [r0, #100]	; 0x64
   81342:	6601      	streq	r1, [r0, #96]	; 0x60
   81344:	f012 0f0a 	tst.w	r2, #10
   81348:	bf14      	ite	ne
   8134a:	6201      	strne	r1, [r0, #32]
   8134c:	6241      	streq	r1, [r0, #36]	; 0x24
   8134e:	f012 0f02 	tst.w	r2, #2
   81352:	d107      	bne.n	81364 <pio_set_input+0x2c>
   81354:	f012 0f08 	tst.w	r2, #8
   81358:	bf18      	it	ne
   8135a:	f8c0 1084 	strne.w	r1, [r0, #132]	; 0x84
   8135e:	6141      	str	r1, [r0, #20]
   81360:	6001      	str	r1, [r0, #0]
   81362:	4770      	bx	lr
   81364:	f8c0 1080 	str.w	r1, [r0, #128]	; 0x80
   81368:	e7f9      	b.n	8135e <pio_set_input+0x26>

0008136a <pio_set_output>:
   8136a:	b410      	push	{r4}
   8136c:	9c01      	ldr	r4, [sp, #4]
   8136e:	6441      	str	r1, [r0, #68]	; 0x44
   81370:	b944      	cbnz	r4, 81384 <pio_set_output+0x1a>
   81372:	6601      	str	r1, [r0, #96]	; 0x60
   81374:	b143      	cbz	r3, 81388 <pio_set_output+0x1e>
   81376:	6501      	str	r1, [r0, #80]	; 0x50
   81378:	b942      	cbnz	r2, 8138c <pio_set_output+0x22>
   8137a:	6341      	str	r1, [r0, #52]	; 0x34
   8137c:	6101      	str	r1, [r0, #16]
   8137e:	6001      	str	r1, [r0, #0]
   81380:	bc10      	pop	{r4}
   81382:	4770      	bx	lr
   81384:	6641      	str	r1, [r0, #100]	; 0x64
   81386:	e7f5      	b.n	81374 <pio_set_output+0xa>
   81388:	6541      	str	r1, [r0, #84]	; 0x54
   8138a:	e7f5      	b.n	81378 <pio_set_output+0xe>
   8138c:	6301      	str	r1, [r0, #48]	; 0x30
   8138e:	e7f5      	b.n	8137c <pio_set_output+0x12>

00081390 <pio_configure_interrupt>:
   81390:	f012 0f10 	tst.w	r2, #16
   81394:	d010      	beq.n	813b8 <pio_configure_interrupt+0x28>
   81396:	f8c0 10b0 	str.w	r1, [r0, #176]	; 0xb0
   8139a:	f012 0f20 	tst.w	r2, #32
   8139e:	bf14      	ite	ne
   813a0:	f8c0 10d4 	strne.w	r1, [r0, #212]	; 0xd4
   813a4:	f8c0 10d0 	streq.w	r1, [r0, #208]	; 0xd0
   813a8:	f012 0f40 	tst.w	r2, #64	; 0x40
   813ac:	bf14      	ite	ne
   813ae:	f8c0 10c0 	strne.w	r1, [r0, #192]	; 0xc0
   813b2:	f8c0 10c4 	streq.w	r1, [r0, #196]	; 0xc4
   813b6:	4770      	bx	lr
   813b8:	f8c0 10b4 	str.w	r1, [r0, #180]	; 0xb4
   813bc:	4770      	bx	lr

000813be <pio_enable_interrupt>:
   813be:	6401      	str	r1, [r0, #64]	; 0x40
   813c0:	4770      	bx	lr

000813c2 <pio_disable_interrupt>:
   813c2:	6441      	str	r1, [r0, #68]	; 0x44
   813c4:	4770      	bx	lr

000813c6 <pio_get_interrupt_status>:
   813c6:	6cc0      	ldr	r0, [r0, #76]	; 0x4c
   813c8:	4770      	bx	lr

000813ca <pio_get_interrupt_mask>:
   813ca:	6c80      	ldr	r0, [r0, #72]	; 0x48
   813cc:	4770      	bx	lr
	...

000813d0 <pio_configure_pin>:
   813d0:	b570      	push	{r4, r5, r6, lr}
   813d2:	b082      	sub	sp, #8
   813d4:	460d      	mov	r5, r1
   813d6:	0943      	lsrs	r3, r0, #5
   813d8:	f503 1300 	add.w	r3, r3, #2097152	; 0x200000
   813dc:	f203 7307 	addw	r3, r3, #1799	; 0x707
   813e0:	025c      	lsls	r4, r3, #9
   813e2:	f001 43f0 	and.w	r3, r1, #2013265920	; 0x78000000
   813e6:	f1b3 5f20 	cmp.w	r3, #671088640	; 0x28000000
   813ea:	d031      	beq.n	81450 <pio_configure_pin+0x80>
   813ec:	d816      	bhi.n	8141c <pio_configure_pin+0x4c>
   813ee:	f1b3 6f00 	cmp.w	r3, #134217728	; 0x8000000
   813f2:	d01b      	beq.n	8142c <pio_configure_pin+0x5c>
   813f4:	f1b3 5f80 	cmp.w	r3, #268435456	; 0x10000000
   813f8:	d116      	bne.n	81428 <pio_configure_pin+0x58>
   813fa:	f000 001f 	and.w	r0, r0, #31
   813fe:	2601      	movs	r6, #1
   81400:	4086      	lsls	r6, r0
   81402:	4632      	mov	r2, r6
   81404:	f04f 5180 	mov.w	r1, #268435456	; 0x10000000
   81408:	4620      	mov	r0, r4
   8140a:	4b22      	ldr	r3, [pc, #136]	; (81494 <pio_configure_pin+0xc4>)
   8140c:	4798      	blx	r3
   8140e:	f015 0f01 	tst.w	r5, #1
   81412:	bf14      	ite	ne
   81414:	6666      	strne	r6, [r4, #100]	; 0x64
   81416:	6626      	streq	r6, [r4, #96]	; 0x60
   81418:	2001      	movs	r0, #1
   8141a:	e017      	b.n	8144c <pio_configure_pin+0x7c>
   8141c:	f1b3 5f40 	cmp.w	r3, #805306368	; 0x30000000
   81420:	d021      	beq.n	81466 <pio_configure_pin+0x96>
   81422:	f1b3 5f60 	cmp.w	r3, #939524096	; 0x38000000
   81426:	d01e      	beq.n	81466 <pio_configure_pin+0x96>
   81428:	2000      	movs	r0, #0
   8142a:	e00f      	b.n	8144c <pio_configure_pin+0x7c>
   8142c:	f000 001f 	and.w	r0, r0, #31
   81430:	2601      	movs	r6, #1
   81432:	4086      	lsls	r6, r0
   81434:	4632      	mov	r2, r6
   81436:	f04f 6100 	mov.w	r1, #134217728	; 0x8000000
   8143a:	4620      	mov	r0, r4
   8143c:	4b15      	ldr	r3, [pc, #84]	; (81494 <pio_configure_pin+0xc4>)
   8143e:	4798      	blx	r3
   81440:	f015 0f01 	tst.w	r5, #1
   81444:	bf14      	ite	ne
   81446:	6666      	strne	r6, [r4, #100]	; 0x64
   81448:	6626      	streq	r6, [r4, #96]	; 0x60
   8144a:	2001      	movs	r0, #1
   8144c:	b002      	add	sp, #8
   8144e:	bd70      	pop	{r4, r5, r6, pc}
   81450:	f000 011f 	and.w	r1, r0, #31
   81454:	2601      	movs	r6, #1
   81456:	462a      	mov	r2, r5
   81458:	fa06 f101 	lsl.w	r1, r6, r1
   8145c:	4620      	mov	r0, r4
   8145e:	4b0e      	ldr	r3, [pc, #56]	; (81498 <pio_configure_pin+0xc8>)
   81460:	4798      	blx	r3
   81462:	4630      	mov	r0, r6
   81464:	e7f2      	b.n	8144c <pio_configure_pin+0x7c>
   81466:	f005 5260 	and.w	r2, r5, #939524096	; 0x38000000
   8146a:	f000 011f 	and.w	r1, r0, #31
   8146e:	2601      	movs	r6, #1
   81470:	ea05 0306 	and.w	r3, r5, r6
   81474:	9300      	str	r3, [sp, #0]
   81476:	f3c5 0380 	ubfx	r3, r5, #2, #1
   8147a:	f1b2 5f60 	cmp.w	r2, #939524096	; 0x38000000
   8147e:	bf14      	ite	ne
   81480:	2200      	movne	r2, #0
   81482:	2201      	moveq	r2, #1
   81484:	fa06 f101 	lsl.w	r1, r6, r1
   81488:	4620      	mov	r0, r4
   8148a:	4c04      	ldr	r4, [pc, #16]	; (8149c <pio_configure_pin+0xcc>)
   8148c:	47a0      	blx	r4
   8148e:	4630      	mov	r0, r6
   81490:	e7dc      	b.n	8144c <pio_configure_pin+0x7c>
   81492:	bf00      	nop
   81494:	000812fb 	.word	0x000812fb
   81498:	00081339 	.word	0x00081339
   8149c:	0008136b 	.word	0x0008136b

000814a0 <pio_configure_pin_group>:
   814a0:	b570      	push	{r4, r5, r6, lr}
   814a2:	b082      	sub	sp, #8
   814a4:	4605      	mov	r5, r0
   814a6:	460e      	mov	r6, r1
   814a8:	4614      	mov	r4, r2
   814aa:	f002 43f0 	and.w	r3, r2, #2013265920	; 0x78000000
   814ae:	f1b3 5f20 	cmp.w	r3, #671088640	; 0x28000000
   814b2:	d027      	beq.n	81504 <pio_configure_pin_group+0x64>
   814b4:	d811      	bhi.n	814da <pio_configure_pin_group+0x3a>
   814b6:	f1b3 6f00 	cmp.w	r3, #134217728	; 0x8000000
   814ba:	d016      	beq.n	814ea <pio_configure_pin_group+0x4a>
   814bc:	f1b3 5f80 	cmp.w	r3, #268435456	; 0x10000000
   814c0:	d111      	bne.n	814e6 <pio_configure_pin_group+0x46>
   814c2:	460a      	mov	r2, r1
   814c4:	f04f 5180 	mov.w	r1, #268435456	; 0x10000000
   814c8:	4b19      	ldr	r3, [pc, #100]	; (81530 <pio_configure_pin_group+0x90>)
   814ca:	4798      	blx	r3
   814cc:	f014 0f01 	tst.w	r4, #1
   814d0:	bf14      	ite	ne
   814d2:	666e      	strne	r6, [r5, #100]	; 0x64
   814d4:	662e      	streq	r6, [r5, #96]	; 0x60
   814d6:	2001      	movs	r0, #1
   814d8:	e012      	b.n	81500 <pio_configure_pin_group+0x60>
   814da:	f1b3 5f40 	cmp.w	r3, #805306368	; 0x30000000
   814de:	d015      	beq.n	8150c <pio_configure_pin_group+0x6c>
   814e0:	f1b3 5f60 	cmp.w	r3, #939524096	; 0x38000000
   814e4:	d012      	beq.n	8150c <pio_configure_pin_group+0x6c>
   814e6:	2000      	movs	r0, #0
   814e8:	e00a      	b.n	81500 <pio_configure_pin_group+0x60>
   814ea:	460a      	mov	r2, r1
   814ec:	f04f 6100 	mov.w	r1, #134217728	; 0x8000000
   814f0:	4b0f      	ldr	r3, [pc, #60]	; (81530 <pio_configure_pin_group+0x90>)
   814f2:	4798      	blx	r3
   814f4:	f014 0f01 	tst.w	r4, #1
   814f8:	bf14      	ite	ne
   814fa:	666e      	strne	r6, [r5, #100]	; 0x64
   814fc:	662e      	streq	r6, [r5, #96]	; 0x60
   814fe:	2001      	movs	r0, #1
   81500:	b002      	add	sp, #8
   81502:	bd70      	pop	{r4, r5, r6, pc}
   81504:	4b0b      	ldr	r3, [pc, #44]	; (81534 <pio_configure_pin_group+0x94>)
   81506:	4798      	blx	r3
   81508:	2001      	movs	r0, #1
   8150a:	e7f9      	b.n	81500 <pio_configure_pin_group+0x60>
   8150c:	f004 5260 	and.w	r2, r4, #939524096	; 0x38000000
   81510:	f004 0301 	and.w	r3, r4, #1
   81514:	9300      	str	r3, [sp, #0]
   81516:	f3c4 0380 	ubfx	r3, r4, #2, #1
   8151a:	f1b2 5f60 	cmp.w	r2, #939524096	; 0x38000000
   8151e:	bf14      	ite	ne
   81520:	2200      	movne	r2, #0
   81522:	2201      	moveq	r2, #1
   81524:	4631      	mov	r1, r6
   81526:	4628      	mov	r0, r5
   81528:	4c03      	ldr	r4, [pc, #12]	; (81538 <pio_configure_pin_group+0x98>)
   8152a:	47a0      	blx	r4
   8152c:	2001      	movs	r0, #1
   8152e:	e7e7      	b.n	81500 <pio_configure_pin_group+0x60>
   81530:	000812fb 	.word	0x000812fb
   81534:	00081339 	.word	0x00081339
   81538:	0008136b 	.word	0x0008136b

0008153c <pio_handler_process>:
   8153c:	e92d 41f0 	stmdb	sp!, {r4, r5, r6, r7, r8, lr}
   81540:	4604      	mov	r4, r0
   81542:	4688      	mov	r8, r1
   81544:	4b0e      	ldr	r3, [pc, #56]	; (81580 <pio_handler_process+0x44>)
   81546:	4798      	blx	r3
   81548:	4605      	mov	r5, r0
   8154a:	4620      	mov	r0, r4
   8154c:	4b0d      	ldr	r3, [pc, #52]	; (81584 <pio_handler_process+0x48>)
   8154e:	4798      	blx	r3
   81550:	4005      	ands	r5, r0
   81552:	d013      	beq.n	8157c <pio_handler_process+0x40>
   81554:	4c0c      	ldr	r4, [pc, #48]	; (81588 <pio_handler_process+0x4c>)
   81556:	f104 0660 	add.w	r6, r4, #96	; 0x60
   8155a:	e003      	b.n	81564 <pio_handler_process+0x28>
   8155c:	42b4      	cmp	r4, r6
   8155e:	d00d      	beq.n	8157c <pio_handler_process+0x40>
   81560:	3410      	adds	r4, #16
   81562:	b15d      	cbz	r5, 8157c <pio_handler_process+0x40>
   81564:	6820      	ldr	r0, [r4, #0]
   81566:	4540      	cmp	r0, r8
   81568:	d1f8      	bne.n	8155c <pio_handler_process+0x20>
   8156a:	6861      	ldr	r1, [r4, #4]
   8156c:	4229      	tst	r1, r5
   8156e:	d0f5      	beq.n	8155c <pio_handler_process+0x20>
   81570:	68e3      	ldr	r3, [r4, #12]
   81572:	4798      	blx	r3
   81574:	6863      	ldr	r3, [r4, #4]
   81576:	ea25 0503 	bic.w	r5, r5, r3
   8157a:	e7ef      	b.n	8155c <pio_handler_process+0x20>
   8157c:	e8bd 81f0 	ldmia.w	sp!, {r4, r5, r6, r7, r8, pc}
   81580:	000813c7 	.word	0x000813c7
   81584:	000813cb 	.word	0x000813cb
   81588:	20070c8c 	.word	0x20070c8c

0008158c <pio_handler_set>:
   8158c:	b5f8      	push	{r3, r4, r5, r6, r7, lr}
   8158e:	4c18      	ldr	r4, [pc, #96]	; (815f0 <pio_handler_set+0x64>)
   81590:	6826      	ldr	r6, [r4, #0]
   81592:	2e06      	cmp	r6, #6
   81594:	d829      	bhi.n	815ea <pio_handler_set+0x5e>
   81596:	f04f 0c00 	mov.w	ip, #0
   8159a:	4664      	mov	r4, ip
   8159c:	4f15      	ldr	r7, [pc, #84]	; (815f4 <pio_handler_set+0x68>)
   8159e:	e004      	b.n	815aa <pio_handler_set+0x1e>
   815a0:	3401      	adds	r4, #1
   815a2:	b2e4      	uxtb	r4, r4
   815a4:	46a4      	mov	ip, r4
   815a6:	42a6      	cmp	r6, r4
   815a8:	d309      	bcc.n	815be <pio_handler_set+0x32>
   815aa:	46a6      	mov	lr, r4
   815ac:	0125      	lsls	r5, r4, #4
   815ae:	597d      	ldr	r5, [r7, r5]
   815b0:	428d      	cmp	r5, r1
   815b2:	d1f5      	bne.n	815a0 <pio_handler_set+0x14>
   815b4:	eb07 1504 	add.w	r5, r7, r4, lsl #4
   815b8:	686d      	ldr	r5, [r5, #4]
   815ba:	4295      	cmp	r5, r2
   815bc:	d1f0      	bne.n	815a0 <pio_handler_set+0x14>
   815be:	4d0d      	ldr	r5, [pc, #52]	; (815f4 <pio_handler_set+0x68>)
   815c0:	ea4f 1e0e 	mov.w	lr, lr, lsl #4
   815c4:	eb05 040e 	add.w	r4, r5, lr
   815c8:	f845 100e 	str.w	r1, [r5, lr]
   815cc:	6062      	str	r2, [r4, #4]
   815ce:	60a3      	str	r3, [r4, #8]
   815d0:	9906      	ldr	r1, [sp, #24]
   815d2:	60e1      	str	r1, [r4, #12]
   815d4:	3601      	adds	r6, #1
   815d6:	4566      	cmp	r6, ip
   815d8:	bf04      	itt	eq
   815da:	4905      	ldreq	r1, [pc, #20]	; (815f0 <pio_handler_set+0x64>)
   815dc:	600e      	streq	r6, [r1, #0]
   815de:	4611      	mov	r1, r2
   815e0:	461a      	mov	r2, r3
   815e2:	4b05      	ldr	r3, [pc, #20]	; (815f8 <pio_handler_set+0x6c>)
   815e4:	4798      	blx	r3
   815e6:	2000      	movs	r0, #0
   815e8:	bdf8      	pop	{r3, r4, r5, r6, r7, pc}
   815ea:	2001      	movs	r0, #1
   815ec:	bdf8      	pop	{r3, r4, r5, r6, r7, pc}
   815ee:	bf00      	nop
   815f0:	20070cfc 	.word	0x20070cfc
   815f4:	20070c8c 	.word	0x20070c8c
   815f8:	00081391 	.word	0x00081391

000815fc <PIOA_Handler>:
   815fc:	b508      	push	{r3, lr}
   815fe:	210b      	movs	r1, #11
   81600:	4801      	ldr	r0, [pc, #4]	; (81608 <PIOA_Handler+0xc>)
   81602:	4b02      	ldr	r3, [pc, #8]	; (8160c <PIOA_Handler+0x10>)
   81604:	4798      	blx	r3
   81606:	bd08      	pop	{r3, pc}
   81608:	400e0e00 	.word	0x400e0e00
   8160c:	0008153d 	.word	0x0008153d

00081610 <PIOB_Handler>:
   81610:	b508      	push	{r3, lr}
   81612:	210c      	movs	r1, #12
   81614:	4801      	ldr	r0, [pc, #4]	; (8161c <PIOB_Handler+0xc>)
   81616:	4b02      	ldr	r3, [pc, #8]	; (81620 <PIOB_Handler+0x10>)
   81618:	4798      	blx	r3
   8161a:	bd08      	pop	{r3, pc}
   8161c:	400e1000 	.word	0x400e1000
   81620:	0008153d 	.word	0x0008153d

00081624 <PIOC_Handler>:
   81624:	b508      	push	{r3, lr}
   81626:	210d      	movs	r1, #13
   81628:	4801      	ldr	r0, [pc, #4]	; (81630 <PIOC_Handler+0xc>)
   8162a:	4b02      	ldr	r3, [pc, #8]	; (81634 <PIOC_Handler+0x10>)
   8162c:	4798      	blx	r3
   8162e:	bd08      	pop	{r3, pc}
   81630:	400e1200 	.word	0x400e1200
   81634:	0008153d 	.word	0x0008153d

00081638 <PIOD_Handler>:
   81638:	b508      	push	{r3, lr}
   8163a:	210e      	movs	r1, #14
   8163c:	4801      	ldr	r0, [pc, #4]	; (81644 <PIOD_Handler+0xc>)
   8163e:	4b02      	ldr	r3, [pc, #8]	; (81648 <PIOD_Handler+0x10>)
   81640:	4798      	blx	r3
   81642:	bd08      	pop	{r3, pc}
   81644:	400e1400 	.word	0x400e1400
   81648:	0008153d 	.word	0x0008153d

0008164c <pmc_switch_mck_to_pllack>:
   8164c:	4a17      	ldr	r2, [pc, #92]	; (816ac <pmc_switch_mck_to_pllack+0x60>)
   8164e:	6b13      	ldr	r3, [r2, #48]	; 0x30
   81650:	f023 0370 	bic.w	r3, r3, #112	; 0x70
   81654:	4318      	orrs	r0, r3
   81656:	6310      	str	r0, [r2, #48]	; 0x30
   81658:	6e93      	ldr	r3, [r2, #104]	; 0x68
   8165a:	f013 0f08 	tst.w	r3, #8
   8165e:	d10a      	bne.n	81676 <pmc_switch_mck_to_pllack+0x2a>
   81660:	f44f 6300 	mov.w	r3, #2048	; 0x800
   81664:	4911      	ldr	r1, [pc, #68]	; (816ac <pmc_switch_mck_to_pllack+0x60>)
   81666:	6e8a      	ldr	r2, [r1, #104]	; 0x68
   81668:	f012 0f08 	tst.w	r2, #8
   8166c:	d103      	bne.n	81676 <pmc_switch_mck_to_pllack+0x2a>
   8166e:	3b01      	subs	r3, #1
   81670:	d1f9      	bne.n	81666 <pmc_switch_mck_to_pllack+0x1a>
   81672:	2001      	movs	r0, #1
   81674:	4770      	bx	lr
   81676:	4a0d      	ldr	r2, [pc, #52]	; (816ac <pmc_switch_mck_to_pllack+0x60>)
   81678:	6b13      	ldr	r3, [r2, #48]	; 0x30
   8167a:	f023 0303 	bic.w	r3, r3, #3
   8167e:	f043 0302 	orr.w	r3, r3, #2
   81682:	6313      	str	r3, [r2, #48]	; 0x30
   81684:	6e93      	ldr	r3, [r2, #104]	; 0x68
   81686:	f013 0f08 	tst.w	r3, #8
   8168a:	d10a      	bne.n	816a2 <pmc_switch_mck_to_pllack+0x56>
   8168c:	f44f 6300 	mov.w	r3, #2048	; 0x800
   81690:	4906      	ldr	r1, [pc, #24]	; (816ac <pmc_switch_mck_to_pllack+0x60>)
   81692:	6e8a      	ldr	r2, [r1, #104]	; 0x68
   81694:	f012 0f08 	tst.w	r2, #8
   81698:	d105      	bne.n	816a6 <pmc_switch_mck_to_pllack+0x5a>
   8169a:	3b01      	subs	r3, #1
   8169c:	d1f9      	bne.n	81692 <pmc_switch_mck_to_pllack+0x46>
   8169e:	2001      	movs	r0, #1
   816a0:	4770      	bx	lr
   816a2:	2000      	movs	r0, #0
   816a4:	4770      	bx	lr
   816a6:	2000      	movs	r0, #0
   816a8:	4770      	bx	lr
   816aa:	bf00      	nop
   816ac:	400e0600 	.word	0x400e0600

000816b0 <pmc_switch_mainck_to_xtal>:
   816b0:	b9c8      	cbnz	r0, 816e6 <pmc_switch_mainck_to_xtal+0x36>
   816b2:	4a11      	ldr	r2, [pc, #68]	; (816f8 <pmc_switch_mainck_to_xtal+0x48>)
   816b4:	6a13      	ldr	r3, [r2, #32]
   816b6:	0209      	lsls	r1, r1, #8
   816b8:	b289      	uxth	r1, r1
   816ba:	f423 135c 	bic.w	r3, r3, #3604480	; 0x370000
   816be:	f023 0303 	bic.w	r3, r3, #3
   816c2:	f443 135c 	orr.w	r3, r3, #3604480	; 0x370000
   816c6:	f043 0301 	orr.w	r3, r3, #1
   816ca:	430b      	orrs	r3, r1
   816cc:	6213      	str	r3, [r2, #32]
   816ce:	6e93      	ldr	r3, [r2, #104]	; 0x68
   816d0:	f013 0f01 	tst.w	r3, #1
   816d4:	d0fb      	beq.n	816ce <pmc_switch_mainck_to_xtal+0x1e>
   816d6:	4a08      	ldr	r2, [pc, #32]	; (816f8 <pmc_switch_mainck_to_xtal+0x48>)
   816d8:	6a13      	ldr	r3, [r2, #32]
   816da:	f043 739b 	orr.w	r3, r3, #20316160	; 0x1360000
   816de:	f443 3380 	orr.w	r3, r3, #65536	; 0x10000
   816e2:	6213      	str	r3, [r2, #32]
   816e4:	4770      	bx	lr
   816e6:	4904      	ldr	r1, [pc, #16]	; (816f8 <pmc_switch_mainck_to_xtal+0x48>)
   816e8:	6a0b      	ldr	r3, [r1, #32]
   816ea:	4a04      	ldr	r2, [pc, #16]	; (816fc <pmc_switch_mainck_to_xtal+0x4c>)
   816ec:	401a      	ands	r2, r3
   816ee:	4b04      	ldr	r3, [pc, #16]	; (81700 <pmc_switch_mainck_to_xtal+0x50>)
   816f0:	4313      	orrs	r3, r2
   816f2:	620b      	str	r3, [r1, #32]
   816f4:	4770      	bx	lr
   816f6:	bf00      	nop
   816f8:	400e0600 	.word	0x400e0600
   816fc:	fec8fffc 	.word	0xfec8fffc
   81700:	01370002 	.word	0x01370002

00081704 <pmc_osc_is_ready_mainck>:
   81704:	4b02      	ldr	r3, [pc, #8]	; (81710 <pmc_osc_is_ready_mainck+0xc>)
   81706:	6e98      	ldr	r0, [r3, #104]	; 0x68
   81708:	f400 3080 	and.w	r0, r0, #65536	; 0x10000
   8170c:	4770      	bx	lr
   8170e:	bf00      	nop
   81710:	400e0600 	.word	0x400e0600

00081714 <pmc_disable_pllack>:
   81714:	f04f 5200 	mov.w	r2, #536870912	; 0x20000000
   81718:	4b01      	ldr	r3, [pc, #4]	; (81720 <pmc_disable_pllack+0xc>)
   8171a:	629a      	str	r2, [r3, #40]	; 0x28
   8171c:	4770      	bx	lr
   8171e:	bf00      	nop
   81720:	400e0600 	.word	0x400e0600

00081724 <pmc_is_locked_pllack>:
   81724:	4b02      	ldr	r3, [pc, #8]	; (81730 <pmc_is_locked_pllack+0xc>)
   81726:	6e98      	ldr	r0, [r3, #104]	; 0x68
   81728:	f000 0002 	and.w	r0, r0, #2
   8172c:	4770      	bx	lr
   8172e:	bf00      	nop
   81730:	400e0600 	.word	0x400e0600

00081734 <pmc_enable_periph_clk>:
   81734:	282c      	cmp	r0, #44	; 0x2c
   81736:	d81e      	bhi.n	81776 <pmc_enable_periph_clk+0x42>
   81738:	281f      	cmp	r0, #31
   8173a:	d80c      	bhi.n	81756 <pmc_enable_periph_clk+0x22>
   8173c:	4b11      	ldr	r3, [pc, #68]	; (81784 <pmc_enable_periph_clk+0x50>)
   8173e:	699a      	ldr	r2, [r3, #24]
   81740:	2301      	movs	r3, #1
   81742:	4083      	lsls	r3, r0
   81744:	4393      	bics	r3, r2
   81746:	d018      	beq.n	8177a <pmc_enable_periph_clk+0x46>
   81748:	2301      	movs	r3, #1
   8174a:	fa03 f000 	lsl.w	r0, r3, r0
   8174e:	4b0d      	ldr	r3, [pc, #52]	; (81784 <pmc_enable_periph_clk+0x50>)
   81750:	6118      	str	r0, [r3, #16]
   81752:	2000      	movs	r0, #0
   81754:	4770      	bx	lr
   81756:	3820      	subs	r0, #32
   81758:	4b0a      	ldr	r3, [pc, #40]	; (81784 <pmc_enable_periph_clk+0x50>)
   8175a:	f8d3 2108 	ldr.w	r2, [r3, #264]	; 0x108
   8175e:	2301      	movs	r3, #1
   81760:	4083      	lsls	r3, r0
   81762:	4393      	bics	r3, r2
   81764:	d00b      	beq.n	8177e <pmc_enable_periph_clk+0x4a>
   81766:	2301      	movs	r3, #1
   81768:	fa03 f000 	lsl.w	r0, r3, r0
   8176c:	4b05      	ldr	r3, [pc, #20]	; (81784 <pmc_enable_periph_clk+0x50>)
   8176e:	f8c3 0100 	str.w	r0, [r3, #256]	; 0x100
   81772:	2000      	movs	r0, #0
   81774:	4770      	bx	lr
   81776:	2001      	movs	r0, #1
   81778:	4770      	bx	lr
   8177a:	2000      	movs	r0, #0
   8177c:	4770      	bx	lr
   8177e:	2000      	movs	r0, #0
   81780:	4770      	bx	lr
   81782:	bf00      	nop
   81784:	400e0600 	.word	0x400e0600

00081788 <Dummy_Handler>:
   81788:	e7fe      	b.n	81788 <Dummy_Handler>
	...

0008178c <Reset_Handler>:
   8178c:	b508      	push	{r3, lr}
   8178e:	4b1c      	ldr	r3, [pc, #112]	; (81800 <Reset_Handler+0x74>)
   81790:	4a1c      	ldr	r2, [pc, #112]	; (81804 <Reset_Handler+0x78>)
   81792:	429a      	cmp	r2, r3
   81794:	d010      	beq.n	817b8 <Reset_Handler+0x2c>
   81796:	4b1c      	ldr	r3, [pc, #112]	; (81808 <Reset_Handler+0x7c>)
   81798:	4a19      	ldr	r2, [pc, #100]	; (81800 <Reset_Handler+0x74>)
   8179a:	429a      	cmp	r2, r3
   8179c:	d20c      	bcs.n	817b8 <Reset_Handler+0x2c>
   8179e:	3b01      	subs	r3, #1
   817a0:	1a9b      	subs	r3, r3, r2
   817a2:	f023 0303 	bic.w	r3, r3, #3
   817a6:	3304      	adds	r3, #4
   817a8:	4413      	add	r3, r2
   817aa:	4916      	ldr	r1, [pc, #88]	; (81804 <Reset_Handler+0x78>)
   817ac:	f851 0b04 	ldr.w	r0, [r1], #4
   817b0:	f842 0b04 	str.w	r0, [r2], #4
   817b4:	429a      	cmp	r2, r3
   817b6:	d1f9      	bne.n	817ac <Reset_Handler+0x20>
   817b8:	4b14      	ldr	r3, [pc, #80]	; (8180c <Reset_Handler+0x80>)
   817ba:	4a15      	ldr	r2, [pc, #84]	; (81810 <Reset_Handler+0x84>)
   817bc:	429a      	cmp	r2, r3
   817be:	d20a      	bcs.n	817d6 <Reset_Handler+0x4a>
   817c0:	3b01      	subs	r3, #1
   817c2:	1a9b      	subs	r3, r3, r2
   817c4:	f023 0303 	bic.w	r3, r3, #3
   817c8:	3304      	adds	r3, #4
   817ca:	4413      	add	r3, r2
   817cc:	2100      	movs	r1, #0
   817ce:	f842 1b04 	str.w	r1, [r2], #4
   817d2:	4293      	cmp	r3, r2
   817d4:	d1fb      	bne.n	817ce <Reset_Handler+0x42>
   817d6:	4b0f      	ldr	r3, [pc, #60]	; (81814 <Reset_Handler+0x88>)
   817d8:	f023 4260 	bic.w	r2, r3, #3758096384	; 0xe0000000
   817dc:	f022 027f 	bic.w	r2, r2, #127	; 0x7f
   817e0:	490d      	ldr	r1, [pc, #52]	; (81818 <Reset_Handler+0x8c>)
   817e2:	608a      	str	r2, [r1, #8]
   817e4:	f103 4360 	add.w	r3, r3, #3758096384	; 0xe0000000
   817e8:	f5b3 1f80 	cmp.w	r3, #1048576	; 0x100000
   817ec:	d203      	bcs.n	817f6 <Reset_Handler+0x6a>
   817ee:	688b      	ldr	r3, [r1, #8]
   817f0:	f043 5300 	orr.w	r3, r3, #536870912	; 0x20000000
   817f4:	608b      	str	r3, [r1, #8]
   817f6:	4b09      	ldr	r3, [pc, #36]	; (8181c <Reset_Handler+0x90>)
   817f8:	4798      	blx	r3
   817fa:	4b09      	ldr	r3, [pc, #36]	; (81820 <Reset_Handler+0x94>)
   817fc:	4798      	blx	r3
   817fe:	e7fe      	b.n	817fe <Reset_Handler+0x72>
   81800:	20070000 	.word	0x20070000
   81804:	00088aac 	.word	0x00088aac
   81808:	20070ae8 	.word	0x20070ae8
   8180c:	20072784 	.word	0x20072784
   81810:	20070ae8 	.word	0x20070ae8
   81814:	00080000 	.word	0x00080000
   81818:	e000ed00 	.word	0xe000ed00
   8181c:	00082c71 	.word	0x00082c71
   81820:	00081b21 	.word	0x00081b21

00081824 <SystemCoreClockUpdate>:
   81824:	4b3d      	ldr	r3, [pc, #244]	; (8191c <SystemCoreClockUpdate+0xf8>)
   81826:	6b1b      	ldr	r3, [r3, #48]	; 0x30
   81828:	f003 0303 	and.w	r3, r3, #3
   8182c:	2b03      	cmp	r3, #3
   8182e:	d80e      	bhi.n	8184e <SystemCoreClockUpdate+0x2a>
   81830:	e8df f003 	tbb	[pc, r3]
   81834:	38381c02 	.word	0x38381c02
   81838:	4b39      	ldr	r3, [pc, #228]	; (81920 <SystemCoreClockUpdate+0xfc>)
   8183a:	695b      	ldr	r3, [r3, #20]
   8183c:	f013 0f80 	tst.w	r3, #128	; 0x80
   81840:	bf14      	ite	ne
   81842:	f44f 4200 	movne.w	r2, #32768	; 0x8000
   81846:	f44f 42fa 	moveq.w	r2, #32000	; 0x7d00
   8184a:	4b36      	ldr	r3, [pc, #216]	; (81924 <SystemCoreClockUpdate+0x100>)
   8184c:	601a      	str	r2, [r3, #0]
   8184e:	4b33      	ldr	r3, [pc, #204]	; (8191c <SystemCoreClockUpdate+0xf8>)
   81850:	6b1b      	ldr	r3, [r3, #48]	; 0x30
   81852:	f003 0370 	and.w	r3, r3, #112	; 0x70
   81856:	2b70      	cmp	r3, #112	; 0x70
   81858:	d057      	beq.n	8190a <SystemCoreClockUpdate+0xe6>
   8185a:	4b30      	ldr	r3, [pc, #192]	; (8191c <SystemCoreClockUpdate+0xf8>)
   8185c:	6b1a      	ldr	r2, [r3, #48]	; 0x30
   8185e:	4931      	ldr	r1, [pc, #196]	; (81924 <SystemCoreClockUpdate+0x100>)
   81860:	f3c2 1202 	ubfx	r2, r2, #4, #3
   81864:	680b      	ldr	r3, [r1, #0]
   81866:	40d3      	lsrs	r3, r2
   81868:	600b      	str	r3, [r1, #0]
   8186a:	4770      	bx	lr
   8186c:	4b2b      	ldr	r3, [pc, #172]	; (8191c <SystemCoreClockUpdate+0xf8>)
   8186e:	6a1b      	ldr	r3, [r3, #32]
   81870:	f013 7f80 	tst.w	r3, #16777216	; 0x1000000
   81874:	d003      	beq.n	8187e <SystemCoreClockUpdate+0x5a>
   81876:	4a2c      	ldr	r2, [pc, #176]	; (81928 <SystemCoreClockUpdate+0x104>)
   81878:	4b2a      	ldr	r3, [pc, #168]	; (81924 <SystemCoreClockUpdate+0x100>)
   8187a:	601a      	str	r2, [r3, #0]
   8187c:	e7e7      	b.n	8184e <SystemCoreClockUpdate+0x2a>
   8187e:	4a2b      	ldr	r2, [pc, #172]	; (8192c <SystemCoreClockUpdate+0x108>)
   81880:	4b28      	ldr	r3, [pc, #160]	; (81924 <SystemCoreClockUpdate+0x100>)
   81882:	601a      	str	r2, [r3, #0]
   81884:	4b25      	ldr	r3, [pc, #148]	; (8191c <SystemCoreClockUpdate+0xf8>)
   81886:	6a1b      	ldr	r3, [r3, #32]
   81888:	f003 0370 	and.w	r3, r3, #112	; 0x70
   8188c:	2b10      	cmp	r3, #16
   8188e:	d005      	beq.n	8189c <SystemCoreClockUpdate+0x78>
   81890:	2b20      	cmp	r3, #32
   81892:	d1dc      	bne.n	8184e <SystemCoreClockUpdate+0x2a>
   81894:	4a24      	ldr	r2, [pc, #144]	; (81928 <SystemCoreClockUpdate+0x104>)
   81896:	4b23      	ldr	r3, [pc, #140]	; (81924 <SystemCoreClockUpdate+0x100>)
   81898:	601a      	str	r2, [r3, #0]
   8189a:	e7d8      	b.n	8184e <SystemCoreClockUpdate+0x2a>
   8189c:	4a24      	ldr	r2, [pc, #144]	; (81930 <SystemCoreClockUpdate+0x10c>)
   8189e:	4b21      	ldr	r3, [pc, #132]	; (81924 <SystemCoreClockUpdate+0x100>)
   818a0:	601a      	str	r2, [r3, #0]
   818a2:	e7d4      	b.n	8184e <SystemCoreClockUpdate+0x2a>
   818a4:	4b1d      	ldr	r3, [pc, #116]	; (8191c <SystemCoreClockUpdate+0xf8>)
   818a6:	6a1b      	ldr	r3, [r3, #32]
   818a8:	f013 7f80 	tst.w	r3, #16777216	; 0x1000000
   818ac:	d00c      	beq.n	818c8 <SystemCoreClockUpdate+0xa4>
   818ae:	4a1e      	ldr	r2, [pc, #120]	; (81928 <SystemCoreClockUpdate+0x104>)
   818b0:	4b1c      	ldr	r3, [pc, #112]	; (81924 <SystemCoreClockUpdate+0x100>)
   818b2:	601a      	str	r2, [r3, #0]
   818b4:	4b19      	ldr	r3, [pc, #100]	; (8191c <SystemCoreClockUpdate+0xf8>)
   818b6:	6b1b      	ldr	r3, [r3, #48]	; 0x30
   818b8:	f003 0303 	and.w	r3, r3, #3
   818bc:	2b02      	cmp	r3, #2
   818be:	d016      	beq.n	818ee <SystemCoreClockUpdate+0xca>
   818c0:	4a1c      	ldr	r2, [pc, #112]	; (81934 <SystemCoreClockUpdate+0x110>)
   818c2:	4b18      	ldr	r3, [pc, #96]	; (81924 <SystemCoreClockUpdate+0x100>)
   818c4:	601a      	str	r2, [r3, #0]
   818c6:	e7c2      	b.n	8184e <SystemCoreClockUpdate+0x2a>
   818c8:	4a18      	ldr	r2, [pc, #96]	; (8192c <SystemCoreClockUpdate+0x108>)
   818ca:	4b16      	ldr	r3, [pc, #88]	; (81924 <SystemCoreClockUpdate+0x100>)
   818cc:	601a      	str	r2, [r3, #0]
   818ce:	4b13      	ldr	r3, [pc, #76]	; (8191c <SystemCoreClockUpdate+0xf8>)
   818d0:	6a1b      	ldr	r3, [r3, #32]
   818d2:	f003 0370 	and.w	r3, r3, #112	; 0x70
   818d6:	2b10      	cmp	r3, #16
   818d8:	d005      	beq.n	818e6 <SystemCoreClockUpdate+0xc2>
   818da:	2b20      	cmp	r3, #32
   818dc:	d1ea      	bne.n	818b4 <SystemCoreClockUpdate+0x90>
   818de:	4a12      	ldr	r2, [pc, #72]	; (81928 <SystemCoreClockUpdate+0x104>)
   818e0:	4b10      	ldr	r3, [pc, #64]	; (81924 <SystemCoreClockUpdate+0x100>)
   818e2:	601a      	str	r2, [r3, #0]
   818e4:	e7e6      	b.n	818b4 <SystemCoreClockUpdate+0x90>
   818e6:	4a12      	ldr	r2, [pc, #72]	; (81930 <SystemCoreClockUpdate+0x10c>)
   818e8:	4b0e      	ldr	r3, [pc, #56]	; (81924 <SystemCoreClockUpdate+0x100>)
   818ea:	601a      	str	r2, [r3, #0]
   818ec:	e7e2      	b.n	818b4 <SystemCoreClockUpdate+0x90>
   818ee:	4a0b      	ldr	r2, [pc, #44]	; (8191c <SystemCoreClockUpdate+0xf8>)
   818f0:	6a91      	ldr	r1, [r2, #40]	; 0x28
   818f2:	6a92      	ldr	r2, [r2, #40]	; 0x28
   818f4:	480b      	ldr	r0, [pc, #44]	; (81924 <SystemCoreClockUpdate+0x100>)
   818f6:	f3c1 410a 	ubfx	r1, r1, #16, #11
   818fa:	6803      	ldr	r3, [r0, #0]
   818fc:	fb01 3303 	mla	r3, r1, r3, r3
   81900:	b2d2      	uxtb	r2, r2
   81902:	fbb3 f3f2 	udiv	r3, r3, r2
   81906:	6003      	str	r3, [r0, #0]
   81908:	e7a1      	b.n	8184e <SystemCoreClockUpdate+0x2a>
   8190a:	4a06      	ldr	r2, [pc, #24]	; (81924 <SystemCoreClockUpdate+0x100>)
   8190c:	6813      	ldr	r3, [r2, #0]
   8190e:	490a      	ldr	r1, [pc, #40]	; (81938 <SystemCoreClockUpdate+0x114>)
   81910:	fba1 1303 	umull	r1, r3, r1, r3
   81914:	085b      	lsrs	r3, r3, #1
   81916:	6013      	str	r3, [r2, #0]
   81918:	4770      	bx	lr
   8191a:	bf00      	nop
   8191c:	400e0600 	.word	0x400e0600
   81920:	400e1a10 	.word	0x400e1a10
   81924:	20070130 	.word	0x20070130
   81928:	00b71b00 	.word	0x00b71b00
   8192c:	003d0900 	.word	0x003d0900
   81930:	007a1200 	.word	0x007a1200
   81934:	0e4e1c00 	.word	0x0e4e1c00
   81938:	aaaaaaab 	.word	0xaaaaaaab

0008193c <_sbrk>:
   8193c:	4b0a      	ldr	r3, [pc, #40]	; (81968 <_sbrk+0x2c>)
   8193e:	681b      	ldr	r3, [r3, #0]
   81940:	b153      	cbz	r3, 81958 <_sbrk+0x1c>
   81942:	4b09      	ldr	r3, [pc, #36]	; (81968 <_sbrk+0x2c>)
   81944:	681b      	ldr	r3, [r3, #0]
   81946:	181a      	adds	r2, r3, r0
   81948:	4908      	ldr	r1, [pc, #32]	; (8196c <_sbrk+0x30>)
   8194a:	4291      	cmp	r1, r2
   8194c:	db08      	blt.n	81960 <_sbrk+0x24>
   8194e:	4610      	mov	r0, r2
   81950:	4a05      	ldr	r2, [pc, #20]	; (81968 <_sbrk+0x2c>)
   81952:	6010      	str	r0, [r2, #0]
   81954:	4618      	mov	r0, r3
   81956:	4770      	bx	lr
   81958:	4a05      	ldr	r2, [pc, #20]	; (81970 <_sbrk+0x34>)
   8195a:	4b03      	ldr	r3, [pc, #12]	; (81968 <_sbrk+0x2c>)
   8195c:	601a      	str	r2, [r3, #0]
   8195e:	e7f0      	b.n	81942 <_sbrk+0x6>
   81960:	f04f 30ff 	mov.w	r0, #4294967295
   81964:	4770      	bx	lr
   81966:	bf00      	nop
   81968:	20070d00 	.word	0x20070d00
   8196c:	20087ffc 	.word	0x20087ffc
   81970:	20074788 	.word	0x20074788

00081974 <_close>:
   81974:	f04f 30ff 	mov.w	r0, #4294967295
   81978:	4770      	bx	lr

0008197a <_fstat>:
   8197a:	f44f 5300 	mov.w	r3, #8192	; 0x2000
   8197e:	604b      	str	r3, [r1, #4]
   81980:	2000      	movs	r0, #0
   81982:	4770      	bx	lr

00081984 <_isatty>:
   81984:	2001      	movs	r0, #1
   81986:	4770      	bx	lr

00081988 <_lseek>:
   81988:	2000      	movs	r0, #0
   8198a:	4770      	bx	lr

0008198c <configure_tc>:
int configureDone = 0; // define and initialize external variable
                       // initialization goes only with definition
					   // Only one source file may define the external variable, and definition is done only ONCE

void configure_tc(void)
{
   8198c:	b510      	push	{r4, lr}
	/* Configure PMC */
	pmc_enable_periph_clk(ID_TC0);
   8198e:	201b      	movs	r0, #27
   81990:	4b0a      	ldr	r3, [pc, #40]	; (819bc <configure_tc+0x30>)
   81992:	4798      	blx	r3
	/* Configure TC for a 500 kHz frequency and trigger on RC compare. */
	tc_init(TC0, 0, 0 | TC_CMR_CPCTRG);			//Timer_clock_1 - MCK/2 - 42 MHz (internal clock signal)
   81994:	4c0a      	ldr	r4, [pc, #40]	; (819c0 <configure_tc+0x34>)
   81996:	f44f 4280 	mov.w	r2, #16384	; 0x4000
   8199a:	2100      	movs	r1, #0
   8199c:	4620      	mov	r0, r4
   8199e:	4b09      	ldr	r3, [pc, #36]	; (819c4 <configure_tc+0x38>)
   819a0:	4798      	blx	r3
	tc_write_rc(TC0, 0, 6300000);				// corresponds to 150 ms 	//84 corresponds to fs = 500 kHz (42 MHz/84 = 500 kHz)
   819a2:	4a09      	ldr	r2, [pc, #36]	; (819c8 <configure_tc+0x3c>)
   819a4:	2100      	movs	r1, #0
   819a6:	4620      	mov	r0, r4
   819a8:	4b08      	ldr	r3, [pc, #32]	; (819cc <configure_tc+0x40>)
   819aa:	4798      	blx	r3
   819ac:	f04f 6200 	mov.w	r2, #134217728	; 0x8000000
   819b0:	4b07      	ldr	r3, [pc, #28]	; (819d0 <configure_tc+0x44>)
   819b2:	601a      	str	r2, [r3, #0]
	 * in each channel and can provide a trigger when the counter value matches the RC value.
	 */
	NVIC_EnableIRQ((IRQn_Type) ID_TC0);
	//tc_enable_interrupt(TC0, 0, TC_IER_CPCS); //CPCS is 5th bit (nr 4) in  TC Interrupt Enable Register (TC_IER0, ch 0: 0x40080024)
	//tc_start(TC0, 0);
	configureDone = 1;
   819b4:	2201      	movs	r2, #1
   819b6:	4b07      	ldr	r3, [pc, #28]	; (819d4 <configure_tc+0x48>)
   819b8:	601a      	str	r2, [r3, #0]
   819ba:	bd10      	pop	{r4, pc}
   819bc:	00081735 	.word	0x00081735
   819c0:	40080000 	.word	0x40080000
   819c4:	00080fb1 	.word	0x00080fb1
   819c8:	00602160 	.word	0x00602160
   819cc:	00080fe1 	.word	0x00080fe1
   819d0:	e000e100 	.word	0xe000e100
   819d4:	20070d04 	.word	0x20070d04

000819d8 <usart_serial_getchar>:
{
   819d8:	b5f0      	push	{r4, r5, r6, r7, lr}
   819da:	b083      	sub	sp, #12
   819dc:	4604      	mov	r4, r0
   819de:	460d      	mov	r5, r1
	uint32_t val = 0;
   819e0:	2300      	movs	r3, #0
   819e2:	9301      	str	r3, [sp, #4]
	if (UART == (Uart*)p_usart) {
   819e4:	4b20      	ldr	r3, [pc, #128]	; (81a68 <usart_serial_getchar+0x90>)
   819e6:	4298      	cmp	r0, r3
   819e8:	d00d      	beq.n	81a06 <usart_serial_getchar+0x2e>
	if (USART0 == p_usart) {
   819ea:	4b20      	ldr	r3, [pc, #128]	; (81a6c <usart_serial_getchar+0x94>)
   819ec:	4298      	cmp	r0, r3
   819ee:	d012      	beq.n	81a16 <usart_serial_getchar+0x3e>
	if (USART1 == p_usart) {
   819f0:	4b1f      	ldr	r3, [pc, #124]	; (81a70 <usart_serial_getchar+0x98>)
   819f2:	4298      	cmp	r0, r3
   819f4:	d019      	beq.n	81a2a <usart_serial_getchar+0x52>
	if (USART2 == p_usart) {
   819f6:	4b1f      	ldr	r3, [pc, #124]	; (81a74 <usart_serial_getchar+0x9c>)
   819f8:	429c      	cmp	r4, r3
   819fa:	d020      	beq.n	81a3e <usart_serial_getchar+0x66>
	if (USART3 == p_usart) {
   819fc:	4b1e      	ldr	r3, [pc, #120]	; (81a78 <usart_serial_getchar+0xa0>)
   819fe:	429c      	cmp	r4, r3
   81a00:	d027      	beq.n	81a52 <usart_serial_getchar+0x7a>
		*data = (uint8_t)(val & 0xFF);
	}
# endif
#endif /* ifdef USART */

}
   81a02:	b003      	add	sp, #12
   81a04:	bdf0      	pop	{r4, r5, r6, r7, pc}
		while (uart_read((Uart*)p_usart, data));
   81a06:	461f      	mov	r7, r3
   81a08:	4e1c      	ldr	r6, [pc, #112]	; (81a7c <usart_serial_getchar+0xa4>)
   81a0a:	4629      	mov	r1, r5
   81a0c:	4638      	mov	r0, r7
   81a0e:	47b0      	blx	r6
   81a10:	2800      	cmp	r0, #0
   81a12:	d1fa      	bne.n	81a0a <usart_serial_getchar+0x32>
   81a14:	e7ef      	b.n	819f6 <usart_serial_getchar+0x1e>
		while (usart_read(p_usart, &val));
   81a16:	461f      	mov	r7, r3
   81a18:	4e19      	ldr	r6, [pc, #100]	; (81a80 <usart_serial_getchar+0xa8>)
   81a1a:	a901      	add	r1, sp, #4
   81a1c:	4638      	mov	r0, r7
   81a1e:	47b0      	blx	r6
   81a20:	2800      	cmp	r0, #0
   81a22:	d1fa      	bne.n	81a1a <usart_serial_getchar+0x42>
		*data = (uint8_t)(val & 0xFF);
   81a24:	9b01      	ldr	r3, [sp, #4]
   81a26:	702b      	strb	r3, [r5, #0]
   81a28:	e7e8      	b.n	819fc <usart_serial_getchar+0x24>
		while (usart_read(p_usart, &val));
   81a2a:	461e      	mov	r6, r3
   81a2c:	4c14      	ldr	r4, [pc, #80]	; (81a80 <usart_serial_getchar+0xa8>)
   81a2e:	a901      	add	r1, sp, #4
   81a30:	4630      	mov	r0, r6
   81a32:	47a0      	blx	r4
   81a34:	2800      	cmp	r0, #0
   81a36:	d1fa      	bne.n	81a2e <usart_serial_getchar+0x56>
		*data = (uint8_t)(val & 0xFF);
   81a38:	9b01      	ldr	r3, [sp, #4]
   81a3a:	702b      	strb	r3, [r5, #0]
   81a3c:	e7e1      	b.n	81a02 <usart_serial_getchar+0x2a>
		while (usart_read(p_usart, &val));
   81a3e:	461e      	mov	r6, r3
   81a40:	4c0f      	ldr	r4, [pc, #60]	; (81a80 <usart_serial_getchar+0xa8>)
   81a42:	a901      	add	r1, sp, #4
   81a44:	4630      	mov	r0, r6
   81a46:	47a0      	blx	r4
   81a48:	2800      	cmp	r0, #0
   81a4a:	d1fa      	bne.n	81a42 <usart_serial_getchar+0x6a>
		*data = (uint8_t)(val & 0xFF);
   81a4c:	9b01      	ldr	r3, [sp, #4]
   81a4e:	702b      	strb	r3, [r5, #0]
   81a50:	e7d7      	b.n	81a02 <usart_serial_getchar+0x2a>
		while (usart_read(p_usart, &val));
   81a52:	461e      	mov	r6, r3
   81a54:	4c0a      	ldr	r4, [pc, #40]	; (81a80 <usart_serial_getchar+0xa8>)
   81a56:	a901      	add	r1, sp, #4
   81a58:	4630      	mov	r0, r6
   81a5a:	47a0      	blx	r4
   81a5c:	2800      	cmp	r0, #0
   81a5e:	d1fa      	bne.n	81a56 <usart_serial_getchar+0x7e>
		*data = (uint8_t)(val & 0xFF);
   81a60:	9b01      	ldr	r3, [sp, #4]
   81a62:	702b      	strb	r3, [r5, #0]
}
   81a64:	e7cd      	b.n	81a02 <usart_serial_getchar+0x2a>
   81a66:	bf00      	nop
   81a68:	400e0800 	.word	0x400e0800
   81a6c:	40098000 	.word	0x40098000
   81a70:	4009c000 	.word	0x4009c000
   81a74:	400a0000 	.word	0x400a0000
   81a78:	400a4000 	.word	0x400a4000
   81a7c:	000811e3 	.word	0x000811e3
   81a80:	0008100d 	.word	0x0008100d

00081a84 <usart_serial_putchar>:
{
   81a84:	b570      	push	{r4, r5, r6, lr}
   81a86:	460c      	mov	r4, r1
	if (UART == (Uart*)p_usart) {
   81a88:	4b1e      	ldr	r3, [pc, #120]	; (81b04 <usart_serial_putchar+0x80>)
   81a8a:	4298      	cmp	r0, r3
   81a8c:	d00d      	beq.n	81aaa <usart_serial_putchar+0x26>
	if (USART0 == p_usart) {
   81a8e:	4b1e      	ldr	r3, [pc, #120]	; (81b08 <usart_serial_putchar+0x84>)
   81a90:	4298      	cmp	r0, r3
   81a92:	d013      	beq.n	81abc <usart_serial_putchar+0x38>
	if (USART1 == p_usart) {
   81a94:	4b1d      	ldr	r3, [pc, #116]	; (81b0c <usart_serial_putchar+0x88>)
   81a96:	4298      	cmp	r0, r3
   81a98:	d019      	beq.n	81ace <usart_serial_putchar+0x4a>
	if (USART2 == p_usart) {
   81a9a:	4b1d      	ldr	r3, [pc, #116]	; (81b10 <usart_serial_putchar+0x8c>)
   81a9c:	4298      	cmp	r0, r3
   81a9e:	d01f      	beq.n	81ae0 <usart_serial_putchar+0x5c>
	if (USART3 == p_usart) {
   81aa0:	4b1c      	ldr	r3, [pc, #112]	; (81b14 <usart_serial_putchar+0x90>)
   81aa2:	4298      	cmp	r0, r3
   81aa4:	d025      	beq.n	81af2 <usart_serial_putchar+0x6e>
	return 0;
   81aa6:	2000      	movs	r0, #0
}
   81aa8:	bd70      	pop	{r4, r5, r6, pc}
		while (uart_write((Uart*)p_usart, c)!=0);
   81aaa:	461e      	mov	r6, r3
   81aac:	4d1a      	ldr	r5, [pc, #104]	; (81b18 <usart_serial_putchar+0x94>)
   81aae:	4621      	mov	r1, r4
   81ab0:	4630      	mov	r0, r6
   81ab2:	47a8      	blx	r5
   81ab4:	2800      	cmp	r0, #0
   81ab6:	d1fa      	bne.n	81aae <usart_serial_putchar+0x2a>
		return 1;
   81ab8:	2001      	movs	r0, #1
   81aba:	bd70      	pop	{r4, r5, r6, pc}
		while (usart_write(p_usart, c)!=0);
   81abc:	461e      	mov	r6, r3
   81abe:	4d17      	ldr	r5, [pc, #92]	; (81b1c <usart_serial_putchar+0x98>)
   81ac0:	4621      	mov	r1, r4
   81ac2:	4630      	mov	r0, r6
   81ac4:	47a8      	blx	r5
   81ac6:	2800      	cmp	r0, #0
   81ac8:	d1fa      	bne.n	81ac0 <usart_serial_putchar+0x3c>
		return 1;
   81aca:	2001      	movs	r0, #1
   81acc:	bd70      	pop	{r4, r5, r6, pc}
		while (usart_write(p_usart, c)!=0);
   81ace:	461e      	mov	r6, r3
   81ad0:	4d12      	ldr	r5, [pc, #72]	; (81b1c <usart_serial_putchar+0x98>)
   81ad2:	4621      	mov	r1, r4
   81ad4:	4630      	mov	r0, r6
   81ad6:	47a8      	blx	r5
   81ad8:	2800      	cmp	r0, #0
   81ada:	d1fa      	bne.n	81ad2 <usart_serial_putchar+0x4e>
		return 1;
   81adc:	2001      	movs	r0, #1
   81ade:	bd70      	pop	{r4, r5, r6, pc}
		while (usart_write(p_usart, c)!=0);
   81ae0:	461e      	mov	r6, r3
   81ae2:	4d0e      	ldr	r5, [pc, #56]	; (81b1c <usart_serial_putchar+0x98>)
   81ae4:	4621      	mov	r1, r4
   81ae6:	4630      	mov	r0, r6
   81ae8:	47a8      	blx	r5
   81aea:	2800      	cmp	r0, #0
   81aec:	d1fa      	bne.n	81ae4 <usart_serial_putchar+0x60>
		return 1;
   81aee:	2001      	movs	r0, #1
   81af0:	bd70      	pop	{r4, r5, r6, pc}
		while (usart_write(p_usart, c)!=0);
   81af2:	461e      	mov	r6, r3
   81af4:	4d09      	ldr	r5, [pc, #36]	; (81b1c <usart_serial_putchar+0x98>)
   81af6:	4621      	mov	r1, r4
   81af8:	4630      	mov	r0, r6
   81afa:	47a8      	blx	r5
   81afc:	2800      	cmp	r0, #0
   81afe:	d1fa      	bne.n	81af6 <usart_serial_putchar+0x72>
		return 1;
   81b00:	2001      	movs	r0, #1
   81b02:	bd70      	pop	{r4, r5, r6, pc}
   81b04:	400e0800 	.word	0x400e0800
   81b08:	40098000 	.word	0x40098000
   81b0c:	4009c000 	.word	0x4009c000
   81b10:	400a0000 	.word	0x400a0000
   81b14:	400a4000 	.word	0x400a4000
   81b18:	000811d3 	.word	0x000811d3
   81b1c:	00080ff9 	.word	0x00080ff9

00081b20 <main>:
	}
	return (uint32_t)diffVal;
}

int main (void)
{
   81b20:	b500      	push	{lr}
   81b22:	b085      	sub	sp, #20
	sysclk_init();
   81b24:	4b21      	ldr	r3, [pc, #132]	; (81bac <main+0x8c>)
   81b26:	4798      	blx	r3
	board_init();
   81b28:	4b21      	ldr	r3, [pc, #132]	; (81bb0 <main+0x90>)
   81b2a:	4798      	blx	r3
 *
 * \param ul_id Id (number) of the peripheral clock.
 */
static inline void sysclk_enable_peripheral_clock(uint32_t ul_id)
{
	pmc_enable_periph_clk(ul_id);
   81b2c:	200b      	movs	r0, #11
   81b2e:	4c21      	ldr	r4, [pc, #132]	; (81bb4 <main+0x94>)
   81b30:	47a0      	blx	r4
   81b32:	200c      	movs	r0, #12
   81b34:	47a0      	blx	r4
   81b36:	200d      	movs	r0, #13
   81b38:	47a0      	blx	r4
   81b3a:	200e      	movs	r0, #14
   81b3c:	47a0      	blx	r4
   81b3e:	2008      	movs	r0, #8
   81b40:	47a0      	blx	r4
 * \param opt         Options needed to set up RS232 communication (see \ref usart_options_t).
 *
 */
static inline void stdio_serial_init(volatile void *usart, const usart_serial_options_t *opt)
{
	stdio_base = (void *)usart;
   81b42:	4d1d      	ldr	r5, [pc, #116]	; (81bb8 <main+0x98>)
   81b44:	4b1d      	ldr	r3, [pc, #116]	; (81bbc <main+0x9c>)
   81b46:	601d      	str	r5, [r3, #0]
	ptr_put = (int (*)(void volatile*,char))&usart_serial_putchar;
   81b48:	4a1d      	ldr	r2, [pc, #116]	; (81bc0 <main+0xa0>)
   81b4a:	4b1e      	ldr	r3, [pc, #120]	; (81bc4 <main+0xa4>)
   81b4c:	601a      	str	r2, [r3, #0]
	ptr_get = (void (*)(void volatile*,char*))&usart_serial_getchar;
   81b4e:	4a1e      	ldr	r2, [pc, #120]	; (81bc8 <main+0xa8>)
   81b50:	4b1e      	ldr	r3, [pc, #120]	; (81bcc <main+0xac>)
   81b52:	601a      	str	r2, [r3, #0]
	uart_settings.ul_mck = sysclk_get_peripheral_hz();
   81b54:	4b1e      	ldr	r3, [pc, #120]	; (81bd0 <main+0xb0>)
   81b56:	9301      	str	r3, [sp, #4]
	uart_settings.ul_baudrate = opt->baudrate;
   81b58:	f44f 5316 	mov.w	r3, #9600	; 0x2580
   81b5c:	9302      	str	r3, [sp, #8]
	uart_settings.ul_mode = opt->paritytype;
   81b5e:	f44f 6300 	mov.w	r3, #2048	; 0x800
   81b62:	9303      	str	r3, [sp, #12]
   81b64:	2008      	movs	r0, #8
   81b66:	47a0      	blx	r4
		uart_init((Uart*)p_usart, &uart_settings);
   81b68:	a901      	add	r1, sp, #4
   81b6a:	4628      	mov	r0, r5
   81b6c:	4b19      	ldr	r3, [pc, #100]	; (81bd4 <main+0xb4>)
   81b6e:	4798      	blx	r3
	fdevopen((int (*)(char, FILE*))(_write),(int (*)(FILE*))(_read));
#  endif
#  if UC3 || SAM
	// For AVR32 and SAM GCC
	// Specify that stdout and stdin should not be buffered.
	setbuf(stdout, NULL);
   81b70:	4d19      	ldr	r5, [pc, #100]	; (81bd8 <main+0xb8>)
   81b72:	682b      	ldr	r3, [r5, #0]
   81b74:	2100      	movs	r1, #0
   81b76:	6898      	ldr	r0, [r3, #8]
   81b78:	4c18      	ldr	r4, [pc, #96]	; (81bdc <main+0xbc>)
   81b7a:	47a0      	blx	r4
	setbuf(stdin, NULL);
   81b7c:	682b      	ldr	r3, [r5, #0]
   81b7e:	2100      	movs	r1, #0
   81b80:	6858      	ldr	r0, [r3, #4]
   81b82:	47a0      	blx	r4
	printf("Console ready\n");
   81b84:	4816      	ldr	r0, [pc, #88]	; (81be0 <main+0xc0>)
   81b86:	4c17      	ldr	r4, [pc, #92]	; (81be4 <main+0xc4>)
   81b88:	47a0      	blx	r4
	printf("=============\n");
   81b8a:	4817      	ldr	r0, [pc, #92]	; (81be8 <main+0xc8>)
   81b8c:	47a0      	blx	r4
	
	//char buf[20];
	//scanf("%s", buf);
	//if (strcmp(buf, "Hi") == 0){
		
		tdoa_init();
   81b8e:	4b17      	ldr	r3, [pc, #92]	; (81bec <main+0xcc>)
   81b90:	4798      	blx	r3
		//adc_setup();
		configure_tc();
   81b92:	4c17      	ldr	r4, [pc, #92]	; (81bf0 <main+0xd0>)
   81b94:	47a0      	blx	r4
		base->PIO_OER = arch_ioport_pin_to_mask(pin);
   81b96:	4b17      	ldr	r3, [pc, #92]	; (81bf4 <main+0xd4>)
   81b98:	2201      	movs	r2, #1
   81b9a:	611a      	str	r2, [r3, #16]
	base->PIO_OWER = arch_ioport_pin_to_mask(pin);
   81b9c:	f8c3 20a0 	str.w	r2, [r3, #160]	; 0xa0
		ioport_set_pin_dir(CHECK_PIN, IOPORT_DIR_OUTPUT);
		TC1_init();
   81ba0:	4b15      	ldr	r3, [pc, #84]	; (81bf8 <main+0xd8>)
   81ba2:	4798      	blx	r3
		configure_tc();
   81ba4:	47a0      	blx	r4
		init_amplitude_trigger();
   81ba6:	4b15      	ldr	r3, [pc, #84]	; (81bfc <main+0xdc>)
   81ba8:	4798      	blx	r3
   81baa:	e7fe      	b.n	81baa <main+0x8a>
   81bac:	000811f5 	.word	0x000811f5
   81bb0:	00081259 	.word	0x00081259
   81bb4:	00081735 	.word	0x00081735
   81bb8:	400e0800 	.word	0x400e0800
   81bbc:	20072758 	.word	0x20072758
   81bc0:	00081a85 	.word	0x00081a85
   81bc4:	20072754 	.word	0x20072754
   81bc8:	000819d9 	.word	0x000819d9
   81bcc:	20072750 	.word	0x20072750
   81bd0:	0501bd00 	.word	0x0501bd00
   81bd4:	0008119d 	.word	0x0008119d
   81bd8:	20070138 	.word	0x20070138
   81bdc:	00083315 	.word	0x00083315
   81be0:	000887b0 	.word	0x000887b0
   81be4:	00082cc1 	.word	0x00082cc1
   81be8:	000887c0 	.word	0x000887c0
   81bec:	00080199 	.word	0x00080199
   81bf0:	0008198d 	.word	0x0008198d
   81bf4:	400e1400 	.word	0x400e1400
   81bf8:	00080bad 	.word	0x00080bad
   81bfc:	00080e41 	.word	0x00080e41

00081c00 <sqrt>:
   81c00:	e92d 4ff0 	stmdb	sp!, {r4, r5, r6, r7, r8, r9, sl, fp, lr}
   81c04:	b08b      	sub	sp, #44	; 0x2c
   81c06:	4604      	mov	r4, r0
   81c08:	460d      	mov	r5, r1
   81c0a:	f000 f857 	bl	81cbc <__ieee754_sqrt>
   81c0e:	4b29      	ldr	r3, [pc, #164]	; (81cb4 <sqrt+0xb4>)
   81c10:	4606      	mov	r6, r0
   81c12:	f993 a000 	ldrsb.w	sl, [r3]
   81c16:	460f      	mov	r7, r1
   81c18:	f1ba 3fff 	cmp.w	sl, #4294967295
   81c1c:	d012      	beq.n	81c44 <sqrt+0x44>
   81c1e:	4622      	mov	r2, r4
   81c20:	462b      	mov	r3, r5
   81c22:	4620      	mov	r0, r4
   81c24:	4629      	mov	r1, r5
   81c26:	f000 fd59 	bl	826dc <__aeabi_dcmpun>
   81c2a:	4683      	mov	fp, r0
   81c2c:	b950      	cbnz	r0, 81c44 <sqrt+0x44>
   81c2e:	f04f 0800 	mov.w	r8, #0
   81c32:	f04f 0900 	mov.w	r9, #0
   81c36:	4620      	mov	r0, r4
   81c38:	4629      	mov	r1, r5
   81c3a:	4642      	mov	r2, r8
   81c3c:	464b      	mov	r3, r9
   81c3e:	f000 fd25 	bl	8268c <__aeabi_dcmplt>
   81c42:	b920      	cbnz	r0, 81c4e <sqrt+0x4e>
   81c44:	4630      	mov	r0, r6
   81c46:	4639      	mov	r1, r7
   81c48:	b00b      	add	sp, #44	; 0x2c
   81c4a:	e8bd 8ff0 	ldmia.w	sp!, {r4, r5, r6, r7, r8, r9, sl, fp, pc}
   81c4e:	2201      	movs	r2, #1
   81c50:	4b19      	ldr	r3, [pc, #100]	; (81cb8 <sqrt+0xb8>)
   81c52:	f8cd b020 	str.w	fp, [sp, #32]
   81c56:	e9cd 4504 	strd	r4, r5, [sp, #16]
   81c5a:	e9cd 4502 	strd	r4, r5, [sp, #8]
   81c5e:	e88d 000c 	stmia.w	sp, {r2, r3}
   81c62:	f1ba 0f00 	cmp.w	sl, #0
   81c66:	d017      	beq.n	81c98 <sqrt+0x98>
   81c68:	4642      	mov	r2, r8
   81c6a:	464b      	mov	r3, r9
   81c6c:	4640      	mov	r0, r8
   81c6e:	4649      	mov	r1, r9
   81c70:	f000 fbc4 	bl	823fc <__aeabi_ddiv>
   81c74:	f1ba 0f02 	cmp.w	sl, #2
   81c78:	e9cd 0106 	strd	r0, r1, [sp, #24]
   81c7c:	d10e      	bne.n	81c9c <sqrt+0x9c>
   81c7e:	f000 fff1 	bl	82c64 <__errno>
   81c82:	2321      	movs	r3, #33	; 0x21
   81c84:	6003      	str	r3, [r0, #0]
   81c86:	9b08      	ldr	r3, [sp, #32]
   81c88:	b973      	cbnz	r3, 81ca8 <sqrt+0xa8>
   81c8a:	e9dd 6706 	ldrd	r6, r7, [sp, #24]
   81c8e:	4630      	mov	r0, r6
   81c90:	4639      	mov	r1, r7
   81c92:	b00b      	add	sp, #44	; 0x2c
   81c94:	e8bd 8ff0 	ldmia.w	sp!, {r4, r5, r6, r7, r8, r9, sl, fp, pc}
   81c98:	e9cd 8906 	strd	r8, r9, [sp, #24]
   81c9c:	4668      	mov	r0, sp
   81c9e:	f000 f8c9 	bl	81e34 <matherr>
   81ca2:	2800      	cmp	r0, #0
   81ca4:	d1ef      	bne.n	81c86 <sqrt+0x86>
   81ca6:	e7ea      	b.n	81c7e <sqrt+0x7e>
   81ca8:	f000 ffdc 	bl	82c64 <__errno>
   81cac:	9b08      	ldr	r3, [sp, #32]
   81cae:	6003      	str	r3, [r0, #0]
   81cb0:	e7eb      	b.n	81c8a <sqrt+0x8a>
   81cb2:	bf00      	nop
   81cb4:	20070134 	.word	0x20070134
   81cb8:	000887d0 	.word	0x000887d0

00081cbc <__ieee754_sqrt>:
   81cbc:	e92d 43f8 	stmdb	sp!, {r3, r4, r5, r6, r7, r8, r9, lr}
   81cc0:	4f5b      	ldr	r7, [pc, #364]	; (81e30 <__ieee754_sqrt+0x174>)
   81cc2:	4605      	mov	r5, r0
   81cc4:	438f      	bics	r7, r1
   81cc6:	460c      	mov	r4, r1
   81cc8:	f000 8092 	beq.w	81df0 <__ieee754_sqrt+0x134>
   81ccc:	2900      	cmp	r1, #0
   81cce:	460b      	mov	r3, r1
   81cd0:	4602      	mov	r2, r0
   81cd2:	dd6f      	ble.n	81db4 <__ieee754_sqrt+0xf8>
   81cd4:	150f      	asrs	r7, r1, #20
   81cd6:	d07b      	beq.n	81dd0 <__ieee754_sqrt+0x114>
   81cd8:	f2a7 37ff 	subw	r7, r7, #1023	; 0x3ff
   81cdc:	f3c3 0313 	ubfx	r3, r3, #0, #20
   81ce0:	07f8      	lsls	r0, r7, #31
   81ce2:	f443 1380 	orr.w	r3, r3, #1048576	; 0x100000
   81ce6:	d45c      	bmi.n	81da2 <__ieee754_sqrt+0xe6>
   81ce8:	2600      	movs	r6, #0
   81cea:	2016      	movs	r0, #22
   81cec:	46b6      	mov	lr, r6
   81cee:	f44f 1100 	mov.w	r1, #2097152	; 0x200000
   81cf2:	eb03 74d2 	add.w	r4, r3, r2, lsr #31
   81cf6:	107f      	asrs	r7, r7, #1
   81cf8:	4423      	add	r3, r4
   81cfa:	0052      	lsls	r2, r2, #1
   81cfc:	eb0e 0401 	add.w	r4, lr, r1
   81d00:	429c      	cmp	r4, r3
   81d02:	ea4f 75d2 	mov.w	r5, r2, lsr #31
   81d06:	ea4f 0242 	mov.w	r2, r2, lsl #1
   81d0a:	dc03      	bgt.n	81d14 <__ieee754_sqrt+0x58>
   81d0c:	1b1b      	subs	r3, r3, r4
   81d0e:	eb04 0e01 	add.w	lr, r4, r1
   81d12:	440e      	add	r6, r1
   81d14:	3801      	subs	r0, #1
   81d16:	eb05 0343 	add.w	r3, r5, r3, lsl #1
   81d1a:	ea4f 0151 	mov.w	r1, r1, lsr #1
   81d1e:	d1ed      	bne.n	81cfc <__ieee754_sqrt+0x40>
   81d20:	2420      	movs	r4, #32
   81d22:	4684      	mov	ip, r0
   81d24:	f04f 4100 	mov.w	r1, #2147483648	; 0x80000000
   81d28:	e009      	b.n	81d3e <__ieee754_sqrt+0x82>
   81d2a:	d020      	beq.n	81d6e <__ieee754_sqrt+0xb2>
   81d2c:	eb03 75d2 	add.w	r5, r3, r2, lsr #31
   81d30:	3c01      	subs	r4, #1
   81d32:	ea4f 0151 	mov.w	r1, r1, lsr #1
   81d36:	442b      	add	r3, r5
   81d38:	ea4f 0242 	mov.w	r2, r2, lsl #1
   81d3c:	d020      	beq.n	81d80 <__ieee754_sqrt+0xc4>
   81d3e:	4573      	cmp	r3, lr
   81d40:	eb01 050c 	add.w	r5, r1, ip
   81d44:	ddf1      	ble.n	81d2a <__ieee754_sqrt+0x6e>
   81d46:	2d00      	cmp	r5, #0
   81d48:	eb05 0c01 	add.w	ip, r5, r1
   81d4c:	db09      	blt.n	81d62 <__ieee754_sqrt+0xa6>
   81d4e:	46f0      	mov	r8, lr
   81d50:	4295      	cmp	r5, r2
   81d52:	eba3 030e 	sub.w	r3, r3, lr
   81d56:	d900      	bls.n	81d5a <__ieee754_sqrt+0x9e>
   81d58:	3b01      	subs	r3, #1
   81d5a:	46c6      	mov	lr, r8
   81d5c:	1b52      	subs	r2, r2, r5
   81d5e:	4408      	add	r0, r1
   81d60:	e7e4      	b.n	81d2c <__ieee754_sqrt+0x70>
   81d62:	f1bc 0f00 	cmp.w	ip, #0
   81d66:	dbf2      	blt.n	81d4e <__ieee754_sqrt+0x92>
   81d68:	f10e 0801 	add.w	r8, lr, #1
   81d6c:	e7f0      	b.n	81d50 <__ieee754_sqrt+0x94>
   81d6e:	4295      	cmp	r5, r2
   81d70:	d8dc      	bhi.n	81d2c <__ieee754_sqrt+0x70>
   81d72:	2d00      	cmp	r5, #0
   81d74:	eb05 0c01 	add.w	ip, r5, r1
   81d78:	db44      	blt.n	81e04 <__ieee754_sqrt+0x148>
   81d7a:	4698      	mov	r8, r3
   81d7c:	2300      	movs	r3, #0
   81d7e:	e7ec      	b.n	81d5a <__ieee754_sqrt+0x9e>
   81d80:	4313      	orrs	r3, r2
   81d82:	d113      	bne.n	81dac <__ieee754_sqrt+0xf0>
   81d84:	0840      	lsrs	r0, r0, #1
   81d86:	1073      	asrs	r3, r6, #1
   81d88:	f103 537f 	add.w	r3, r3, #1069547520	; 0x3fc00000
   81d8c:	f503 1300 	add.w	r3, r3, #2097152	; 0x200000
   81d90:	eb03 5907 	add.w	r9, r3, r7, lsl #20
   81d94:	4649      	mov	r1, r9
   81d96:	07f2      	lsls	r2, r6, #31
   81d98:	bf48      	it	mi
   81d9a:	f040 4000 	orrmi.w	r0, r0, #2147483648	; 0x80000000
   81d9e:	e8bd 83f8 	ldmia.w	sp!, {r3, r4, r5, r6, r7, r8, r9, pc}
   81da2:	005b      	lsls	r3, r3, #1
   81da4:	eb03 73d2 	add.w	r3, r3, r2, lsr #31
   81da8:	0052      	lsls	r2, r2, #1
   81daa:	e79d      	b.n	81ce8 <__ieee754_sqrt+0x2c>
   81dac:	1c41      	adds	r1, r0, #1
   81dae:	d02d      	beq.n	81e0c <__ieee754_sqrt+0x150>
   81db0:	3001      	adds	r0, #1
   81db2:	e7e7      	b.n	81d84 <__ieee754_sqrt+0xc8>
   81db4:	4606      	mov	r6, r0
   81db6:	f021 4700 	bic.w	r7, r1, #2147483648	; 0x80000000
   81dba:	433e      	orrs	r6, r7
   81dbc:	d0ef      	beq.n	81d9e <__ieee754_sqrt+0xe2>
   81dbe:	bb69      	cbnz	r1, 81e1c <__ieee754_sqrt+0x160>
   81dc0:	460f      	mov	r7, r1
   81dc2:	0ad3      	lsrs	r3, r2, #11
   81dc4:	3f15      	subs	r7, #21
   81dc6:	0552      	lsls	r2, r2, #21
   81dc8:	2b00      	cmp	r3, #0
   81dca:	d0fa      	beq.n	81dc2 <__ieee754_sqrt+0x106>
   81dcc:	02de      	lsls	r6, r3, #11
   81dce:	d420      	bmi.n	81e12 <__ieee754_sqrt+0x156>
   81dd0:	2400      	movs	r4, #0
   81dd2:	e000      	b.n	81dd6 <__ieee754_sqrt+0x11a>
   81dd4:	4604      	mov	r4, r0
   81dd6:	005b      	lsls	r3, r3, #1
   81dd8:	02dd      	lsls	r5, r3, #11
   81dda:	f104 0001 	add.w	r0, r4, #1
   81dde:	d5f9      	bpl.n	81dd4 <__ieee754_sqrt+0x118>
   81de0:	f1c0 0120 	rsb	r1, r0, #32
   81de4:	fa22 f101 	lsr.w	r1, r2, r1
   81de8:	430b      	orrs	r3, r1
   81dea:	1b3f      	subs	r7, r7, r4
   81dec:	4082      	lsls	r2, r0
   81dee:	e773      	b.n	81cd8 <__ieee754_sqrt+0x1c>
   81df0:	4602      	mov	r2, r0
   81df2:	460b      	mov	r3, r1
   81df4:	f000 f9d8 	bl	821a8 <__aeabi_dmul>
   81df8:	462a      	mov	r2, r5
   81dfa:	4623      	mov	r3, r4
   81dfc:	f000 f822 	bl	81e44 <__adddf3>
   81e00:	e8bd 83f8 	ldmia.w	sp!, {r3, r4, r5, r6, r7, r8, r9, pc}
   81e04:	f1bc 0f00 	cmp.w	ip, #0
   81e08:	daae      	bge.n	81d68 <__ieee754_sqrt+0xac>
   81e0a:	e7b6      	b.n	81d7a <__ieee754_sqrt+0xbe>
   81e0c:	3601      	adds	r6, #1
   81e0e:	4620      	mov	r0, r4
   81e10:	e7b9      	b.n	81d86 <__ieee754_sqrt+0xca>
   81e12:	2000      	movs	r0, #0
   81e14:	2120      	movs	r1, #32
   81e16:	f04f 34ff 	mov.w	r4, #4294967295
   81e1a:	e7e3      	b.n	81de4 <__ieee754_sqrt+0x128>
   81e1c:	4602      	mov	r2, r0
   81e1e:	460b      	mov	r3, r1
   81e20:	f000 f80e 	bl	81e40 <__aeabi_dsub>
   81e24:	4602      	mov	r2, r0
   81e26:	460b      	mov	r3, r1
   81e28:	f000 fae8 	bl	823fc <__aeabi_ddiv>
   81e2c:	e7b7      	b.n	81d9e <__ieee754_sqrt+0xe2>
   81e2e:	bf00      	nop
   81e30:	7ff00000 	.word	0x7ff00000

00081e34 <matherr>:
   81e34:	2000      	movs	r0, #0
   81e36:	4770      	bx	lr

00081e38 <__aeabi_drsub>:
   81e38:	f081 4100 	eor.w	r1, r1, #2147483648	; 0x80000000
   81e3c:	e002      	b.n	81e44 <__adddf3>
   81e3e:	bf00      	nop

00081e40 <__aeabi_dsub>:
   81e40:	f083 4300 	eor.w	r3, r3, #2147483648	; 0x80000000

00081e44 <__adddf3>:
   81e44:	b530      	push	{r4, r5, lr}
   81e46:	ea4f 0441 	mov.w	r4, r1, lsl #1
   81e4a:	ea4f 0543 	mov.w	r5, r3, lsl #1
   81e4e:	ea94 0f05 	teq	r4, r5
   81e52:	bf08      	it	eq
   81e54:	ea90 0f02 	teqeq	r0, r2
   81e58:	bf1f      	itttt	ne
   81e5a:	ea54 0c00 	orrsne.w	ip, r4, r0
   81e5e:	ea55 0c02 	orrsne.w	ip, r5, r2
   81e62:	ea7f 5c64 	mvnsne.w	ip, r4, asr #21
   81e66:	ea7f 5c65 	mvnsne.w	ip, r5, asr #21
   81e6a:	f000 80e2 	beq.w	82032 <__adddf3+0x1ee>
   81e6e:	ea4f 5454 	mov.w	r4, r4, lsr #21
   81e72:	ebd4 5555 	rsbs	r5, r4, r5, lsr #21
   81e76:	bfb8      	it	lt
   81e78:	426d      	neglt	r5, r5
   81e7a:	dd0c      	ble.n	81e96 <__adddf3+0x52>
   81e7c:	442c      	add	r4, r5
   81e7e:	ea80 0202 	eor.w	r2, r0, r2
   81e82:	ea81 0303 	eor.w	r3, r1, r3
   81e86:	ea82 0000 	eor.w	r0, r2, r0
   81e8a:	ea83 0101 	eor.w	r1, r3, r1
   81e8e:	ea80 0202 	eor.w	r2, r0, r2
   81e92:	ea81 0303 	eor.w	r3, r1, r3
   81e96:	2d36      	cmp	r5, #54	; 0x36
   81e98:	bf88      	it	hi
   81e9a:	bd30      	pophi	{r4, r5, pc}
   81e9c:	f011 4f00 	tst.w	r1, #2147483648	; 0x80000000
   81ea0:	ea4f 3101 	mov.w	r1, r1, lsl #12
   81ea4:	f44f 1c80 	mov.w	ip, #1048576	; 0x100000
   81ea8:	ea4c 3111 	orr.w	r1, ip, r1, lsr #12
   81eac:	d002      	beq.n	81eb4 <__adddf3+0x70>
   81eae:	4240      	negs	r0, r0
   81eb0:	eb61 0141 	sbc.w	r1, r1, r1, lsl #1
   81eb4:	f013 4f00 	tst.w	r3, #2147483648	; 0x80000000
   81eb8:	ea4f 3303 	mov.w	r3, r3, lsl #12
   81ebc:	ea4c 3313 	orr.w	r3, ip, r3, lsr #12
   81ec0:	d002      	beq.n	81ec8 <__adddf3+0x84>
   81ec2:	4252      	negs	r2, r2
   81ec4:	eb63 0343 	sbc.w	r3, r3, r3, lsl #1
   81ec8:	ea94 0f05 	teq	r4, r5
   81ecc:	f000 80a7 	beq.w	8201e <__adddf3+0x1da>
   81ed0:	f1a4 0401 	sub.w	r4, r4, #1
   81ed4:	f1d5 0e20 	rsbs	lr, r5, #32
   81ed8:	db0d      	blt.n	81ef6 <__adddf3+0xb2>
   81eda:	fa02 fc0e 	lsl.w	ip, r2, lr
   81ede:	fa22 f205 	lsr.w	r2, r2, r5
   81ee2:	1880      	adds	r0, r0, r2
   81ee4:	f141 0100 	adc.w	r1, r1, #0
   81ee8:	fa03 f20e 	lsl.w	r2, r3, lr
   81eec:	1880      	adds	r0, r0, r2
   81eee:	fa43 f305 	asr.w	r3, r3, r5
   81ef2:	4159      	adcs	r1, r3
   81ef4:	e00e      	b.n	81f14 <__adddf3+0xd0>
   81ef6:	f1a5 0520 	sub.w	r5, r5, #32
   81efa:	f10e 0e20 	add.w	lr, lr, #32
   81efe:	2a01      	cmp	r2, #1
   81f00:	fa03 fc0e 	lsl.w	ip, r3, lr
   81f04:	bf28      	it	cs
   81f06:	f04c 0c02 	orrcs.w	ip, ip, #2
   81f0a:	fa43 f305 	asr.w	r3, r3, r5
   81f0e:	18c0      	adds	r0, r0, r3
   81f10:	eb51 71e3 	adcs.w	r1, r1, r3, asr #31
   81f14:	f001 4500 	and.w	r5, r1, #2147483648	; 0x80000000
   81f18:	d507      	bpl.n	81f2a <__adddf3+0xe6>
   81f1a:	f04f 0e00 	mov.w	lr, #0
   81f1e:	f1dc 0c00 	rsbs	ip, ip, #0
   81f22:	eb7e 0000 	sbcs.w	r0, lr, r0
   81f26:	eb6e 0101 	sbc.w	r1, lr, r1
   81f2a:	f5b1 1f80 	cmp.w	r1, #1048576	; 0x100000
   81f2e:	d31b      	bcc.n	81f68 <__adddf3+0x124>
   81f30:	f5b1 1f00 	cmp.w	r1, #2097152	; 0x200000
   81f34:	d30c      	bcc.n	81f50 <__adddf3+0x10c>
   81f36:	0849      	lsrs	r1, r1, #1
   81f38:	ea5f 0030 	movs.w	r0, r0, rrx
   81f3c:	ea4f 0c3c 	mov.w	ip, ip, rrx
   81f40:	f104 0401 	add.w	r4, r4, #1
   81f44:	ea4f 5244 	mov.w	r2, r4, lsl #21
   81f48:	f512 0f80 	cmn.w	r2, #4194304	; 0x400000
   81f4c:	f080 809a 	bcs.w	82084 <__adddf3+0x240>
   81f50:	f1bc 4f00 	cmp.w	ip, #2147483648	; 0x80000000
   81f54:	bf08      	it	eq
   81f56:	ea5f 0c50 	movseq.w	ip, r0, lsr #1
   81f5a:	f150 0000 	adcs.w	r0, r0, #0
   81f5e:	eb41 5104 	adc.w	r1, r1, r4, lsl #20
   81f62:	ea41 0105 	orr.w	r1, r1, r5
   81f66:	bd30      	pop	{r4, r5, pc}
   81f68:	ea5f 0c4c 	movs.w	ip, ip, lsl #1
   81f6c:	4140      	adcs	r0, r0
   81f6e:	eb41 0101 	adc.w	r1, r1, r1
   81f72:	f411 1f80 	tst.w	r1, #1048576	; 0x100000
   81f76:	f1a4 0401 	sub.w	r4, r4, #1
   81f7a:	d1e9      	bne.n	81f50 <__adddf3+0x10c>
   81f7c:	f091 0f00 	teq	r1, #0
   81f80:	bf04      	itt	eq
   81f82:	4601      	moveq	r1, r0
   81f84:	2000      	moveq	r0, #0
   81f86:	fab1 f381 	clz	r3, r1
   81f8a:	bf08      	it	eq
   81f8c:	3320      	addeq	r3, #32
   81f8e:	f1a3 030b 	sub.w	r3, r3, #11
   81f92:	f1b3 0220 	subs.w	r2, r3, #32
   81f96:	da0c      	bge.n	81fb2 <__adddf3+0x16e>
   81f98:	320c      	adds	r2, #12
   81f9a:	dd08      	ble.n	81fae <__adddf3+0x16a>
   81f9c:	f102 0c14 	add.w	ip, r2, #20
   81fa0:	f1c2 020c 	rsb	r2, r2, #12
   81fa4:	fa01 f00c 	lsl.w	r0, r1, ip
   81fa8:	fa21 f102 	lsr.w	r1, r1, r2
   81fac:	e00c      	b.n	81fc8 <__adddf3+0x184>
   81fae:	f102 0214 	add.w	r2, r2, #20
   81fb2:	bfd8      	it	le
   81fb4:	f1c2 0c20 	rsble	ip, r2, #32
   81fb8:	fa01 f102 	lsl.w	r1, r1, r2
   81fbc:	fa20 fc0c 	lsr.w	ip, r0, ip
   81fc0:	bfdc      	itt	le
   81fc2:	ea41 010c 	orrle.w	r1, r1, ip
   81fc6:	4090      	lslle	r0, r2
   81fc8:	1ae4      	subs	r4, r4, r3
   81fca:	bfa2      	ittt	ge
   81fcc:	eb01 5104 	addge.w	r1, r1, r4, lsl #20
   81fd0:	4329      	orrge	r1, r5
   81fd2:	bd30      	popge	{r4, r5, pc}
   81fd4:	ea6f 0404 	mvn.w	r4, r4
   81fd8:	3c1f      	subs	r4, #31
   81fda:	da1c      	bge.n	82016 <__adddf3+0x1d2>
   81fdc:	340c      	adds	r4, #12
   81fde:	dc0e      	bgt.n	81ffe <__adddf3+0x1ba>
   81fe0:	f104 0414 	add.w	r4, r4, #20
   81fe4:	f1c4 0220 	rsb	r2, r4, #32
   81fe8:	fa20 f004 	lsr.w	r0, r0, r4
   81fec:	fa01 f302 	lsl.w	r3, r1, r2
   81ff0:	ea40 0003 	orr.w	r0, r0, r3
   81ff4:	fa21 f304 	lsr.w	r3, r1, r4
   81ff8:	ea45 0103 	orr.w	r1, r5, r3
   81ffc:	bd30      	pop	{r4, r5, pc}
   81ffe:	f1c4 040c 	rsb	r4, r4, #12
   82002:	f1c4 0220 	rsb	r2, r4, #32
   82006:	fa20 f002 	lsr.w	r0, r0, r2
   8200a:	fa01 f304 	lsl.w	r3, r1, r4
   8200e:	ea40 0003 	orr.w	r0, r0, r3
   82012:	4629      	mov	r1, r5
   82014:	bd30      	pop	{r4, r5, pc}
   82016:	fa21 f004 	lsr.w	r0, r1, r4
   8201a:	4629      	mov	r1, r5
   8201c:	bd30      	pop	{r4, r5, pc}
   8201e:	f094 0f00 	teq	r4, #0
   82022:	f483 1380 	eor.w	r3, r3, #1048576	; 0x100000
   82026:	bf06      	itte	eq
   82028:	f481 1180 	eoreq.w	r1, r1, #1048576	; 0x100000
   8202c:	3401      	addeq	r4, #1
   8202e:	3d01      	subne	r5, #1
   82030:	e74e      	b.n	81ed0 <__adddf3+0x8c>
   82032:	ea7f 5c64 	mvns.w	ip, r4, asr #21
   82036:	bf18      	it	ne
   82038:	ea7f 5c65 	mvnsne.w	ip, r5, asr #21
   8203c:	d029      	beq.n	82092 <__adddf3+0x24e>
   8203e:	ea94 0f05 	teq	r4, r5
   82042:	bf08      	it	eq
   82044:	ea90 0f02 	teqeq	r0, r2
   82048:	d005      	beq.n	82056 <__adddf3+0x212>
   8204a:	ea54 0c00 	orrs.w	ip, r4, r0
   8204e:	bf04      	itt	eq
   82050:	4619      	moveq	r1, r3
   82052:	4610      	moveq	r0, r2
   82054:	bd30      	pop	{r4, r5, pc}
   82056:	ea91 0f03 	teq	r1, r3
   8205a:	bf1e      	ittt	ne
   8205c:	2100      	movne	r1, #0
   8205e:	2000      	movne	r0, #0
   82060:	bd30      	popne	{r4, r5, pc}
   82062:	ea5f 5c54 	movs.w	ip, r4, lsr #21
   82066:	d105      	bne.n	82074 <__adddf3+0x230>
   82068:	0040      	lsls	r0, r0, #1
   8206a:	4149      	adcs	r1, r1
   8206c:	bf28      	it	cs
   8206e:	f041 4100 	orrcs.w	r1, r1, #2147483648	; 0x80000000
   82072:	bd30      	pop	{r4, r5, pc}
   82074:	f514 0480 	adds.w	r4, r4, #4194304	; 0x400000
   82078:	bf3c      	itt	cc
   8207a:	f501 1180 	addcc.w	r1, r1, #1048576	; 0x100000
   8207e:	bd30      	popcc	{r4, r5, pc}
   82080:	f001 4500 	and.w	r5, r1, #2147483648	; 0x80000000
   82084:	f045 41fe 	orr.w	r1, r5, #2130706432	; 0x7f000000
   82088:	f441 0170 	orr.w	r1, r1, #15728640	; 0xf00000
   8208c:	f04f 0000 	mov.w	r0, #0
   82090:	bd30      	pop	{r4, r5, pc}
   82092:	ea7f 5c64 	mvns.w	ip, r4, asr #21
   82096:	bf1a      	itte	ne
   82098:	4619      	movne	r1, r3
   8209a:	4610      	movne	r0, r2
   8209c:	ea7f 5c65 	mvnseq.w	ip, r5, asr #21
   820a0:	bf1c      	itt	ne
   820a2:	460b      	movne	r3, r1
   820a4:	4602      	movne	r2, r0
   820a6:	ea50 3401 	orrs.w	r4, r0, r1, lsl #12
   820aa:	bf06      	itte	eq
   820ac:	ea52 3503 	orrseq.w	r5, r2, r3, lsl #12
   820b0:	ea91 0f03 	teqeq	r1, r3
   820b4:	f441 2100 	orrne.w	r1, r1, #524288	; 0x80000
   820b8:	bd30      	pop	{r4, r5, pc}
   820ba:	bf00      	nop

000820bc <__aeabi_ui2d>:
   820bc:	f090 0f00 	teq	r0, #0
   820c0:	bf04      	itt	eq
   820c2:	2100      	moveq	r1, #0
   820c4:	4770      	bxeq	lr
   820c6:	b530      	push	{r4, r5, lr}
   820c8:	f44f 6480 	mov.w	r4, #1024	; 0x400
   820cc:	f104 0432 	add.w	r4, r4, #50	; 0x32
   820d0:	f04f 0500 	mov.w	r5, #0
   820d4:	f04f 0100 	mov.w	r1, #0
   820d8:	e750      	b.n	81f7c <__adddf3+0x138>
   820da:	bf00      	nop

000820dc <__aeabi_i2d>:
   820dc:	f090 0f00 	teq	r0, #0
   820e0:	bf04      	itt	eq
   820e2:	2100      	moveq	r1, #0
   820e4:	4770      	bxeq	lr
   820e6:	b530      	push	{r4, r5, lr}
   820e8:	f44f 6480 	mov.w	r4, #1024	; 0x400
   820ec:	f104 0432 	add.w	r4, r4, #50	; 0x32
   820f0:	f010 4500 	ands.w	r5, r0, #2147483648	; 0x80000000
   820f4:	bf48      	it	mi
   820f6:	4240      	negmi	r0, r0
   820f8:	f04f 0100 	mov.w	r1, #0
   820fc:	e73e      	b.n	81f7c <__adddf3+0x138>
   820fe:	bf00      	nop

00082100 <__aeabi_f2d>:
   82100:	0042      	lsls	r2, r0, #1
   82102:	ea4f 01e2 	mov.w	r1, r2, asr #3
   82106:	ea4f 0131 	mov.w	r1, r1, rrx
   8210a:	ea4f 7002 	mov.w	r0, r2, lsl #28
   8210e:	bf1f      	itttt	ne
   82110:	f012 437f 	andsne.w	r3, r2, #4278190080	; 0xff000000
   82114:	f093 4f7f 	teqne	r3, #4278190080	; 0xff000000
   82118:	f081 5160 	eorne.w	r1, r1, #939524096	; 0x38000000
   8211c:	4770      	bxne	lr
   8211e:	f092 0f00 	teq	r2, #0
   82122:	bf14      	ite	ne
   82124:	f093 4f7f 	teqne	r3, #4278190080	; 0xff000000
   82128:	4770      	bxeq	lr
   8212a:	b530      	push	{r4, r5, lr}
   8212c:	f44f 7460 	mov.w	r4, #896	; 0x380
   82130:	f001 4500 	and.w	r5, r1, #2147483648	; 0x80000000
   82134:	f021 4100 	bic.w	r1, r1, #2147483648	; 0x80000000
   82138:	e720      	b.n	81f7c <__adddf3+0x138>
   8213a:	bf00      	nop

0008213c <__aeabi_ul2d>:
   8213c:	ea50 0201 	orrs.w	r2, r0, r1
   82140:	bf08      	it	eq
   82142:	4770      	bxeq	lr
   82144:	b530      	push	{r4, r5, lr}
   82146:	f04f 0500 	mov.w	r5, #0
   8214a:	e00a      	b.n	82162 <__aeabi_l2d+0x16>

0008214c <__aeabi_l2d>:
   8214c:	ea50 0201 	orrs.w	r2, r0, r1
   82150:	bf08      	it	eq
   82152:	4770      	bxeq	lr
   82154:	b530      	push	{r4, r5, lr}
   82156:	f011 4500 	ands.w	r5, r1, #2147483648	; 0x80000000
   8215a:	d502      	bpl.n	82162 <__aeabi_l2d+0x16>
   8215c:	4240      	negs	r0, r0
   8215e:	eb61 0141 	sbc.w	r1, r1, r1, lsl #1
   82162:	f44f 6480 	mov.w	r4, #1024	; 0x400
   82166:	f104 0432 	add.w	r4, r4, #50	; 0x32
   8216a:	ea5f 5c91 	movs.w	ip, r1, lsr #22
   8216e:	f43f aedc 	beq.w	81f2a <__adddf3+0xe6>
   82172:	f04f 0203 	mov.w	r2, #3
   82176:	ea5f 0cdc 	movs.w	ip, ip, lsr #3
   8217a:	bf18      	it	ne
   8217c:	3203      	addne	r2, #3
   8217e:	ea5f 0cdc 	movs.w	ip, ip, lsr #3
   82182:	bf18      	it	ne
   82184:	3203      	addne	r2, #3
   82186:	eb02 02dc 	add.w	r2, r2, ip, lsr #3
   8218a:	f1c2 0320 	rsb	r3, r2, #32
   8218e:	fa00 fc03 	lsl.w	ip, r0, r3
   82192:	fa20 f002 	lsr.w	r0, r0, r2
   82196:	fa01 fe03 	lsl.w	lr, r1, r3
   8219a:	ea40 000e 	orr.w	r0, r0, lr
   8219e:	fa21 f102 	lsr.w	r1, r1, r2
   821a2:	4414      	add	r4, r2
   821a4:	e6c1      	b.n	81f2a <__adddf3+0xe6>
   821a6:	bf00      	nop

000821a8 <__aeabi_dmul>:
   821a8:	b570      	push	{r4, r5, r6, lr}
   821aa:	f04f 0cff 	mov.w	ip, #255	; 0xff
   821ae:	f44c 6ce0 	orr.w	ip, ip, #1792	; 0x700
   821b2:	ea1c 5411 	ands.w	r4, ip, r1, lsr #20
   821b6:	bf1d      	ittte	ne
   821b8:	ea1c 5513 	andsne.w	r5, ip, r3, lsr #20
   821bc:	ea94 0f0c 	teqne	r4, ip
   821c0:	ea95 0f0c 	teqne	r5, ip
   821c4:	f000 f8de 	bleq	82384 <__aeabi_dmul+0x1dc>
   821c8:	442c      	add	r4, r5
   821ca:	ea81 0603 	eor.w	r6, r1, r3
   821ce:	ea21 514c 	bic.w	r1, r1, ip, lsl #21
   821d2:	ea23 534c 	bic.w	r3, r3, ip, lsl #21
   821d6:	ea50 3501 	orrs.w	r5, r0, r1, lsl #12
   821da:	bf18      	it	ne
   821dc:	ea52 3503 	orrsne.w	r5, r2, r3, lsl #12
   821e0:	f441 1180 	orr.w	r1, r1, #1048576	; 0x100000
   821e4:	f443 1380 	orr.w	r3, r3, #1048576	; 0x100000
   821e8:	d038      	beq.n	8225c <__aeabi_dmul+0xb4>
   821ea:	fba0 ce02 	umull	ip, lr, r0, r2
   821ee:	f04f 0500 	mov.w	r5, #0
   821f2:	fbe1 e502 	umlal	lr, r5, r1, r2
   821f6:	f006 4200 	and.w	r2, r6, #2147483648	; 0x80000000
   821fa:	fbe0 e503 	umlal	lr, r5, r0, r3
   821fe:	f04f 0600 	mov.w	r6, #0
   82202:	fbe1 5603 	umlal	r5, r6, r1, r3
   82206:	f09c 0f00 	teq	ip, #0
   8220a:	bf18      	it	ne
   8220c:	f04e 0e01 	orrne.w	lr, lr, #1
   82210:	f1a4 04ff 	sub.w	r4, r4, #255	; 0xff
   82214:	f5b6 7f00 	cmp.w	r6, #512	; 0x200
   82218:	f564 7440 	sbc.w	r4, r4, #768	; 0x300
   8221c:	d204      	bcs.n	82228 <__aeabi_dmul+0x80>
   8221e:	ea5f 0e4e 	movs.w	lr, lr, lsl #1
   82222:	416d      	adcs	r5, r5
   82224:	eb46 0606 	adc.w	r6, r6, r6
   82228:	ea42 21c6 	orr.w	r1, r2, r6, lsl #11
   8222c:	ea41 5155 	orr.w	r1, r1, r5, lsr #21
   82230:	ea4f 20c5 	mov.w	r0, r5, lsl #11
   82234:	ea40 505e 	orr.w	r0, r0, lr, lsr #21
   82238:	ea4f 2ece 	mov.w	lr, lr, lsl #11
   8223c:	f1b4 0cfd 	subs.w	ip, r4, #253	; 0xfd
   82240:	bf88      	it	hi
   82242:	f5bc 6fe0 	cmphi.w	ip, #1792	; 0x700
   82246:	d81e      	bhi.n	82286 <__aeabi_dmul+0xde>
   82248:	f1be 4f00 	cmp.w	lr, #2147483648	; 0x80000000
   8224c:	bf08      	it	eq
   8224e:	ea5f 0e50 	movseq.w	lr, r0, lsr #1
   82252:	f150 0000 	adcs.w	r0, r0, #0
   82256:	eb41 5104 	adc.w	r1, r1, r4, lsl #20
   8225a:	bd70      	pop	{r4, r5, r6, pc}
   8225c:	f006 4600 	and.w	r6, r6, #2147483648	; 0x80000000
   82260:	ea46 0101 	orr.w	r1, r6, r1
   82264:	ea40 0002 	orr.w	r0, r0, r2
   82268:	ea81 0103 	eor.w	r1, r1, r3
   8226c:	ebb4 045c 	subs.w	r4, r4, ip, lsr #1
   82270:	bfc2      	ittt	gt
   82272:	ebd4 050c 	rsbsgt	r5, r4, ip
   82276:	ea41 5104 	orrgt.w	r1, r1, r4, lsl #20
   8227a:	bd70      	popgt	{r4, r5, r6, pc}
   8227c:	f441 1180 	orr.w	r1, r1, #1048576	; 0x100000
   82280:	f04f 0e00 	mov.w	lr, #0
   82284:	3c01      	subs	r4, #1
   82286:	f300 80ab 	bgt.w	823e0 <__aeabi_dmul+0x238>
   8228a:	f114 0f36 	cmn.w	r4, #54	; 0x36
   8228e:	bfde      	ittt	le
   82290:	2000      	movle	r0, #0
   82292:	f001 4100 	andle.w	r1, r1, #2147483648	; 0x80000000
   82296:	bd70      	pople	{r4, r5, r6, pc}
   82298:	f1c4 0400 	rsb	r4, r4, #0
   8229c:	3c20      	subs	r4, #32
   8229e:	da35      	bge.n	8230c <__aeabi_dmul+0x164>
   822a0:	340c      	adds	r4, #12
   822a2:	dc1b      	bgt.n	822dc <__aeabi_dmul+0x134>
   822a4:	f104 0414 	add.w	r4, r4, #20
   822a8:	f1c4 0520 	rsb	r5, r4, #32
   822ac:	fa00 f305 	lsl.w	r3, r0, r5
   822b0:	fa20 f004 	lsr.w	r0, r0, r4
   822b4:	fa01 f205 	lsl.w	r2, r1, r5
   822b8:	ea40 0002 	orr.w	r0, r0, r2
   822bc:	f001 4200 	and.w	r2, r1, #2147483648	; 0x80000000
   822c0:	f021 4100 	bic.w	r1, r1, #2147483648	; 0x80000000
   822c4:	eb10 70d3 	adds.w	r0, r0, r3, lsr #31
   822c8:	fa21 f604 	lsr.w	r6, r1, r4
   822cc:	eb42 0106 	adc.w	r1, r2, r6
   822d0:	ea5e 0e43 	orrs.w	lr, lr, r3, lsl #1
   822d4:	bf08      	it	eq
   822d6:	ea20 70d3 	biceq.w	r0, r0, r3, lsr #31
   822da:	bd70      	pop	{r4, r5, r6, pc}
   822dc:	f1c4 040c 	rsb	r4, r4, #12
   822e0:	f1c4 0520 	rsb	r5, r4, #32
   822e4:	fa00 f304 	lsl.w	r3, r0, r4
   822e8:	fa20 f005 	lsr.w	r0, r0, r5
   822ec:	fa01 f204 	lsl.w	r2, r1, r4
   822f0:	ea40 0002 	orr.w	r0, r0, r2
   822f4:	f001 4100 	and.w	r1, r1, #2147483648	; 0x80000000
   822f8:	eb10 70d3 	adds.w	r0, r0, r3, lsr #31
   822fc:	f141 0100 	adc.w	r1, r1, #0
   82300:	ea5e 0e43 	orrs.w	lr, lr, r3, lsl #1
   82304:	bf08      	it	eq
   82306:	ea20 70d3 	biceq.w	r0, r0, r3, lsr #31
   8230a:	bd70      	pop	{r4, r5, r6, pc}
   8230c:	f1c4 0520 	rsb	r5, r4, #32
   82310:	fa00 f205 	lsl.w	r2, r0, r5
   82314:	ea4e 0e02 	orr.w	lr, lr, r2
   82318:	fa20 f304 	lsr.w	r3, r0, r4
   8231c:	fa01 f205 	lsl.w	r2, r1, r5
   82320:	ea43 0302 	orr.w	r3, r3, r2
   82324:	fa21 f004 	lsr.w	r0, r1, r4
   82328:	f001 4100 	and.w	r1, r1, #2147483648	; 0x80000000
   8232c:	fa21 f204 	lsr.w	r2, r1, r4
   82330:	ea20 0002 	bic.w	r0, r0, r2
   82334:	eb00 70d3 	add.w	r0, r0, r3, lsr #31
   82338:	ea5e 0e43 	orrs.w	lr, lr, r3, lsl #1
   8233c:	bf08      	it	eq
   8233e:	ea20 70d3 	biceq.w	r0, r0, r3, lsr #31
   82342:	bd70      	pop	{r4, r5, r6, pc}
   82344:	f094 0f00 	teq	r4, #0
   82348:	d10f      	bne.n	8236a <__aeabi_dmul+0x1c2>
   8234a:	f001 4600 	and.w	r6, r1, #2147483648	; 0x80000000
   8234e:	0040      	lsls	r0, r0, #1
   82350:	eb41 0101 	adc.w	r1, r1, r1
   82354:	f411 1f80 	tst.w	r1, #1048576	; 0x100000
   82358:	bf08      	it	eq
   8235a:	3c01      	subeq	r4, #1
   8235c:	d0f7      	beq.n	8234e <__aeabi_dmul+0x1a6>
   8235e:	ea41 0106 	orr.w	r1, r1, r6
   82362:	f095 0f00 	teq	r5, #0
   82366:	bf18      	it	ne
   82368:	4770      	bxne	lr
   8236a:	f003 4600 	and.w	r6, r3, #2147483648	; 0x80000000
   8236e:	0052      	lsls	r2, r2, #1
   82370:	eb43 0303 	adc.w	r3, r3, r3
   82374:	f413 1f80 	tst.w	r3, #1048576	; 0x100000
   82378:	bf08      	it	eq
   8237a:	3d01      	subeq	r5, #1
   8237c:	d0f7      	beq.n	8236e <__aeabi_dmul+0x1c6>
   8237e:	ea43 0306 	orr.w	r3, r3, r6
   82382:	4770      	bx	lr
   82384:	ea94 0f0c 	teq	r4, ip
   82388:	ea0c 5513 	and.w	r5, ip, r3, lsr #20
   8238c:	bf18      	it	ne
   8238e:	ea95 0f0c 	teqne	r5, ip
   82392:	d00c      	beq.n	823ae <__aeabi_dmul+0x206>
   82394:	ea50 0641 	orrs.w	r6, r0, r1, lsl #1
   82398:	bf18      	it	ne
   8239a:	ea52 0643 	orrsne.w	r6, r2, r3, lsl #1
   8239e:	d1d1      	bne.n	82344 <__aeabi_dmul+0x19c>
   823a0:	ea81 0103 	eor.w	r1, r1, r3
   823a4:	f001 4100 	and.w	r1, r1, #2147483648	; 0x80000000
   823a8:	f04f 0000 	mov.w	r0, #0
   823ac:	bd70      	pop	{r4, r5, r6, pc}
   823ae:	ea50 0641 	orrs.w	r6, r0, r1, lsl #1
   823b2:	bf06      	itte	eq
   823b4:	4610      	moveq	r0, r2
   823b6:	4619      	moveq	r1, r3
   823b8:	ea52 0643 	orrsne.w	r6, r2, r3, lsl #1
   823bc:	d019      	beq.n	823f2 <__aeabi_dmul+0x24a>
   823be:	ea94 0f0c 	teq	r4, ip
   823c2:	d102      	bne.n	823ca <__aeabi_dmul+0x222>
   823c4:	ea50 3601 	orrs.w	r6, r0, r1, lsl #12
   823c8:	d113      	bne.n	823f2 <__aeabi_dmul+0x24a>
   823ca:	ea95 0f0c 	teq	r5, ip
   823ce:	d105      	bne.n	823dc <__aeabi_dmul+0x234>
   823d0:	ea52 3603 	orrs.w	r6, r2, r3, lsl #12
   823d4:	bf1c      	itt	ne
   823d6:	4610      	movne	r0, r2
   823d8:	4619      	movne	r1, r3
   823da:	d10a      	bne.n	823f2 <__aeabi_dmul+0x24a>
   823dc:	ea81 0103 	eor.w	r1, r1, r3
   823e0:	f001 4100 	and.w	r1, r1, #2147483648	; 0x80000000
   823e4:	f041 41fe 	orr.w	r1, r1, #2130706432	; 0x7f000000
   823e8:	f441 0170 	orr.w	r1, r1, #15728640	; 0xf00000
   823ec:	f04f 0000 	mov.w	r0, #0
   823f0:	bd70      	pop	{r4, r5, r6, pc}
   823f2:	f041 41fe 	orr.w	r1, r1, #2130706432	; 0x7f000000
   823f6:	f441 0178 	orr.w	r1, r1, #16252928	; 0xf80000
   823fa:	bd70      	pop	{r4, r5, r6, pc}

000823fc <__aeabi_ddiv>:
   823fc:	b570      	push	{r4, r5, r6, lr}
   823fe:	f04f 0cff 	mov.w	ip, #255	; 0xff
   82402:	f44c 6ce0 	orr.w	ip, ip, #1792	; 0x700
   82406:	ea1c 5411 	ands.w	r4, ip, r1, lsr #20
   8240a:	bf1d      	ittte	ne
   8240c:	ea1c 5513 	andsne.w	r5, ip, r3, lsr #20
   82410:	ea94 0f0c 	teqne	r4, ip
   82414:	ea95 0f0c 	teqne	r5, ip
   82418:	f000 f8a7 	bleq	8256a <__aeabi_ddiv+0x16e>
   8241c:	eba4 0405 	sub.w	r4, r4, r5
   82420:	ea81 0e03 	eor.w	lr, r1, r3
   82424:	ea52 3503 	orrs.w	r5, r2, r3, lsl #12
   82428:	ea4f 3101 	mov.w	r1, r1, lsl #12
   8242c:	f000 8088 	beq.w	82540 <__aeabi_ddiv+0x144>
   82430:	ea4f 3303 	mov.w	r3, r3, lsl #12
   82434:	f04f 5580 	mov.w	r5, #268435456	; 0x10000000
   82438:	ea45 1313 	orr.w	r3, r5, r3, lsr #4
   8243c:	ea43 6312 	orr.w	r3, r3, r2, lsr #24
   82440:	ea4f 2202 	mov.w	r2, r2, lsl #8
   82444:	ea45 1511 	orr.w	r5, r5, r1, lsr #4
   82448:	ea45 6510 	orr.w	r5, r5, r0, lsr #24
   8244c:	ea4f 2600 	mov.w	r6, r0, lsl #8
   82450:	f00e 4100 	and.w	r1, lr, #2147483648	; 0x80000000
   82454:	429d      	cmp	r5, r3
   82456:	bf08      	it	eq
   82458:	4296      	cmpeq	r6, r2
   8245a:	f144 04fd 	adc.w	r4, r4, #253	; 0xfd
   8245e:	f504 7440 	add.w	r4, r4, #768	; 0x300
   82462:	d202      	bcs.n	8246a <__aeabi_ddiv+0x6e>
   82464:	085b      	lsrs	r3, r3, #1
   82466:	ea4f 0232 	mov.w	r2, r2, rrx
   8246a:	1ab6      	subs	r6, r6, r2
   8246c:	eb65 0503 	sbc.w	r5, r5, r3
   82470:	085b      	lsrs	r3, r3, #1
   82472:	ea4f 0232 	mov.w	r2, r2, rrx
   82476:	f44f 1080 	mov.w	r0, #1048576	; 0x100000
   8247a:	f44f 2c00 	mov.w	ip, #524288	; 0x80000
   8247e:	ebb6 0e02 	subs.w	lr, r6, r2
   82482:	eb75 0e03 	sbcs.w	lr, r5, r3
   82486:	bf22      	ittt	cs
   82488:	1ab6      	subcs	r6, r6, r2
   8248a:	4675      	movcs	r5, lr
   8248c:	ea40 000c 	orrcs.w	r0, r0, ip
   82490:	085b      	lsrs	r3, r3, #1
   82492:	ea4f 0232 	mov.w	r2, r2, rrx
   82496:	ebb6 0e02 	subs.w	lr, r6, r2
   8249a:	eb75 0e03 	sbcs.w	lr, r5, r3
   8249e:	bf22      	ittt	cs
   824a0:	1ab6      	subcs	r6, r6, r2
   824a2:	4675      	movcs	r5, lr
   824a4:	ea40 005c 	orrcs.w	r0, r0, ip, lsr #1
   824a8:	085b      	lsrs	r3, r3, #1
   824aa:	ea4f 0232 	mov.w	r2, r2, rrx
   824ae:	ebb6 0e02 	subs.w	lr, r6, r2
   824b2:	eb75 0e03 	sbcs.w	lr, r5, r3
   824b6:	bf22      	ittt	cs
   824b8:	1ab6      	subcs	r6, r6, r2
   824ba:	4675      	movcs	r5, lr
   824bc:	ea40 009c 	orrcs.w	r0, r0, ip, lsr #2
   824c0:	085b      	lsrs	r3, r3, #1
   824c2:	ea4f 0232 	mov.w	r2, r2, rrx
   824c6:	ebb6 0e02 	subs.w	lr, r6, r2
   824ca:	eb75 0e03 	sbcs.w	lr, r5, r3
   824ce:	bf22      	ittt	cs
   824d0:	1ab6      	subcs	r6, r6, r2
   824d2:	4675      	movcs	r5, lr
   824d4:	ea40 00dc 	orrcs.w	r0, r0, ip, lsr #3
   824d8:	ea55 0e06 	orrs.w	lr, r5, r6
   824dc:	d018      	beq.n	82510 <__aeabi_ddiv+0x114>
   824de:	ea4f 1505 	mov.w	r5, r5, lsl #4
   824e2:	ea45 7516 	orr.w	r5, r5, r6, lsr #28
   824e6:	ea4f 1606 	mov.w	r6, r6, lsl #4
   824ea:	ea4f 03c3 	mov.w	r3, r3, lsl #3
   824ee:	ea43 7352 	orr.w	r3, r3, r2, lsr #29
   824f2:	ea4f 02c2 	mov.w	r2, r2, lsl #3
   824f6:	ea5f 1c1c 	movs.w	ip, ip, lsr #4
   824fa:	d1c0      	bne.n	8247e <__aeabi_ddiv+0x82>
   824fc:	f411 1f80 	tst.w	r1, #1048576	; 0x100000
   82500:	d10b      	bne.n	8251a <__aeabi_ddiv+0x11e>
   82502:	ea41 0100 	orr.w	r1, r1, r0
   82506:	f04f 0000 	mov.w	r0, #0
   8250a:	f04f 4c00 	mov.w	ip, #2147483648	; 0x80000000
   8250e:	e7b6      	b.n	8247e <__aeabi_ddiv+0x82>
   82510:	f411 1f80 	tst.w	r1, #1048576	; 0x100000
   82514:	bf04      	itt	eq
   82516:	4301      	orreq	r1, r0
   82518:	2000      	moveq	r0, #0
   8251a:	f1b4 0cfd 	subs.w	ip, r4, #253	; 0xfd
   8251e:	bf88      	it	hi
   82520:	f5bc 6fe0 	cmphi.w	ip, #1792	; 0x700
   82524:	f63f aeaf 	bhi.w	82286 <__aeabi_dmul+0xde>
   82528:	ebb5 0c03 	subs.w	ip, r5, r3
   8252c:	bf04      	itt	eq
   8252e:	ebb6 0c02 	subseq.w	ip, r6, r2
   82532:	ea5f 0c50 	movseq.w	ip, r0, lsr #1
   82536:	f150 0000 	adcs.w	r0, r0, #0
   8253a:	eb41 5104 	adc.w	r1, r1, r4, lsl #20
   8253e:	bd70      	pop	{r4, r5, r6, pc}
   82540:	f00e 4e00 	and.w	lr, lr, #2147483648	; 0x80000000
   82544:	ea4e 3111 	orr.w	r1, lr, r1, lsr #12
   82548:	eb14 045c 	adds.w	r4, r4, ip, lsr #1
   8254c:	bfc2      	ittt	gt
   8254e:	ebd4 050c 	rsbsgt	r5, r4, ip
   82552:	ea41 5104 	orrgt.w	r1, r1, r4, lsl #20
   82556:	bd70      	popgt	{r4, r5, r6, pc}
   82558:	f441 1180 	orr.w	r1, r1, #1048576	; 0x100000
   8255c:	f04f 0e00 	mov.w	lr, #0
   82560:	3c01      	subs	r4, #1
   82562:	e690      	b.n	82286 <__aeabi_dmul+0xde>
   82564:	ea45 0e06 	orr.w	lr, r5, r6
   82568:	e68d      	b.n	82286 <__aeabi_dmul+0xde>
   8256a:	ea0c 5513 	and.w	r5, ip, r3, lsr #20
   8256e:	ea94 0f0c 	teq	r4, ip
   82572:	bf08      	it	eq
   82574:	ea95 0f0c 	teqeq	r5, ip
   82578:	f43f af3b 	beq.w	823f2 <__aeabi_dmul+0x24a>
   8257c:	ea94 0f0c 	teq	r4, ip
   82580:	d10a      	bne.n	82598 <__aeabi_ddiv+0x19c>
   82582:	ea50 3401 	orrs.w	r4, r0, r1, lsl #12
   82586:	f47f af34 	bne.w	823f2 <__aeabi_dmul+0x24a>
   8258a:	ea95 0f0c 	teq	r5, ip
   8258e:	f47f af25 	bne.w	823dc <__aeabi_dmul+0x234>
   82592:	4610      	mov	r0, r2
   82594:	4619      	mov	r1, r3
   82596:	e72c      	b.n	823f2 <__aeabi_dmul+0x24a>
   82598:	ea95 0f0c 	teq	r5, ip
   8259c:	d106      	bne.n	825ac <__aeabi_ddiv+0x1b0>
   8259e:	ea52 3503 	orrs.w	r5, r2, r3, lsl #12
   825a2:	f43f aefd 	beq.w	823a0 <__aeabi_dmul+0x1f8>
   825a6:	4610      	mov	r0, r2
   825a8:	4619      	mov	r1, r3
   825aa:	e722      	b.n	823f2 <__aeabi_dmul+0x24a>
   825ac:	ea50 0641 	orrs.w	r6, r0, r1, lsl #1
   825b0:	bf18      	it	ne
   825b2:	ea52 0643 	orrsne.w	r6, r2, r3, lsl #1
   825b6:	f47f aec5 	bne.w	82344 <__aeabi_dmul+0x19c>
   825ba:	ea50 0441 	orrs.w	r4, r0, r1, lsl #1
   825be:	f47f af0d 	bne.w	823dc <__aeabi_dmul+0x234>
   825c2:	ea52 0543 	orrs.w	r5, r2, r3, lsl #1
   825c6:	f47f aeeb 	bne.w	823a0 <__aeabi_dmul+0x1f8>
   825ca:	e712      	b.n	823f2 <__aeabi_dmul+0x24a>

000825cc <__gedf2>:
   825cc:	f04f 3cff 	mov.w	ip, #4294967295
   825d0:	e006      	b.n	825e0 <__cmpdf2+0x4>
   825d2:	bf00      	nop

000825d4 <__ledf2>:
   825d4:	f04f 0c01 	mov.w	ip, #1
   825d8:	e002      	b.n	825e0 <__cmpdf2+0x4>
   825da:	bf00      	nop

000825dc <__cmpdf2>:
   825dc:	f04f 0c01 	mov.w	ip, #1
   825e0:	f84d cd04 	str.w	ip, [sp, #-4]!
   825e4:	ea4f 0c41 	mov.w	ip, r1, lsl #1
   825e8:	ea7f 5c6c 	mvns.w	ip, ip, asr #21
   825ec:	ea4f 0c43 	mov.w	ip, r3, lsl #1
   825f0:	bf18      	it	ne
   825f2:	ea7f 5c6c 	mvnsne.w	ip, ip, asr #21
   825f6:	d01b      	beq.n	82630 <__cmpdf2+0x54>
   825f8:	b001      	add	sp, #4
   825fa:	ea50 0c41 	orrs.w	ip, r0, r1, lsl #1
   825fe:	bf0c      	ite	eq
   82600:	ea52 0c43 	orrseq.w	ip, r2, r3, lsl #1
   82604:	ea91 0f03 	teqne	r1, r3
   82608:	bf02      	ittt	eq
   8260a:	ea90 0f02 	teqeq	r0, r2
   8260e:	2000      	moveq	r0, #0
   82610:	4770      	bxeq	lr
   82612:	f110 0f00 	cmn.w	r0, #0
   82616:	ea91 0f03 	teq	r1, r3
   8261a:	bf58      	it	pl
   8261c:	4299      	cmppl	r1, r3
   8261e:	bf08      	it	eq
   82620:	4290      	cmpeq	r0, r2
   82622:	bf2c      	ite	cs
   82624:	17d8      	asrcs	r0, r3, #31
   82626:	ea6f 70e3 	mvncc.w	r0, r3, asr #31
   8262a:	f040 0001 	orr.w	r0, r0, #1
   8262e:	4770      	bx	lr
   82630:	ea4f 0c41 	mov.w	ip, r1, lsl #1
   82634:	ea7f 5c6c 	mvns.w	ip, ip, asr #21
   82638:	d102      	bne.n	82640 <__cmpdf2+0x64>
   8263a:	ea50 3c01 	orrs.w	ip, r0, r1, lsl #12
   8263e:	d107      	bne.n	82650 <__cmpdf2+0x74>
   82640:	ea4f 0c43 	mov.w	ip, r3, lsl #1
   82644:	ea7f 5c6c 	mvns.w	ip, ip, asr #21
   82648:	d1d6      	bne.n	825f8 <__cmpdf2+0x1c>
   8264a:	ea52 3c03 	orrs.w	ip, r2, r3, lsl #12
   8264e:	d0d3      	beq.n	825f8 <__cmpdf2+0x1c>
   82650:	f85d 0b04 	ldr.w	r0, [sp], #4
   82654:	4770      	bx	lr
   82656:	bf00      	nop

00082658 <__aeabi_cdrcmple>:
   82658:	4684      	mov	ip, r0
   8265a:	4610      	mov	r0, r2
   8265c:	4662      	mov	r2, ip
   8265e:	468c      	mov	ip, r1
   82660:	4619      	mov	r1, r3
   82662:	4663      	mov	r3, ip
   82664:	e000      	b.n	82668 <__aeabi_cdcmpeq>
   82666:	bf00      	nop

00082668 <__aeabi_cdcmpeq>:
   82668:	b501      	push	{r0, lr}
   8266a:	f7ff ffb7 	bl	825dc <__cmpdf2>
   8266e:	2800      	cmp	r0, #0
   82670:	bf48      	it	mi
   82672:	f110 0f00 	cmnmi.w	r0, #0
   82676:	bd01      	pop	{r0, pc}

00082678 <__aeabi_dcmpeq>:
   82678:	f84d ed08 	str.w	lr, [sp, #-8]!
   8267c:	f7ff fff4 	bl	82668 <__aeabi_cdcmpeq>
   82680:	bf0c      	ite	eq
   82682:	2001      	moveq	r0, #1
   82684:	2000      	movne	r0, #0
   82686:	f85d fb08 	ldr.w	pc, [sp], #8
   8268a:	bf00      	nop

0008268c <__aeabi_dcmplt>:
   8268c:	f84d ed08 	str.w	lr, [sp, #-8]!
   82690:	f7ff ffea 	bl	82668 <__aeabi_cdcmpeq>
   82694:	bf34      	ite	cc
   82696:	2001      	movcc	r0, #1
   82698:	2000      	movcs	r0, #0
   8269a:	f85d fb08 	ldr.w	pc, [sp], #8
   8269e:	bf00      	nop

000826a0 <__aeabi_dcmple>:
   826a0:	f84d ed08 	str.w	lr, [sp, #-8]!
   826a4:	f7ff ffe0 	bl	82668 <__aeabi_cdcmpeq>
   826a8:	bf94      	ite	ls
   826aa:	2001      	movls	r0, #1
   826ac:	2000      	movhi	r0, #0
   826ae:	f85d fb08 	ldr.w	pc, [sp], #8
   826b2:	bf00      	nop

000826b4 <__aeabi_dcmpge>:
   826b4:	f84d ed08 	str.w	lr, [sp, #-8]!
   826b8:	f7ff ffce 	bl	82658 <__aeabi_cdrcmple>
   826bc:	bf94      	ite	ls
   826be:	2001      	movls	r0, #1
   826c0:	2000      	movhi	r0, #0
   826c2:	f85d fb08 	ldr.w	pc, [sp], #8
   826c6:	bf00      	nop

000826c8 <__aeabi_dcmpgt>:
   826c8:	f84d ed08 	str.w	lr, [sp, #-8]!
   826cc:	f7ff ffc4 	bl	82658 <__aeabi_cdrcmple>
   826d0:	bf34      	ite	cc
   826d2:	2001      	movcc	r0, #1
   826d4:	2000      	movcs	r0, #0
   826d6:	f85d fb08 	ldr.w	pc, [sp], #8
   826da:	bf00      	nop

000826dc <__aeabi_dcmpun>:
   826dc:	ea4f 0c41 	mov.w	ip, r1, lsl #1
   826e0:	ea7f 5c6c 	mvns.w	ip, ip, asr #21
   826e4:	d102      	bne.n	826ec <__aeabi_dcmpun+0x10>
   826e6:	ea50 3c01 	orrs.w	ip, r0, r1, lsl #12
   826ea:	d10a      	bne.n	82702 <__aeabi_dcmpun+0x26>
   826ec:	ea4f 0c43 	mov.w	ip, r3, lsl #1
   826f0:	ea7f 5c6c 	mvns.w	ip, ip, asr #21
   826f4:	d102      	bne.n	826fc <__aeabi_dcmpun+0x20>
   826f6:	ea52 3c03 	orrs.w	ip, r2, r3, lsl #12
   826fa:	d102      	bne.n	82702 <__aeabi_dcmpun+0x26>
   826fc:	f04f 0000 	mov.w	r0, #0
   82700:	4770      	bx	lr
   82702:	f04f 0001 	mov.w	r0, #1
   82706:	4770      	bx	lr

00082708 <__aeabi_d2f>:
   82708:	ea4f 0241 	mov.w	r2, r1, lsl #1
   8270c:	f1b2 43e0 	subs.w	r3, r2, #1879048192	; 0x70000000
   82710:	bf24      	itt	cs
   82712:	f5b3 1c00 	subscs.w	ip, r3, #2097152	; 0x200000
   82716:	f1dc 5cfe 	rsbscs	ip, ip, #532676608	; 0x1fc00000
   8271a:	d90d      	bls.n	82738 <__aeabi_d2f+0x30>
   8271c:	f001 4c00 	and.w	ip, r1, #2147483648	; 0x80000000
   82720:	ea4f 02c0 	mov.w	r2, r0, lsl #3
   82724:	ea4c 7050 	orr.w	r0, ip, r0, lsr #29
   82728:	f1b2 4f00 	cmp.w	r2, #2147483648	; 0x80000000
   8272c:	eb40 0083 	adc.w	r0, r0, r3, lsl #2
   82730:	bf08      	it	eq
   82732:	f020 0001 	biceq.w	r0, r0, #1
   82736:	4770      	bx	lr
   82738:	f011 4f80 	tst.w	r1, #1073741824	; 0x40000000
   8273c:	d121      	bne.n	82782 <__aeabi_d2f+0x7a>
   8273e:	f113 7238 	adds.w	r2, r3, #48234496	; 0x2e00000
   82742:	bfbc      	itt	lt
   82744:	f001 4000 	andlt.w	r0, r1, #2147483648	; 0x80000000
   82748:	4770      	bxlt	lr
   8274a:	f441 1180 	orr.w	r1, r1, #1048576	; 0x100000
   8274e:	ea4f 5252 	mov.w	r2, r2, lsr #21
   82752:	f1c2 0218 	rsb	r2, r2, #24
   82756:	f1c2 0c20 	rsb	ip, r2, #32
   8275a:	fa10 f30c 	lsls.w	r3, r0, ip
   8275e:	fa20 f002 	lsr.w	r0, r0, r2
   82762:	bf18      	it	ne
   82764:	f040 0001 	orrne.w	r0, r0, #1
   82768:	ea4f 23c1 	mov.w	r3, r1, lsl #11
   8276c:	ea4f 23d3 	mov.w	r3, r3, lsr #11
   82770:	fa03 fc0c 	lsl.w	ip, r3, ip
   82774:	ea40 000c 	orr.w	r0, r0, ip
   82778:	fa23 f302 	lsr.w	r3, r3, r2
   8277c:	ea4f 0343 	mov.w	r3, r3, lsl #1
   82780:	e7cc      	b.n	8271c <__aeabi_d2f+0x14>
   82782:	ea7f 5362 	mvns.w	r3, r2, asr #21
   82786:	d107      	bne.n	82798 <__aeabi_d2f+0x90>
   82788:	ea50 3301 	orrs.w	r3, r0, r1, lsl #12
   8278c:	bf1e      	ittt	ne
   8278e:	f04f 40fe 	movne.w	r0, #2130706432	; 0x7f000000
   82792:	f440 0040 	orrne.w	r0, r0, #12582912	; 0xc00000
   82796:	4770      	bxne	lr
   82798:	f001 4000 	and.w	r0, r1, #2147483648	; 0x80000000
   8279c:	f040 40fe 	orr.w	r0, r0, #2130706432	; 0x7f000000
   827a0:	f440 0000 	orr.w	r0, r0, #8388608	; 0x800000
   827a4:	4770      	bx	lr
   827a6:	bf00      	nop

000827a8 <__aeabi_frsub>:
   827a8:	f080 4000 	eor.w	r0, r0, #2147483648	; 0x80000000
   827ac:	e002      	b.n	827b4 <__addsf3>
   827ae:	bf00      	nop

000827b0 <__aeabi_fsub>:
   827b0:	f081 4100 	eor.w	r1, r1, #2147483648	; 0x80000000

000827b4 <__addsf3>:
   827b4:	0042      	lsls	r2, r0, #1
   827b6:	bf1f      	itttt	ne
   827b8:	ea5f 0341 	movsne.w	r3, r1, lsl #1
   827bc:	ea92 0f03 	teqne	r2, r3
   827c0:	ea7f 6c22 	mvnsne.w	ip, r2, asr #24
   827c4:	ea7f 6c23 	mvnsne.w	ip, r3, asr #24
   827c8:	d06a      	beq.n	828a0 <__addsf3+0xec>
   827ca:	ea4f 6212 	mov.w	r2, r2, lsr #24
   827ce:	ebd2 6313 	rsbs	r3, r2, r3, lsr #24
   827d2:	bfc1      	itttt	gt
   827d4:	18d2      	addgt	r2, r2, r3
   827d6:	4041      	eorgt	r1, r0
   827d8:	4048      	eorgt	r0, r1
   827da:	4041      	eorgt	r1, r0
   827dc:	bfb8      	it	lt
   827de:	425b      	neglt	r3, r3
   827e0:	2b19      	cmp	r3, #25
   827e2:	bf88      	it	hi
   827e4:	4770      	bxhi	lr
   827e6:	f010 4f00 	tst.w	r0, #2147483648	; 0x80000000
   827ea:	f440 0000 	orr.w	r0, r0, #8388608	; 0x800000
   827ee:	f020 407f 	bic.w	r0, r0, #4278190080	; 0xff000000
   827f2:	bf18      	it	ne
   827f4:	4240      	negne	r0, r0
   827f6:	f011 4f00 	tst.w	r1, #2147483648	; 0x80000000
   827fa:	f441 0100 	orr.w	r1, r1, #8388608	; 0x800000
   827fe:	f021 417f 	bic.w	r1, r1, #4278190080	; 0xff000000
   82802:	bf18      	it	ne
   82804:	4249      	negne	r1, r1
   82806:	ea92 0f03 	teq	r2, r3
   8280a:	d03f      	beq.n	8288c <__addsf3+0xd8>
   8280c:	f1a2 0201 	sub.w	r2, r2, #1
   82810:	fa41 fc03 	asr.w	ip, r1, r3
   82814:	eb10 000c 	adds.w	r0, r0, ip
   82818:	f1c3 0320 	rsb	r3, r3, #32
   8281c:	fa01 f103 	lsl.w	r1, r1, r3
   82820:	f000 4300 	and.w	r3, r0, #2147483648	; 0x80000000
   82824:	d502      	bpl.n	8282c <__addsf3+0x78>
   82826:	4249      	negs	r1, r1
   82828:	eb60 0040 	sbc.w	r0, r0, r0, lsl #1
   8282c:	f5b0 0f00 	cmp.w	r0, #8388608	; 0x800000
   82830:	d313      	bcc.n	8285a <__addsf3+0xa6>
   82832:	f1b0 7f80 	cmp.w	r0, #16777216	; 0x1000000
   82836:	d306      	bcc.n	82846 <__addsf3+0x92>
   82838:	0840      	lsrs	r0, r0, #1
   8283a:	ea4f 0131 	mov.w	r1, r1, rrx
   8283e:	f102 0201 	add.w	r2, r2, #1
   82842:	2afe      	cmp	r2, #254	; 0xfe
   82844:	d251      	bcs.n	828ea <__addsf3+0x136>
   82846:	f1b1 4f00 	cmp.w	r1, #2147483648	; 0x80000000
   8284a:	eb40 50c2 	adc.w	r0, r0, r2, lsl #23
   8284e:	bf08      	it	eq
   82850:	f020 0001 	biceq.w	r0, r0, #1
   82854:	ea40 0003 	orr.w	r0, r0, r3
   82858:	4770      	bx	lr
   8285a:	0049      	lsls	r1, r1, #1
   8285c:	eb40 0000 	adc.w	r0, r0, r0
   82860:	f410 0f00 	tst.w	r0, #8388608	; 0x800000
   82864:	f1a2 0201 	sub.w	r2, r2, #1
   82868:	d1ed      	bne.n	82846 <__addsf3+0x92>
   8286a:	fab0 fc80 	clz	ip, r0
   8286e:	f1ac 0c08 	sub.w	ip, ip, #8
   82872:	ebb2 020c 	subs.w	r2, r2, ip
   82876:	fa00 f00c 	lsl.w	r0, r0, ip
   8287a:	bfaa      	itet	ge
   8287c:	eb00 50c2 	addge.w	r0, r0, r2, lsl #23
   82880:	4252      	neglt	r2, r2
   82882:	4318      	orrge	r0, r3
   82884:	bfbc      	itt	lt
   82886:	40d0      	lsrlt	r0, r2
   82888:	4318      	orrlt	r0, r3
   8288a:	4770      	bx	lr
   8288c:	f092 0f00 	teq	r2, #0
   82890:	f481 0100 	eor.w	r1, r1, #8388608	; 0x800000
   82894:	bf06      	itte	eq
   82896:	f480 0000 	eoreq.w	r0, r0, #8388608	; 0x800000
   8289a:	3201      	addeq	r2, #1
   8289c:	3b01      	subne	r3, #1
   8289e:	e7b5      	b.n	8280c <__addsf3+0x58>
   828a0:	ea4f 0341 	mov.w	r3, r1, lsl #1
   828a4:	ea7f 6c22 	mvns.w	ip, r2, asr #24
   828a8:	bf18      	it	ne
   828aa:	ea7f 6c23 	mvnsne.w	ip, r3, asr #24
   828ae:	d021      	beq.n	828f4 <__addsf3+0x140>
   828b0:	ea92 0f03 	teq	r2, r3
   828b4:	d004      	beq.n	828c0 <__addsf3+0x10c>
   828b6:	f092 0f00 	teq	r2, #0
   828ba:	bf08      	it	eq
   828bc:	4608      	moveq	r0, r1
   828be:	4770      	bx	lr
   828c0:	ea90 0f01 	teq	r0, r1
   828c4:	bf1c      	itt	ne
   828c6:	2000      	movne	r0, #0
   828c8:	4770      	bxne	lr
   828ca:	f012 4f7f 	tst.w	r2, #4278190080	; 0xff000000
   828ce:	d104      	bne.n	828da <__addsf3+0x126>
   828d0:	0040      	lsls	r0, r0, #1
   828d2:	bf28      	it	cs
   828d4:	f040 4000 	orrcs.w	r0, r0, #2147483648	; 0x80000000
   828d8:	4770      	bx	lr
   828da:	f112 7200 	adds.w	r2, r2, #33554432	; 0x2000000
   828de:	bf3c      	itt	cc
   828e0:	f500 0000 	addcc.w	r0, r0, #8388608	; 0x800000
   828e4:	4770      	bxcc	lr
   828e6:	f000 4300 	and.w	r3, r0, #2147483648	; 0x80000000
   828ea:	f043 40fe 	orr.w	r0, r3, #2130706432	; 0x7f000000
   828ee:	f440 0000 	orr.w	r0, r0, #8388608	; 0x800000
   828f2:	4770      	bx	lr
   828f4:	ea7f 6222 	mvns.w	r2, r2, asr #24
   828f8:	bf16      	itet	ne
   828fa:	4608      	movne	r0, r1
   828fc:	ea7f 6323 	mvnseq.w	r3, r3, asr #24
   82900:	4601      	movne	r1, r0
   82902:	0242      	lsls	r2, r0, #9
   82904:	bf06      	itte	eq
   82906:	ea5f 2341 	movseq.w	r3, r1, lsl #9
   8290a:	ea90 0f01 	teqeq	r0, r1
   8290e:	f440 0080 	orrne.w	r0, r0, #4194304	; 0x400000
   82912:	4770      	bx	lr

00082914 <__aeabi_ui2f>:
   82914:	f04f 0300 	mov.w	r3, #0
   82918:	e004      	b.n	82924 <__aeabi_i2f+0x8>
   8291a:	bf00      	nop

0008291c <__aeabi_i2f>:
   8291c:	f010 4300 	ands.w	r3, r0, #2147483648	; 0x80000000
   82920:	bf48      	it	mi
   82922:	4240      	negmi	r0, r0
   82924:	ea5f 0c00 	movs.w	ip, r0
   82928:	bf08      	it	eq
   8292a:	4770      	bxeq	lr
   8292c:	f043 4396 	orr.w	r3, r3, #1258291200	; 0x4b000000
   82930:	4601      	mov	r1, r0
   82932:	f04f 0000 	mov.w	r0, #0
   82936:	e01c      	b.n	82972 <__aeabi_l2f+0x2a>

00082938 <__aeabi_ul2f>:
   82938:	ea50 0201 	orrs.w	r2, r0, r1
   8293c:	bf08      	it	eq
   8293e:	4770      	bxeq	lr
   82940:	f04f 0300 	mov.w	r3, #0
   82944:	e00a      	b.n	8295c <__aeabi_l2f+0x14>
   82946:	bf00      	nop

00082948 <__aeabi_l2f>:
   82948:	ea50 0201 	orrs.w	r2, r0, r1
   8294c:	bf08      	it	eq
   8294e:	4770      	bxeq	lr
   82950:	f011 4300 	ands.w	r3, r1, #2147483648	; 0x80000000
   82954:	d502      	bpl.n	8295c <__aeabi_l2f+0x14>
   82956:	4240      	negs	r0, r0
   82958:	eb61 0141 	sbc.w	r1, r1, r1, lsl #1
   8295c:	ea5f 0c01 	movs.w	ip, r1
   82960:	bf02      	ittt	eq
   82962:	4684      	moveq	ip, r0
   82964:	4601      	moveq	r1, r0
   82966:	2000      	moveq	r0, #0
   82968:	f043 43b6 	orr.w	r3, r3, #1526726656	; 0x5b000000
   8296c:	bf08      	it	eq
   8296e:	f1a3 5380 	subeq.w	r3, r3, #268435456	; 0x10000000
   82972:	f5a3 0300 	sub.w	r3, r3, #8388608	; 0x800000
   82976:	fabc f28c 	clz	r2, ip
   8297a:	3a08      	subs	r2, #8
   8297c:	eba3 53c2 	sub.w	r3, r3, r2, lsl #23
   82980:	db10      	blt.n	829a4 <__aeabi_l2f+0x5c>
   82982:	fa01 fc02 	lsl.w	ip, r1, r2
   82986:	4463      	add	r3, ip
   82988:	fa00 fc02 	lsl.w	ip, r0, r2
   8298c:	f1c2 0220 	rsb	r2, r2, #32
   82990:	f1bc 4f00 	cmp.w	ip, #2147483648	; 0x80000000
   82994:	fa20 f202 	lsr.w	r2, r0, r2
   82998:	eb43 0002 	adc.w	r0, r3, r2
   8299c:	bf08      	it	eq
   8299e:	f020 0001 	biceq.w	r0, r0, #1
   829a2:	4770      	bx	lr
   829a4:	f102 0220 	add.w	r2, r2, #32
   829a8:	fa01 fc02 	lsl.w	ip, r1, r2
   829ac:	f1c2 0220 	rsb	r2, r2, #32
   829b0:	ea50 004c 	orrs.w	r0, r0, ip, lsl #1
   829b4:	fa21 f202 	lsr.w	r2, r1, r2
   829b8:	eb43 0002 	adc.w	r0, r3, r2
   829bc:	bf08      	it	eq
   829be:	ea20 70dc 	biceq.w	r0, r0, ip, lsr #31
   829c2:	4770      	bx	lr

000829c4 <__aeabi_fmul>:
   829c4:	f04f 0cff 	mov.w	ip, #255	; 0xff
   829c8:	ea1c 52d0 	ands.w	r2, ip, r0, lsr #23
   829cc:	bf1e      	ittt	ne
   829ce:	ea1c 53d1 	andsne.w	r3, ip, r1, lsr #23
   829d2:	ea92 0f0c 	teqne	r2, ip
   829d6:	ea93 0f0c 	teqne	r3, ip
   829da:	d06f      	beq.n	82abc <__aeabi_fmul+0xf8>
   829dc:	441a      	add	r2, r3
   829de:	ea80 0c01 	eor.w	ip, r0, r1
   829e2:	0240      	lsls	r0, r0, #9
   829e4:	bf18      	it	ne
   829e6:	ea5f 2141 	movsne.w	r1, r1, lsl #9
   829ea:	d01e      	beq.n	82a2a <__aeabi_fmul+0x66>
   829ec:	f04f 6300 	mov.w	r3, #134217728	; 0x8000000
   829f0:	ea43 1050 	orr.w	r0, r3, r0, lsr #5
   829f4:	ea43 1151 	orr.w	r1, r3, r1, lsr #5
   829f8:	fba0 3101 	umull	r3, r1, r0, r1
   829fc:	f00c 4000 	and.w	r0, ip, #2147483648	; 0x80000000
   82a00:	f5b1 0f00 	cmp.w	r1, #8388608	; 0x800000
   82a04:	bf3e      	ittt	cc
   82a06:	0049      	lslcc	r1, r1, #1
   82a08:	ea41 71d3 	orrcc.w	r1, r1, r3, lsr #31
   82a0c:	005b      	lslcc	r3, r3, #1
   82a0e:	ea40 0001 	orr.w	r0, r0, r1
   82a12:	f162 027f 	sbc.w	r2, r2, #127	; 0x7f
   82a16:	2afd      	cmp	r2, #253	; 0xfd
   82a18:	d81d      	bhi.n	82a56 <__aeabi_fmul+0x92>
   82a1a:	f1b3 4f00 	cmp.w	r3, #2147483648	; 0x80000000
   82a1e:	eb40 50c2 	adc.w	r0, r0, r2, lsl #23
   82a22:	bf08      	it	eq
   82a24:	f020 0001 	biceq.w	r0, r0, #1
   82a28:	4770      	bx	lr
   82a2a:	f090 0f00 	teq	r0, #0
   82a2e:	f00c 4c00 	and.w	ip, ip, #2147483648	; 0x80000000
   82a32:	bf08      	it	eq
   82a34:	0249      	lsleq	r1, r1, #9
   82a36:	ea4c 2050 	orr.w	r0, ip, r0, lsr #9
   82a3a:	ea40 2051 	orr.w	r0, r0, r1, lsr #9
   82a3e:	3a7f      	subs	r2, #127	; 0x7f
   82a40:	bfc2      	ittt	gt
   82a42:	f1d2 03ff 	rsbsgt	r3, r2, #255	; 0xff
   82a46:	ea40 50c2 	orrgt.w	r0, r0, r2, lsl #23
   82a4a:	4770      	bxgt	lr
   82a4c:	f440 0000 	orr.w	r0, r0, #8388608	; 0x800000
   82a50:	f04f 0300 	mov.w	r3, #0
   82a54:	3a01      	subs	r2, #1
   82a56:	dc5d      	bgt.n	82b14 <__aeabi_fmul+0x150>
   82a58:	f112 0f19 	cmn.w	r2, #25
   82a5c:	bfdc      	itt	le
   82a5e:	f000 4000 	andle.w	r0, r0, #2147483648	; 0x80000000
   82a62:	4770      	bxle	lr
   82a64:	f1c2 0200 	rsb	r2, r2, #0
   82a68:	0041      	lsls	r1, r0, #1
   82a6a:	fa21 f102 	lsr.w	r1, r1, r2
   82a6e:	f1c2 0220 	rsb	r2, r2, #32
   82a72:	fa00 fc02 	lsl.w	ip, r0, r2
   82a76:	ea5f 0031 	movs.w	r0, r1, rrx
   82a7a:	f140 0000 	adc.w	r0, r0, #0
   82a7e:	ea53 034c 	orrs.w	r3, r3, ip, lsl #1
   82a82:	bf08      	it	eq
   82a84:	ea20 70dc 	biceq.w	r0, r0, ip, lsr #31
   82a88:	4770      	bx	lr
   82a8a:	f092 0f00 	teq	r2, #0
   82a8e:	f000 4c00 	and.w	ip, r0, #2147483648	; 0x80000000
   82a92:	bf02      	ittt	eq
   82a94:	0040      	lsleq	r0, r0, #1
   82a96:	f410 0f00 	tsteq.w	r0, #8388608	; 0x800000
   82a9a:	3a01      	subeq	r2, #1
   82a9c:	d0f9      	beq.n	82a92 <__aeabi_fmul+0xce>
   82a9e:	ea40 000c 	orr.w	r0, r0, ip
   82aa2:	f093 0f00 	teq	r3, #0
   82aa6:	f001 4c00 	and.w	ip, r1, #2147483648	; 0x80000000
   82aaa:	bf02      	ittt	eq
   82aac:	0049      	lsleq	r1, r1, #1
   82aae:	f411 0f00 	tsteq.w	r1, #8388608	; 0x800000
   82ab2:	3b01      	subeq	r3, #1
   82ab4:	d0f9      	beq.n	82aaa <__aeabi_fmul+0xe6>
   82ab6:	ea41 010c 	orr.w	r1, r1, ip
   82aba:	e78f      	b.n	829dc <__aeabi_fmul+0x18>
   82abc:	ea0c 53d1 	and.w	r3, ip, r1, lsr #23
   82ac0:	ea92 0f0c 	teq	r2, ip
   82ac4:	bf18      	it	ne
   82ac6:	ea93 0f0c 	teqne	r3, ip
   82aca:	d00a      	beq.n	82ae2 <__aeabi_fmul+0x11e>
   82acc:	f030 4c00 	bics.w	ip, r0, #2147483648	; 0x80000000
   82ad0:	bf18      	it	ne
   82ad2:	f031 4c00 	bicsne.w	ip, r1, #2147483648	; 0x80000000
   82ad6:	d1d8      	bne.n	82a8a <__aeabi_fmul+0xc6>
   82ad8:	ea80 0001 	eor.w	r0, r0, r1
   82adc:	f000 4000 	and.w	r0, r0, #2147483648	; 0x80000000
   82ae0:	4770      	bx	lr
   82ae2:	f090 0f00 	teq	r0, #0
   82ae6:	bf17      	itett	ne
   82ae8:	f090 4f00 	teqne	r0, #2147483648	; 0x80000000
   82aec:	4608      	moveq	r0, r1
   82aee:	f091 0f00 	teqne	r1, #0
   82af2:	f091 4f00 	teqne	r1, #2147483648	; 0x80000000
   82af6:	d014      	beq.n	82b22 <__aeabi_fmul+0x15e>
   82af8:	ea92 0f0c 	teq	r2, ip
   82afc:	d101      	bne.n	82b02 <__aeabi_fmul+0x13e>
   82afe:	0242      	lsls	r2, r0, #9
   82b00:	d10f      	bne.n	82b22 <__aeabi_fmul+0x15e>
   82b02:	ea93 0f0c 	teq	r3, ip
   82b06:	d103      	bne.n	82b10 <__aeabi_fmul+0x14c>
   82b08:	024b      	lsls	r3, r1, #9
   82b0a:	bf18      	it	ne
   82b0c:	4608      	movne	r0, r1
   82b0e:	d108      	bne.n	82b22 <__aeabi_fmul+0x15e>
   82b10:	ea80 0001 	eor.w	r0, r0, r1
   82b14:	f000 4000 	and.w	r0, r0, #2147483648	; 0x80000000
   82b18:	f040 40fe 	orr.w	r0, r0, #2130706432	; 0x7f000000
   82b1c:	f440 0000 	orr.w	r0, r0, #8388608	; 0x800000
   82b20:	4770      	bx	lr
   82b22:	f040 40fe 	orr.w	r0, r0, #2130706432	; 0x7f000000
   82b26:	f440 0040 	orr.w	r0, r0, #12582912	; 0xc00000
   82b2a:	4770      	bx	lr

00082b2c <__aeabi_fdiv>:
   82b2c:	f04f 0cff 	mov.w	ip, #255	; 0xff
   82b30:	ea1c 52d0 	ands.w	r2, ip, r0, lsr #23
   82b34:	bf1e      	ittt	ne
   82b36:	ea1c 53d1 	andsne.w	r3, ip, r1, lsr #23
   82b3a:	ea92 0f0c 	teqne	r2, ip
   82b3e:	ea93 0f0c 	teqne	r3, ip
   82b42:	d069      	beq.n	82c18 <__aeabi_fdiv+0xec>
   82b44:	eba2 0203 	sub.w	r2, r2, r3
   82b48:	ea80 0c01 	eor.w	ip, r0, r1
   82b4c:	0249      	lsls	r1, r1, #9
   82b4e:	ea4f 2040 	mov.w	r0, r0, lsl #9
   82b52:	d037      	beq.n	82bc4 <__aeabi_fdiv+0x98>
   82b54:	f04f 5380 	mov.w	r3, #268435456	; 0x10000000
   82b58:	ea43 1111 	orr.w	r1, r3, r1, lsr #4
   82b5c:	ea43 1310 	orr.w	r3, r3, r0, lsr #4
   82b60:	f00c 4000 	and.w	r0, ip, #2147483648	; 0x80000000
   82b64:	428b      	cmp	r3, r1
   82b66:	bf38      	it	cc
   82b68:	005b      	lslcc	r3, r3, #1
   82b6a:	f142 027d 	adc.w	r2, r2, #125	; 0x7d
   82b6e:	f44f 0c00 	mov.w	ip, #8388608	; 0x800000
   82b72:	428b      	cmp	r3, r1
   82b74:	bf24      	itt	cs
   82b76:	1a5b      	subcs	r3, r3, r1
   82b78:	ea40 000c 	orrcs.w	r0, r0, ip
   82b7c:	ebb3 0f51 	cmp.w	r3, r1, lsr #1
   82b80:	bf24      	itt	cs
   82b82:	eba3 0351 	subcs.w	r3, r3, r1, lsr #1
   82b86:	ea40 005c 	orrcs.w	r0, r0, ip, lsr #1
   82b8a:	ebb3 0f91 	cmp.w	r3, r1, lsr #2
   82b8e:	bf24      	itt	cs
   82b90:	eba3 0391 	subcs.w	r3, r3, r1, lsr #2
   82b94:	ea40 009c 	orrcs.w	r0, r0, ip, lsr #2
   82b98:	ebb3 0fd1 	cmp.w	r3, r1, lsr #3
   82b9c:	bf24      	itt	cs
   82b9e:	eba3 03d1 	subcs.w	r3, r3, r1, lsr #3
   82ba2:	ea40 00dc 	orrcs.w	r0, r0, ip, lsr #3
   82ba6:	011b      	lsls	r3, r3, #4
   82ba8:	bf18      	it	ne
   82baa:	ea5f 1c1c 	movsne.w	ip, ip, lsr #4
   82bae:	d1e0      	bne.n	82b72 <__aeabi_fdiv+0x46>
   82bb0:	2afd      	cmp	r2, #253	; 0xfd
   82bb2:	f63f af50 	bhi.w	82a56 <__aeabi_fmul+0x92>
   82bb6:	428b      	cmp	r3, r1
   82bb8:	eb40 50c2 	adc.w	r0, r0, r2, lsl #23
   82bbc:	bf08      	it	eq
   82bbe:	f020 0001 	biceq.w	r0, r0, #1
   82bc2:	4770      	bx	lr
   82bc4:	f00c 4c00 	and.w	ip, ip, #2147483648	; 0x80000000
   82bc8:	ea4c 2050 	orr.w	r0, ip, r0, lsr #9
   82bcc:	327f      	adds	r2, #127	; 0x7f
   82bce:	bfc2      	ittt	gt
   82bd0:	f1d2 03ff 	rsbsgt	r3, r2, #255	; 0xff
   82bd4:	ea40 50c2 	orrgt.w	r0, r0, r2, lsl #23
   82bd8:	4770      	bxgt	lr
   82bda:	f440 0000 	orr.w	r0, r0, #8388608	; 0x800000
   82bde:	f04f 0300 	mov.w	r3, #0
   82be2:	3a01      	subs	r2, #1
   82be4:	e737      	b.n	82a56 <__aeabi_fmul+0x92>
   82be6:	f092 0f00 	teq	r2, #0
   82bea:	f000 4c00 	and.w	ip, r0, #2147483648	; 0x80000000
   82bee:	bf02      	ittt	eq
   82bf0:	0040      	lsleq	r0, r0, #1
   82bf2:	f410 0f00 	tsteq.w	r0, #8388608	; 0x800000
   82bf6:	3a01      	subeq	r2, #1
   82bf8:	d0f9      	beq.n	82bee <__aeabi_fdiv+0xc2>
   82bfa:	ea40 000c 	orr.w	r0, r0, ip
   82bfe:	f093 0f00 	teq	r3, #0
   82c02:	f001 4c00 	and.w	ip, r1, #2147483648	; 0x80000000
   82c06:	bf02      	ittt	eq
   82c08:	0049      	lsleq	r1, r1, #1
   82c0a:	f411 0f00 	tsteq.w	r1, #8388608	; 0x800000
   82c0e:	3b01      	subeq	r3, #1
   82c10:	d0f9      	beq.n	82c06 <__aeabi_fdiv+0xda>
   82c12:	ea41 010c 	orr.w	r1, r1, ip
   82c16:	e795      	b.n	82b44 <__aeabi_fdiv+0x18>
   82c18:	ea0c 53d1 	and.w	r3, ip, r1, lsr #23
   82c1c:	ea92 0f0c 	teq	r2, ip
   82c20:	d108      	bne.n	82c34 <__aeabi_fdiv+0x108>
   82c22:	0242      	lsls	r2, r0, #9
   82c24:	f47f af7d 	bne.w	82b22 <__aeabi_fmul+0x15e>
   82c28:	ea93 0f0c 	teq	r3, ip
   82c2c:	f47f af70 	bne.w	82b10 <__aeabi_fmul+0x14c>
   82c30:	4608      	mov	r0, r1
   82c32:	e776      	b.n	82b22 <__aeabi_fmul+0x15e>
   82c34:	ea93 0f0c 	teq	r3, ip
   82c38:	d104      	bne.n	82c44 <__aeabi_fdiv+0x118>
   82c3a:	024b      	lsls	r3, r1, #9
   82c3c:	f43f af4c 	beq.w	82ad8 <__aeabi_fmul+0x114>
   82c40:	4608      	mov	r0, r1
   82c42:	e76e      	b.n	82b22 <__aeabi_fmul+0x15e>
   82c44:	f030 4c00 	bics.w	ip, r0, #2147483648	; 0x80000000
   82c48:	bf18      	it	ne
   82c4a:	f031 4c00 	bicsne.w	ip, r1, #2147483648	; 0x80000000
   82c4e:	d1ca      	bne.n	82be6 <__aeabi_fdiv+0xba>
   82c50:	f030 4200 	bics.w	r2, r0, #2147483648	; 0x80000000
   82c54:	f47f af5c 	bne.w	82b10 <__aeabi_fmul+0x14c>
   82c58:	f031 4300 	bics.w	r3, r1, #2147483648	; 0x80000000
   82c5c:	f47f af3c 	bne.w	82ad8 <__aeabi_fmul+0x114>
   82c60:	e75f      	b.n	82b22 <__aeabi_fmul+0x15e>
   82c62:	bf00      	nop

00082c64 <__errno>:
   82c64:	4b01      	ldr	r3, [pc, #4]	; (82c6c <__errno+0x8>)
   82c66:	6818      	ldr	r0, [r3, #0]
   82c68:	4770      	bx	lr
   82c6a:	bf00      	nop
   82c6c:	20070138 	.word	0x20070138

00082c70 <__libc_init_array>:
   82c70:	b570      	push	{r4, r5, r6, lr}
   82c72:	4e0f      	ldr	r6, [pc, #60]	; (82cb0 <__libc_init_array+0x40>)
   82c74:	4d0f      	ldr	r5, [pc, #60]	; (82cb4 <__libc_init_array+0x44>)
   82c76:	1b76      	subs	r6, r6, r5
   82c78:	10b6      	asrs	r6, r6, #2
   82c7a:	bf18      	it	ne
   82c7c:	2400      	movne	r4, #0
   82c7e:	d005      	beq.n	82c8c <__libc_init_array+0x1c>
   82c80:	3401      	adds	r4, #1
   82c82:	f855 3b04 	ldr.w	r3, [r5], #4
   82c86:	4798      	blx	r3
   82c88:	42a6      	cmp	r6, r4
   82c8a:	d1f9      	bne.n	82c80 <__libc_init_array+0x10>
   82c8c:	4e0a      	ldr	r6, [pc, #40]	; (82cb8 <__libc_init_array+0x48>)
   82c8e:	4d0b      	ldr	r5, [pc, #44]	; (82cbc <__libc_init_array+0x4c>)
   82c90:	f005 fef6 	bl	88a80 <_init>
   82c94:	1b76      	subs	r6, r6, r5
   82c96:	10b6      	asrs	r6, r6, #2
   82c98:	bf18      	it	ne
   82c9a:	2400      	movne	r4, #0
   82c9c:	d006      	beq.n	82cac <__libc_init_array+0x3c>
   82c9e:	3401      	adds	r4, #1
   82ca0:	f855 3b04 	ldr.w	r3, [r5], #4
   82ca4:	4798      	blx	r3
   82ca6:	42a6      	cmp	r6, r4
   82ca8:	d1f9      	bne.n	82c9e <__libc_init_array+0x2e>
   82caa:	bd70      	pop	{r4, r5, r6, pc}
   82cac:	bd70      	pop	{r4, r5, r6, pc}
   82cae:	bf00      	nop
   82cb0:	00088a8c 	.word	0x00088a8c
   82cb4:	00088a8c 	.word	0x00088a8c
   82cb8:	00088a94 	.word	0x00088a94
   82cbc:	00088a8c 	.word	0x00088a8c

00082cc0 <iprintf>:
   82cc0:	b40f      	push	{r0, r1, r2, r3}
   82cc2:	b510      	push	{r4, lr}
   82cc4:	4b07      	ldr	r3, [pc, #28]	; (82ce4 <iprintf+0x24>)
   82cc6:	b082      	sub	sp, #8
   82cc8:	ac04      	add	r4, sp, #16
   82cca:	f854 2b04 	ldr.w	r2, [r4], #4
   82cce:	6818      	ldr	r0, [r3, #0]
   82cd0:	4623      	mov	r3, r4
   82cd2:	6881      	ldr	r1, [r0, #8]
   82cd4:	9401      	str	r4, [sp, #4]
   82cd6:	f001 ff01 	bl	84adc <_vfiprintf_r>
   82cda:	b002      	add	sp, #8
   82cdc:	e8bd 4010 	ldmia.w	sp!, {r4, lr}
   82ce0:	b004      	add	sp, #16
   82ce2:	4770      	bx	lr
   82ce4:	20070138 	.word	0x20070138

00082ce8 <malloc>:
   82ce8:	4b02      	ldr	r3, [pc, #8]	; (82cf4 <malloc+0xc>)
   82cea:	4601      	mov	r1, r0
   82cec:	6818      	ldr	r0, [r3, #0]
   82cee:	f000 b803 	b.w	82cf8 <_malloc_r>
   82cf2:	bf00      	nop
   82cf4:	20070138 	.word	0x20070138

00082cf8 <_malloc_r>:
   82cf8:	e92d 4ff0 	stmdb	sp!, {r4, r5, r6, r7, r8, r9, sl, fp, lr}
   82cfc:	f101 060b 	add.w	r6, r1, #11
   82d00:	2e16      	cmp	r6, #22
   82d02:	b083      	sub	sp, #12
   82d04:	4605      	mov	r5, r0
   82d06:	f240 809e 	bls.w	82e46 <_malloc_r+0x14e>
   82d0a:	f036 0607 	bics.w	r6, r6, #7
   82d0e:	f100 80bd 	bmi.w	82e8c <_malloc_r+0x194>
   82d12:	42b1      	cmp	r1, r6
   82d14:	f200 80ba 	bhi.w	82e8c <_malloc_r+0x194>
   82d18:	f000 fade 	bl	832d8 <__malloc_lock>
   82d1c:	f5b6 7ffc 	cmp.w	r6, #504	; 0x1f8
   82d20:	f0c0 8285 	bcc.w	8322e <_malloc_r+0x536>
   82d24:	0a73      	lsrs	r3, r6, #9
   82d26:	f000 80b8 	beq.w	82e9a <_malloc_r+0x1a2>
   82d2a:	2b04      	cmp	r3, #4
   82d2c:	f200 816c 	bhi.w	83008 <_malloc_r+0x310>
   82d30:	09b3      	lsrs	r3, r6, #6
   82d32:	f103 0039 	add.w	r0, r3, #57	; 0x39
   82d36:	f103 0e38 	add.w	lr, r3, #56	; 0x38
   82d3a:	00c1      	lsls	r1, r0, #3
   82d3c:	4fb8      	ldr	r7, [pc, #736]	; (83020 <_malloc_r+0x328>)
   82d3e:	4439      	add	r1, r7
   82d40:	684c      	ldr	r4, [r1, #4]
   82d42:	3908      	subs	r1, #8
   82d44:	42a1      	cmp	r1, r4
   82d46:	d106      	bne.n	82d56 <_malloc_r+0x5e>
   82d48:	e00c      	b.n	82d64 <_malloc_r+0x6c>
   82d4a:	2a00      	cmp	r2, #0
   82d4c:	f280 80ab 	bge.w	82ea6 <_malloc_r+0x1ae>
   82d50:	68e4      	ldr	r4, [r4, #12]
   82d52:	42a1      	cmp	r1, r4
   82d54:	d006      	beq.n	82d64 <_malloc_r+0x6c>
   82d56:	6863      	ldr	r3, [r4, #4]
   82d58:	f023 0303 	bic.w	r3, r3, #3
   82d5c:	1b9a      	subs	r2, r3, r6
   82d5e:	2a0f      	cmp	r2, #15
   82d60:	ddf3      	ble.n	82d4a <_malloc_r+0x52>
   82d62:	4670      	mov	r0, lr
   82d64:	693c      	ldr	r4, [r7, #16]
   82d66:	f8df e2cc 	ldr.w	lr, [pc, #716]	; 83034 <_malloc_r+0x33c>
   82d6a:	4574      	cmp	r4, lr
   82d6c:	f000 819e 	beq.w	830ac <_malloc_r+0x3b4>
   82d70:	6863      	ldr	r3, [r4, #4]
   82d72:	f023 0303 	bic.w	r3, r3, #3
   82d76:	1b9a      	subs	r2, r3, r6
   82d78:	2a0f      	cmp	r2, #15
   82d7a:	f300 8183 	bgt.w	83084 <_malloc_r+0x38c>
   82d7e:	2a00      	cmp	r2, #0
   82d80:	f8c7 e014 	str.w	lr, [r7, #20]
   82d84:	f8c7 e010 	str.w	lr, [r7, #16]
   82d88:	f280 8091 	bge.w	82eae <_malloc_r+0x1b6>
   82d8c:	f5b3 7f00 	cmp.w	r3, #512	; 0x200
   82d90:	f080 8154 	bcs.w	8303c <_malloc_r+0x344>
   82d94:	2201      	movs	r2, #1
   82d96:	08db      	lsrs	r3, r3, #3
   82d98:	6879      	ldr	r1, [r7, #4]
   82d9a:	ea4f 0ca3 	mov.w	ip, r3, asr #2
   82d9e:	4413      	add	r3, r2
   82da0:	f857 8033 	ldr.w	r8, [r7, r3, lsl #3]
   82da4:	fa02 f20c 	lsl.w	r2, r2, ip
   82da8:	eb07 0cc3 	add.w	ip, r7, r3, lsl #3
   82dac:	430a      	orrs	r2, r1
   82dae:	f1ac 0108 	sub.w	r1, ip, #8
   82db2:	60e1      	str	r1, [r4, #12]
   82db4:	f8c4 8008 	str.w	r8, [r4, #8]
   82db8:	607a      	str	r2, [r7, #4]
   82dba:	f847 4033 	str.w	r4, [r7, r3, lsl #3]
   82dbe:	f8c8 400c 	str.w	r4, [r8, #12]
   82dc2:	2401      	movs	r4, #1
   82dc4:	1083      	asrs	r3, r0, #2
   82dc6:	409c      	lsls	r4, r3
   82dc8:	4294      	cmp	r4, r2
   82dca:	d87d      	bhi.n	82ec8 <_malloc_r+0x1d0>
   82dcc:	4214      	tst	r4, r2
   82dce:	d106      	bne.n	82dde <_malloc_r+0xe6>
   82dd0:	f020 0003 	bic.w	r0, r0, #3
   82dd4:	0064      	lsls	r4, r4, #1
   82dd6:	4214      	tst	r4, r2
   82dd8:	f100 0004 	add.w	r0, r0, #4
   82ddc:	d0fa      	beq.n	82dd4 <_malloc_r+0xdc>
   82dde:	eb07 09c0 	add.w	r9, r7, r0, lsl #3
   82de2:	46cc      	mov	ip, r9
   82de4:	4680      	mov	r8, r0
   82de6:	f8dc 300c 	ldr.w	r3, [ip, #12]
   82dea:	459c      	cmp	ip, r3
   82dec:	d107      	bne.n	82dfe <_malloc_r+0x106>
   82dee:	e15f      	b.n	830b0 <_malloc_r+0x3b8>
   82df0:	2a00      	cmp	r2, #0
   82df2:	f280 816d 	bge.w	830d0 <_malloc_r+0x3d8>
   82df6:	68db      	ldr	r3, [r3, #12]
   82df8:	459c      	cmp	ip, r3
   82dfa:	f000 8159 	beq.w	830b0 <_malloc_r+0x3b8>
   82dfe:	6859      	ldr	r1, [r3, #4]
   82e00:	f021 0103 	bic.w	r1, r1, #3
   82e04:	1b8a      	subs	r2, r1, r6
   82e06:	2a0f      	cmp	r2, #15
   82e08:	ddf2      	ble.n	82df0 <_malloc_r+0xf8>
   82e0a:	68dc      	ldr	r4, [r3, #12]
   82e0c:	f8d3 c008 	ldr.w	ip, [r3, #8]
   82e10:	f046 0801 	orr.w	r8, r6, #1
   82e14:	4628      	mov	r0, r5
   82e16:	441e      	add	r6, r3
   82e18:	f042 0501 	orr.w	r5, r2, #1
   82e1c:	f8c3 8004 	str.w	r8, [r3, #4]
   82e20:	f8cc 400c 	str.w	r4, [ip, #12]
   82e24:	f8c4 c008 	str.w	ip, [r4, #8]
   82e28:	617e      	str	r6, [r7, #20]
   82e2a:	613e      	str	r6, [r7, #16]
   82e2c:	f8c6 e00c 	str.w	lr, [r6, #12]
   82e30:	f8c6 e008 	str.w	lr, [r6, #8]
   82e34:	6075      	str	r5, [r6, #4]
   82e36:	505a      	str	r2, [r3, r1]
   82e38:	9300      	str	r3, [sp, #0]
   82e3a:	f000 fa53 	bl	832e4 <__malloc_unlock>
   82e3e:	9b00      	ldr	r3, [sp, #0]
   82e40:	f103 0408 	add.w	r4, r3, #8
   82e44:	e01e      	b.n	82e84 <_malloc_r+0x18c>
   82e46:	2910      	cmp	r1, #16
   82e48:	d820      	bhi.n	82e8c <_malloc_r+0x194>
   82e4a:	f000 fa45 	bl	832d8 <__malloc_lock>
   82e4e:	2610      	movs	r6, #16
   82e50:	2318      	movs	r3, #24
   82e52:	2002      	movs	r0, #2
   82e54:	4f72      	ldr	r7, [pc, #456]	; (83020 <_malloc_r+0x328>)
   82e56:	443b      	add	r3, r7
   82e58:	685c      	ldr	r4, [r3, #4]
   82e5a:	f1a3 0208 	sub.w	r2, r3, #8
   82e5e:	4294      	cmp	r4, r2
   82e60:	f000 812f 	beq.w	830c2 <_malloc_r+0x3ca>
   82e64:	6863      	ldr	r3, [r4, #4]
   82e66:	68e1      	ldr	r1, [r4, #12]
   82e68:	f023 0303 	bic.w	r3, r3, #3
   82e6c:	4423      	add	r3, r4
   82e6e:	685a      	ldr	r2, [r3, #4]
   82e70:	68a6      	ldr	r6, [r4, #8]
   82e72:	f042 0201 	orr.w	r2, r2, #1
   82e76:	60f1      	str	r1, [r6, #12]
   82e78:	4628      	mov	r0, r5
   82e7a:	608e      	str	r6, [r1, #8]
   82e7c:	605a      	str	r2, [r3, #4]
   82e7e:	f000 fa31 	bl	832e4 <__malloc_unlock>
   82e82:	3408      	adds	r4, #8
   82e84:	4620      	mov	r0, r4
   82e86:	b003      	add	sp, #12
   82e88:	e8bd 8ff0 	ldmia.w	sp!, {r4, r5, r6, r7, r8, r9, sl, fp, pc}
   82e8c:	2400      	movs	r4, #0
   82e8e:	230c      	movs	r3, #12
   82e90:	4620      	mov	r0, r4
   82e92:	602b      	str	r3, [r5, #0]
   82e94:	b003      	add	sp, #12
   82e96:	e8bd 8ff0 	ldmia.w	sp!, {r4, r5, r6, r7, r8, r9, sl, fp, pc}
   82e9a:	2040      	movs	r0, #64	; 0x40
   82e9c:	f44f 7100 	mov.w	r1, #512	; 0x200
   82ea0:	f04f 0e3f 	mov.w	lr, #63	; 0x3f
   82ea4:	e74a      	b.n	82d3c <_malloc_r+0x44>
   82ea6:	4423      	add	r3, r4
   82ea8:	685a      	ldr	r2, [r3, #4]
   82eaa:	68e1      	ldr	r1, [r4, #12]
   82eac:	e7e0      	b.n	82e70 <_malloc_r+0x178>
   82eae:	4423      	add	r3, r4
   82eb0:	685a      	ldr	r2, [r3, #4]
   82eb2:	4628      	mov	r0, r5
   82eb4:	f042 0201 	orr.w	r2, r2, #1
   82eb8:	605a      	str	r2, [r3, #4]
   82eba:	3408      	adds	r4, #8
   82ebc:	f000 fa12 	bl	832e4 <__malloc_unlock>
   82ec0:	4620      	mov	r0, r4
   82ec2:	b003      	add	sp, #12
   82ec4:	e8bd 8ff0 	ldmia.w	sp!, {r4, r5, r6, r7, r8, r9, sl, fp, pc}
   82ec8:	68bc      	ldr	r4, [r7, #8]
   82eca:	6863      	ldr	r3, [r4, #4]
   82ecc:	f023 0803 	bic.w	r8, r3, #3
   82ed0:	45b0      	cmp	r8, r6
   82ed2:	d304      	bcc.n	82ede <_malloc_r+0x1e6>
   82ed4:	eba8 0306 	sub.w	r3, r8, r6
   82ed8:	2b0f      	cmp	r3, #15
   82eda:	f300 8085 	bgt.w	82fe8 <_malloc_r+0x2f0>
   82ede:	f8df 9158 	ldr.w	r9, [pc, #344]	; 83038 <_malloc_r+0x340>
   82ee2:	4b50      	ldr	r3, [pc, #320]	; (83024 <_malloc_r+0x32c>)
   82ee4:	f8d9 2000 	ldr.w	r2, [r9]
   82ee8:	681b      	ldr	r3, [r3, #0]
   82eea:	3201      	adds	r2, #1
   82eec:	4433      	add	r3, r6
   82eee:	eb04 0a08 	add.w	sl, r4, r8
   82ef2:	f000 8154 	beq.w	8319e <_malloc_r+0x4a6>
   82ef6:	f503 5380 	add.w	r3, r3, #4096	; 0x1000
   82efa:	330f      	adds	r3, #15
   82efc:	f423 6b7f 	bic.w	fp, r3, #4080	; 0xff0
   82f00:	f02b 0b0f 	bic.w	fp, fp, #15
   82f04:	4659      	mov	r1, fp
   82f06:	4628      	mov	r0, r5
   82f08:	f000 f9f2 	bl	832f0 <_sbrk_r>
   82f0c:	1c41      	adds	r1, r0, #1
   82f0e:	4602      	mov	r2, r0
   82f10:	f000 80fb 	beq.w	8310a <_malloc_r+0x412>
   82f14:	4582      	cmp	sl, r0
   82f16:	f200 80f6 	bhi.w	83106 <_malloc_r+0x40e>
   82f1a:	4b43      	ldr	r3, [pc, #268]	; (83028 <_malloc_r+0x330>)
   82f1c:	6819      	ldr	r1, [r3, #0]
   82f1e:	4459      	add	r1, fp
   82f20:	6019      	str	r1, [r3, #0]
   82f22:	f000 814c 	beq.w	831be <_malloc_r+0x4c6>
   82f26:	f8d9 0000 	ldr.w	r0, [r9]
   82f2a:	3001      	adds	r0, #1
   82f2c:	bf1b      	ittet	ne
   82f2e:	eba2 0a0a 	subne.w	sl, r2, sl
   82f32:	4451      	addne	r1, sl
   82f34:	f8c9 2000 	streq.w	r2, [r9]
   82f38:	6019      	strne	r1, [r3, #0]
   82f3a:	f012 0107 	ands.w	r1, r2, #7
   82f3e:	f000 8114 	beq.w	8316a <_malloc_r+0x472>
   82f42:	f1c1 0008 	rsb	r0, r1, #8
   82f46:	f5c1 5180 	rsb	r1, r1, #4096	; 0x1000
   82f4a:	4402      	add	r2, r0
   82f4c:	3108      	adds	r1, #8
   82f4e:	eb02 090b 	add.w	r9, r2, fp
   82f52:	f3c9 090b 	ubfx	r9, r9, #0, #12
   82f56:	eba1 0909 	sub.w	r9, r1, r9
   82f5a:	4649      	mov	r1, r9
   82f5c:	4628      	mov	r0, r5
   82f5e:	9301      	str	r3, [sp, #4]
   82f60:	9200      	str	r2, [sp, #0]
   82f62:	f000 f9c5 	bl	832f0 <_sbrk_r>
   82f66:	1c43      	adds	r3, r0, #1
   82f68:	e89d 000c 	ldmia.w	sp, {r2, r3}
   82f6c:	f000 8142 	beq.w	831f4 <_malloc_r+0x4fc>
   82f70:	1a80      	subs	r0, r0, r2
   82f72:	4448      	add	r0, r9
   82f74:	f040 0001 	orr.w	r0, r0, #1
   82f78:	6819      	ldr	r1, [r3, #0]
   82f7a:	42bc      	cmp	r4, r7
   82f7c:	4449      	add	r1, r9
   82f7e:	60ba      	str	r2, [r7, #8]
   82f80:	6019      	str	r1, [r3, #0]
   82f82:	6050      	str	r0, [r2, #4]
   82f84:	d017      	beq.n	82fb6 <_malloc_r+0x2be>
   82f86:	f1b8 0f0f 	cmp.w	r8, #15
   82f8a:	f240 80fa 	bls.w	83182 <_malloc_r+0x48a>
   82f8e:	f04f 0c05 	mov.w	ip, #5
   82f92:	6862      	ldr	r2, [r4, #4]
   82f94:	f1a8 000c 	sub.w	r0, r8, #12
   82f98:	f020 0007 	bic.w	r0, r0, #7
   82f9c:	f002 0201 	and.w	r2, r2, #1
   82fa0:	eb04 0e00 	add.w	lr, r4, r0
   82fa4:	4302      	orrs	r2, r0
   82fa6:	280f      	cmp	r0, #15
   82fa8:	6062      	str	r2, [r4, #4]
   82faa:	f8ce c004 	str.w	ip, [lr, #4]
   82fae:	f8ce c008 	str.w	ip, [lr, #8]
   82fb2:	f200 8116 	bhi.w	831e2 <_malloc_r+0x4ea>
   82fb6:	4b1d      	ldr	r3, [pc, #116]	; (8302c <_malloc_r+0x334>)
   82fb8:	68bc      	ldr	r4, [r7, #8]
   82fba:	681a      	ldr	r2, [r3, #0]
   82fbc:	4291      	cmp	r1, r2
   82fbe:	bf88      	it	hi
   82fc0:	6019      	strhi	r1, [r3, #0]
   82fc2:	4b1b      	ldr	r3, [pc, #108]	; (83030 <_malloc_r+0x338>)
   82fc4:	681a      	ldr	r2, [r3, #0]
   82fc6:	4291      	cmp	r1, r2
   82fc8:	6862      	ldr	r2, [r4, #4]
   82fca:	bf88      	it	hi
   82fcc:	6019      	strhi	r1, [r3, #0]
   82fce:	f022 0203 	bic.w	r2, r2, #3
   82fd2:	4296      	cmp	r6, r2
   82fd4:	eba2 0306 	sub.w	r3, r2, r6
   82fd8:	d801      	bhi.n	82fde <_malloc_r+0x2e6>
   82fda:	2b0f      	cmp	r3, #15
   82fdc:	dc04      	bgt.n	82fe8 <_malloc_r+0x2f0>
   82fde:	4628      	mov	r0, r5
   82fe0:	f000 f980 	bl	832e4 <__malloc_unlock>
   82fe4:	2400      	movs	r4, #0
   82fe6:	e74d      	b.n	82e84 <_malloc_r+0x18c>
   82fe8:	f046 0201 	orr.w	r2, r6, #1
   82fec:	f043 0301 	orr.w	r3, r3, #1
   82ff0:	4426      	add	r6, r4
   82ff2:	6062      	str	r2, [r4, #4]
   82ff4:	4628      	mov	r0, r5
   82ff6:	60be      	str	r6, [r7, #8]
   82ff8:	3408      	adds	r4, #8
   82ffa:	6073      	str	r3, [r6, #4]
   82ffc:	f000 f972 	bl	832e4 <__malloc_unlock>
   83000:	4620      	mov	r0, r4
   83002:	b003      	add	sp, #12
   83004:	e8bd 8ff0 	ldmia.w	sp!, {r4, r5, r6, r7, r8, r9, sl, fp, pc}
   83008:	2b14      	cmp	r3, #20
   8300a:	d970      	bls.n	830ee <_malloc_r+0x3f6>
   8300c:	2b54      	cmp	r3, #84	; 0x54
   8300e:	f200 80a2 	bhi.w	83156 <_malloc_r+0x45e>
   83012:	0b33      	lsrs	r3, r6, #12
   83014:	f103 006f 	add.w	r0, r3, #111	; 0x6f
   83018:	f103 0e6e 	add.w	lr, r3, #110	; 0x6e
   8301c:	00c1      	lsls	r1, r0, #3
   8301e:	e68d      	b.n	82d3c <_malloc_r+0x44>
   83020:	20070568 	.word	0x20070568
   83024:	20070d38 	.word	0x20070d38
   83028:	20070d08 	.word	0x20070d08
   8302c:	20070d30 	.word	0x20070d30
   83030:	20070d34 	.word	0x20070d34
   83034:	20070570 	.word	0x20070570
   83038:	20070970 	.word	0x20070970
   8303c:	0a5a      	lsrs	r2, r3, #9
   8303e:	2a04      	cmp	r2, #4
   83040:	d95b      	bls.n	830fa <_malloc_r+0x402>
   83042:	2a14      	cmp	r2, #20
   83044:	f200 80ae 	bhi.w	831a4 <_malloc_r+0x4ac>
   83048:	f102 015c 	add.w	r1, r2, #92	; 0x5c
   8304c:	00c9      	lsls	r1, r1, #3
   8304e:	325b      	adds	r2, #91	; 0x5b
   83050:	eb07 0c01 	add.w	ip, r7, r1
   83054:	5879      	ldr	r1, [r7, r1]
   83056:	f1ac 0c08 	sub.w	ip, ip, #8
   8305a:	458c      	cmp	ip, r1
   8305c:	f000 8088 	beq.w	83170 <_malloc_r+0x478>
   83060:	684a      	ldr	r2, [r1, #4]
   83062:	f022 0203 	bic.w	r2, r2, #3
   83066:	4293      	cmp	r3, r2
   83068:	d273      	bcs.n	83152 <_malloc_r+0x45a>
   8306a:	6889      	ldr	r1, [r1, #8]
   8306c:	458c      	cmp	ip, r1
   8306e:	d1f7      	bne.n	83060 <_malloc_r+0x368>
   83070:	f8dc 300c 	ldr.w	r3, [ip, #12]
   83074:	687a      	ldr	r2, [r7, #4]
   83076:	60e3      	str	r3, [r4, #12]
   83078:	f8c4 c008 	str.w	ip, [r4, #8]
   8307c:	609c      	str	r4, [r3, #8]
   8307e:	f8cc 400c 	str.w	r4, [ip, #12]
   83082:	e69e      	b.n	82dc2 <_malloc_r+0xca>
   83084:	f046 0c01 	orr.w	ip, r6, #1
   83088:	f042 0101 	orr.w	r1, r2, #1
   8308c:	4426      	add	r6, r4
   8308e:	f8c4 c004 	str.w	ip, [r4, #4]
   83092:	4628      	mov	r0, r5
   83094:	617e      	str	r6, [r7, #20]
   83096:	613e      	str	r6, [r7, #16]
   83098:	f8c6 e00c 	str.w	lr, [r6, #12]
   8309c:	f8c6 e008 	str.w	lr, [r6, #8]
   830a0:	6071      	str	r1, [r6, #4]
   830a2:	50e2      	str	r2, [r4, r3]
   830a4:	f000 f91e 	bl	832e4 <__malloc_unlock>
   830a8:	3408      	adds	r4, #8
   830aa:	e6eb      	b.n	82e84 <_malloc_r+0x18c>
   830ac:	687a      	ldr	r2, [r7, #4]
   830ae:	e688      	b.n	82dc2 <_malloc_r+0xca>
   830b0:	f108 0801 	add.w	r8, r8, #1
   830b4:	f018 0f03 	tst.w	r8, #3
   830b8:	f10c 0c08 	add.w	ip, ip, #8
   830bc:	f47f ae93 	bne.w	82de6 <_malloc_r+0xee>
   830c0:	e02d      	b.n	8311e <_malloc_r+0x426>
   830c2:	68dc      	ldr	r4, [r3, #12]
   830c4:	42a3      	cmp	r3, r4
   830c6:	bf08      	it	eq
   830c8:	3002      	addeq	r0, #2
   830ca:	f43f ae4b 	beq.w	82d64 <_malloc_r+0x6c>
   830ce:	e6c9      	b.n	82e64 <_malloc_r+0x16c>
   830d0:	461c      	mov	r4, r3
   830d2:	4419      	add	r1, r3
   830d4:	684a      	ldr	r2, [r1, #4]
   830d6:	68db      	ldr	r3, [r3, #12]
   830d8:	f854 6f08 	ldr.w	r6, [r4, #8]!
   830dc:	f042 0201 	orr.w	r2, r2, #1
   830e0:	604a      	str	r2, [r1, #4]
   830e2:	4628      	mov	r0, r5
   830e4:	60f3      	str	r3, [r6, #12]
   830e6:	609e      	str	r6, [r3, #8]
   830e8:	f000 f8fc 	bl	832e4 <__malloc_unlock>
   830ec:	e6ca      	b.n	82e84 <_malloc_r+0x18c>
   830ee:	f103 005c 	add.w	r0, r3, #92	; 0x5c
   830f2:	f103 0e5b 	add.w	lr, r3, #91	; 0x5b
   830f6:	00c1      	lsls	r1, r0, #3
   830f8:	e620      	b.n	82d3c <_malloc_r+0x44>
   830fa:	099a      	lsrs	r2, r3, #6
   830fc:	f102 0139 	add.w	r1, r2, #57	; 0x39
   83100:	00c9      	lsls	r1, r1, #3
   83102:	3238      	adds	r2, #56	; 0x38
   83104:	e7a4      	b.n	83050 <_malloc_r+0x358>
   83106:	42bc      	cmp	r4, r7
   83108:	d054      	beq.n	831b4 <_malloc_r+0x4bc>
   8310a:	68bc      	ldr	r4, [r7, #8]
   8310c:	6862      	ldr	r2, [r4, #4]
   8310e:	f022 0203 	bic.w	r2, r2, #3
   83112:	e75e      	b.n	82fd2 <_malloc_r+0x2da>
   83114:	f859 3908 	ldr.w	r3, [r9], #-8
   83118:	4599      	cmp	r9, r3
   8311a:	f040 8086 	bne.w	8322a <_malloc_r+0x532>
   8311e:	f010 0f03 	tst.w	r0, #3
   83122:	f100 30ff 	add.w	r0, r0, #4294967295
   83126:	d1f5      	bne.n	83114 <_malloc_r+0x41c>
   83128:	687b      	ldr	r3, [r7, #4]
   8312a:	ea23 0304 	bic.w	r3, r3, r4
   8312e:	607b      	str	r3, [r7, #4]
   83130:	0064      	lsls	r4, r4, #1
   83132:	429c      	cmp	r4, r3
   83134:	f63f aec8 	bhi.w	82ec8 <_malloc_r+0x1d0>
   83138:	2c00      	cmp	r4, #0
   8313a:	f43f aec5 	beq.w	82ec8 <_malloc_r+0x1d0>
   8313e:	421c      	tst	r4, r3
   83140:	4640      	mov	r0, r8
   83142:	f47f ae4c 	bne.w	82dde <_malloc_r+0xe6>
   83146:	0064      	lsls	r4, r4, #1
   83148:	421c      	tst	r4, r3
   8314a:	f100 0004 	add.w	r0, r0, #4
   8314e:	d0fa      	beq.n	83146 <_malloc_r+0x44e>
   83150:	e645      	b.n	82dde <_malloc_r+0xe6>
   83152:	468c      	mov	ip, r1
   83154:	e78c      	b.n	83070 <_malloc_r+0x378>
   83156:	f5b3 7faa 	cmp.w	r3, #340	; 0x154
   8315a:	d815      	bhi.n	83188 <_malloc_r+0x490>
   8315c:	0bf3      	lsrs	r3, r6, #15
   8315e:	f103 0078 	add.w	r0, r3, #120	; 0x78
   83162:	f103 0e77 	add.w	lr, r3, #119	; 0x77
   83166:	00c1      	lsls	r1, r0, #3
   83168:	e5e8      	b.n	82d3c <_malloc_r+0x44>
   8316a:	f44f 5180 	mov.w	r1, #4096	; 0x1000
   8316e:	e6ee      	b.n	82f4e <_malloc_r+0x256>
   83170:	2101      	movs	r1, #1
   83172:	687b      	ldr	r3, [r7, #4]
   83174:	1092      	asrs	r2, r2, #2
   83176:	fa01 f202 	lsl.w	r2, r1, r2
   8317a:	431a      	orrs	r2, r3
   8317c:	607a      	str	r2, [r7, #4]
   8317e:	4663      	mov	r3, ip
   83180:	e779      	b.n	83076 <_malloc_r+0x37e>
   83182:	2301      	movs	r3, #1
   83184:	6053      	str	r3, [r2, #4]
   83186:	e72a      	b.n	82fde <_malloc_r+0x2e6>
   83188:	f240 5254 	movw	r2, #1364	; 0x554
   8318c:	4293      	cmp	r3, r2
   8318e:	d822      	bhi.n	831d6 <_malloc_r+0x4de>
   83190:	0cb3      	lsrs	r3, r6, #18
   83192:	f103 007d 	add.w	r0, r3, #125	; 0x7d
   83196:	f103 0e7c 	add.w	lr, r3, #124	; 0x7c
   8319a:	00c1      	lsls	r1, r0, #3
   8319c:	e5ce      	b.n	82d3c <_malloc_r+0x44>
   8319e:	f103 0b10 	add.w	fp, r3, #16
   831a2:	e6af      	b.n	82f04 <_malloc_r+0x20c>
   831a4:	2a54      	cmp	r2, #84	; 0x54
   831a6:	d829      	bhi.n	831fc <_malloc_r+0x504>
   831a8:	0b1a      	lsrs	r2, r3, #12
   831aa:	f102 016f 	add.w	r1, r2, #111	; 0x6f
   831ae:	00c9      	lsls	r1, r1, #3
   831b0:	326e      	adds	r2, #110	; 0x6e
   831b2:	e74d      	b.n	83050 <_malloc_r+0x358>
   831b4:	4b20      	ldr	r3, [pc, #128]	; (83238 <_malloc_r+0x540>)
   831b6:	6819      	ldr	r1, [r3, #0]
   831b8:	4459      	add	r1, fp
   831ba:	6019      	str	r1, [r3, #0]
   831bc:	e6b3      	b.n	82f26 <_malloc_r+0x22e>
   831be:	f3ca 000b 	ubfx	r0, sl, #0, #12
   831c2:	2800      	cmp	r0, #0
   831c4:	f47f aeaf 	bne.w	82f26 <_malloc_r+0x22e>
   831c8:	eb08 030b 	add.w	r3, r8, fp
   831cc:	68ba      	ldr	r2, [r7, #8]
   831ce:	f043 0301 	orr.w	r3, r3, #1
   831d2:	6053      	str	r3, [r2, #4]
   831d4:	e6ef      	b.n	82fb6 <_malloc_r+0x2be>
   831d6:	207f      	movs	r0, #127	; 0x7f
   831d8:	f44f 717e 	mov.w	r1, #1016	; 0x3f8
   831dc:	f04f 0e7e 	mov.w	lr, #126	; 0x7e
   831e0:	e5ac      	b.n	82d3c <_malloc_r+0x44>
   831e2:	f104 0108 	add.w	r1, r4, #8
   831e6:	4628      	mov	r0, r5
   831e8:	9300      	str	r3, [sp, #0]
   831ea:	f003 fd45 	bl	86c78 <_free_r>
   831ee:	9b00      	ldr	r3, [sp, #0]
   831f0:	6819      	ldr	r1, [r3, #0]
   831f2:	e6e0      	b.n	82fb6 <_malloc_r+0x2be>
   831f4:	2001      	movs	r0, #1
   831f6:	f04f 0900 	mov.w	r9, #0
   831fa:	e6bd      	b.n	82f78 <_malloc_r+0x280>
   831fc:	f5b2 7faa 	cmp.w	r2, #340	; 0x154
   83200:	d805      	bhi.n	8320e <_malloc_r+0x516>
   83202:	0bda      	lsrs	r2, r3, #15
   83204:	f102 0178 	add.w	r1, r2, #120	; 0x78
   83208:	00c9      	lsls	r1, r1, #3
   8320a:	3277      	adds	r2, #119	; 0x77
   8320c:	e720      	b.n	83050 <_malloc_r+0x358>
   8320e:	f240 5154 	movw	r1, #1364	; 0x554
   83212:	428a      	cmp	r2, r1
   83214:	d805      	bhi.n	83222 <_malloc_r+0x52a>
   83216:	0c9a      	lsrs	r2, r3, #18
   83218:	f102 017d 	add.w	r1, r2, #125	; 0x7d
   8321c:	00c9      	lsls	r1, r1, #3
   8321e:	327c      	adds	r2, #124	; 0x7c
   83220:	e716      	b.n	83050 <_malloc_r+0x358>
   83222:	f44f 717e 	mov.w	r1, #1016	; 0x3f8
   83226:	227e      	movs	r2, #126	; 0x7e
   83228:	e712      	b.n	83050 <_malloc_r+0x358>
   8322a:	687b      	ldr	r3, [r7, #4]
   8322c:	e780      	b.n	83130 <_malloc_r+0x438>
   8322e:	08f0      	lsrs	r0, r6, #3
   83230:	f106 0308 	add.w	r3, r6, #8
   83234:	e60e      	b.n	82e54 <_malloc_r+0x15c>
   83236:	bf00      	nop
   83238:	20070d08 	.word	0x20070d08

0008323c <memset>:
   8323c:	b470      	push	{r4, r5, r6}
   8323e:	0786      	lsls	r6, r0, #30
   83240:	d046      	beq.n	832d0 <memset+0x94>
   83242:	1e54      	subs	r4, r2, #1
   83244:	2a00      	cmp	r2, #0
   83246:	d041      	beq.n	832cc <memset+0x90>
   83248:	b2ca      	uxtb	r2, r1
   8324a:	4603      	mov	r3, r0
   8324c:	e002      	b.n	83254 <memset+0x18>
   8324e:	f114 34ff 	adds.w	r4, r4, #4294967295
   83252:	d33b      	bcc.n	832cc <memset+0x90>
   83254:	f803 2b01 	strb.w	r2, [r3], #1
   83258:	079d      	lsls	r5, r3, #30
   8325a:	d1f8      	bne.n	8324e <memset+0x12>
   8325c:	2c03      	cmp	r4, #3
   8325e:	d92e      	bls.n	832be <memset+0x82>
   83260:	b2cd      	uxtb	r5, r1
   83262:	ea45 2505 	orr.w	r5, r5, r5, lsl #8
   83266:	2c0f      	cmp	r4, #15
   83268:	ea45 4505 	orr.w	r5, r5, r5, lsl #16
   8326c:	d919      	bls.n	832a2 <memset+0x66>
   8326e:	4626      	mov	r6, r4
   83270:	f103 0210 	add.w	r2, r3, #16
   83274:	3e10      	subs	r6, #16
   83276:	2e0f      	cmp	r6, #15
   83278:	f842 5c10 	str.w	r5, [r2, #-16]
   8327c:	f842 5c0c 	str.w	r5, [r2, #-12]
   83280:	f842 5c08 	str.w	r5, [r2, #-8]
   83284:	f842 5c04 	str.w	r5, [r2, #-4]
   83288:	f102 0210 	add.w	r2, r2, #16
   8328c:	d8f2      	bhi.n	83274 <memset+0x38>
   8328e:	f1a4 0210 	sub.w	r2, r4, #16
   83292:	f022 020f 	bic.w	r2, r2, #15
   83296:	f004 040f 	and.w	r4, r4, #15
   8329a:	3210      	adds	r2, #16
   8329c:	2c03      	cmp	r4, #3
   8329e:	4413      	add	r3, r2
   832a0:	d90d      	bls.n	832be <memset+0x82>
   832a2:	461e      	mov	r6, r3
   832a4:	4622      	mov	r2, r4
   832a6:	3a04      	subs	r2, #4
   832a8:	2a03      	cmp	r2, #3
   832aa:	f846 5b04 	str.w	r5, [r6], #4
   832ae:	d8fa      	bhi.n	832a6 <memset+0x6a>
   832b0:	1f22      	subs	r2, r4, #4
   832b2:	f022 0203 	bic.w	r2, r2, #3
   832b6:	3204      	adds	r2, #4
   832b8:	4413      	add	r3, r2
   832ba:	f004 0403 	and.w	r4, r4, #3
   832be:	b12c      	cbz	r4, 832cc <memset+0x90>
   832c0:	b2c9      	uxtb	r1, r1
   832c2:	441c      	add	r4, r3
   832c4:	f803 1b01 	strb.w	r1, [r3], #1
   832c8:	429c      	cmp	r4, r3
   832ca:	d1fb      	bne.n	832c4 <memset+0x88>
   832cc:	bc70      	pop	{r4, r5, r6}
   832ce:	4770      	bx	lr
   832d0:	4614      	mov	r4, r2
   832d2:	4603      	mov	r3, r0
   832d4:	e7c2      	b.n	8325c <memset+0x20>
   832d6:	bf00      	nop

000832d8 <__malloc_lock>:
   832d8:	4801      	ldr	r0, [pc, #4]	; (832e0 <__malloc_lock+0x8>)
   832da:	f003 bf75 	b.w	871c8 <__retarget_lock_acquire_recursive>
   832de:	bf00      	nop
   832e0:	2007276c 	.word	0x2007276c

000832e4 <__malloc_unlock>:
   832e4:	4801      	ldr	r0, [pc, #4]	; (832ec <__malloc_unlock+0x8>)
   832e6:	f003 bf71 	b.w	871cc <__retarget_lock_release_recursive>
   832ea:	bf00      	nop
   832ec:	2007276c 	.word	0x2007276c

000832f0 <_sbrk_r>:
   832f0:	b538      	push	{r3, r4, r5, lr}
   832f2:	2300      	movs	r3, #0
   832f4:	4c06      	ldr	r4, [pc, #24]	; (83310 <_sbrk_r+0x20>)
   832f6:	4605      	mov	r5, r0
   832f8:	4608      	mov	r0, r1
   832fa:	6023      	str	r3, [r4, #0]
   832fc:	f7fe fb1e 	bl	8193c <_sbrk>
   83300:	1c43      	adds	r3, r0, #1
   83302:	d000      	beq.n	83306 <_sbrk_r+0x16>
   83304:	bd38      	pop	{r3, r4, r5, pc}
   83306:	6823      	ldr	r3, [r4, #0]
   83308:	2b00      	cmp	r3, #0
   8330a:	d0fb      	beq.n	83304 <_sbrk_r+0x14>
   8330c:	602b      	str	r3, [r5, #0]
   8330e:	bd38      	pop	{r3, r4, r5, pc}
   83310:	20072780 	.word	0x20072780

00083314 <setbuf>:
   83314:	2900      	cmp	r1, #0
   83316:	bf0c      	ite	eq
   83318:	2202      	moveq	r2, #2
   8331a:	2200      	movne	r2, #0
   8331c:	f44f 6380 	mov.w	r3, #1024	; 0x400
   83320:	f000 b800 	b.w	83324 <setvbuf>

00083324 <setvbuf>:
   83324:	e92d 43f0 	stmdb	sp!, {r4, r5, r6, r7, r8, r9, lr}
   83328:	4d61      	ldr	r5, [pc, #388]	; (834b0 <setvbuf+0x18c>)
   8332a:	b083      	sub	sp, #12
   8332c:	682d      	ldr	r5, [r5, #0]
   8332e:	4604      	mov	r4, r0
   83330:	460f      	mov	r7, r1
   83332:	4690      	mov	r8, r2
   83334:	461e      	mov	r6, r3
   83336:	b115      	cbz	r5, 8333e <setvbuf+0x1a>
   83338:	6bab      	ldr	r3, [r5, #56]	; 0x38
   8333a:	2b00      	cmp	r3, #0
   8333c:	d064      	beq.n	83408 <setvbuf+0xe4>
   8333e:	f1b8 0f02 	cmp.w	r8, #2
   83342:	d006      	beq.n	83352 <setvbuf+0x2e>
   83344:	f1b8 0f01 	cmp.w	r8, #1
   83348:	f200 809f 	bhi.w	8348a <setvbuf+0x166>
   8334c:	2e00      	cmp	r6, #0
   8334e:	f2c0 809c 	blt.w	8348a <setvbuf+0x166>
   83352:	6e63      	ldr	r3, [r4, #100]	; 0x64
   83354:	07d8      	lsls	r0, r3, #31
   83356:	d534      	bpl.n	833c2 <setvbuf+0x9e>
   83358:	4621      	mov	r1, r4
   8335a:	4628      	mov	r0, r5
   8335c:	f003 fb0e 	bl	8697c <_fflush_r>
   83360:	6b21      	ldr	r1, [r4, #48]	; 0x30
   83362:	b141      	cbz	r1, 83376 <setvbuf+0x52>
   83364:	f104 0340 	add.w	r3, r4, #64	; 0x40
   83368:	4299      	cmp	r1, r3
   8336a:	d002      	beq.n	83372 <setvbuf+0x4e>
   8336c:	4628      	mov	r0, r5
   8336e:	f003 fc83 	bl	86c78 <_free_r>
   83372:	2300      	movs	r3, #0
   83374:	6323      	str	r3, [r4, #48]	; 0x30
   83376:	2200      	movs	r2, #0
   83378:	f9b4 300c 	ldrsh.w	r3, [r4, #12]
   8337c:	61a2      	str	r2, [r4, #24]
   8337e:	6062      	str	r2, [r4, #4]
   83380:	061a      	lsls	r2, r3, #24
   83382:	d43a      	bmi.n	833fa <setvbuf+0xd6>
   83384:	f423 634a 	bic.w	r3, r3, #3232	; 0xca0
   83388:	f023 0303 	bic.w	r3, r3, #3
   8338c:	f1b8 0f02 	cmp.w	r8, #2
   83390:	81a3      	strh	r3, [r4, #12]
   83392:	d01d      	beq.n	833d0 <setvbuf+0xac>
   83394:	ab01      	add	r3, sp, #4
   83396:	466a      	mov	r2, sp
   83398:	4621      	mov	r1, r4
   8339a:	4628      	mov	r0, r5
   8339c:	f003 ff18 	bl	871d0 <__swhatbuf_r>
   833a0:	89a3      	ldrh	r3, [r4, #12]
   833a2:	4318      	orrs	r0, r3
   833a4:	81a0      	strh	r0, [r4, #12]
   833a6:	2e00      	cmp	r6, #0
   833a8:	d132      	bne.n	83410 <setvbuf+0xec>
   833aa:	9e00      	ldr	r6, [sp, #0]
   833ac:	4630      	mov	r0, r6
   833ae:	f7ff fc9b 	bl	82ce8 <malloc>
   833b2:	4607      	mov	r7, r0
   833b4:	2800      	cmp	r0, #0
   833b6:	d06b      	beq.n	83490 <setvbuf+0x16c>
   833b8:	89a3      	ldrh	r3, [r4, #12]
   833ba:	f043 0380 	orr.w	r3, r3, #128	; 0x80
   833be:	81a3      	strh	r3, [r4, #12]
   833c0:	e028      	b.n	83414 <setvbuf+0xf0>
   833c2:	89a3      	ldrh	r3, [r4, #12]
   833c4:	0599      	lsls	r1, r3, #22
   833c6:	d4c7      	bmi.n	83358 <setvbuf+0x34>
   833c8:	6da0      	ldr	r0, [r4, #88]	; 0x58
   833ca:	f003 fefd 	bl	871c8 <__retarget_lock_acquire_recursive>
   833ce:	e7c3      	b.n	83358 <setvbuf+0x34>
   833d0:	2500      	movs	r5, #0
   833d2:	2600      	movs	r6, #0
   833d4:	2001      	movs	r0, #1
   833d6:	6e61      	ldr	r1, [r4, #100]	; 0x64
   833d8:	f104 0243 	add.w	r2, r4, #67	; 0x43
   833dc:	f043 0302 	orr.w	r3, r3, #2
   833e0:	60a6      	str	r6, [r4, #8]
   833e2:	07ce      	lsls	r6, r1, #31
   833e4:	81a3      	strh	r3, [r4, #12]
   833e6:	6160      	str	r0, [r4, #20]
   833e8:	6022      	str	r2, [r4, #0]
   833ea:	6122      	str	r2, [r4, #16]
   833ec:	d401      	bmi.n	833f2 <setvbuf+0xce>
   833ee:	0598      	lsls	r0, r3, #22
   833f0:	d53e      	bpl.n	83470 <setvbuf+0x14c>
   833f2:	4628      	mov	r0, r5
   833f4:	b003      	add	sp, #12
   833f6:	e8bd 83f0 	ldmia.w	sp!, {r4, r5, r6, r7, r8, r9, pc}
   833fa:	6921      	ldr	r1, [r4, #16]
   833fc:	4628      	mov	r0, r5
   833fe:	f003 fc3b 	bl	86c78 <_free_r>
   83402:	f9b4 300c 	ldrsh.w	r3, [r4, #12]
   83406:	e7bd      	b.n	83384 <setvbuf+0x60>
   83408:	4628      	mov	r0, r5
   8340a:	f003 fb0f 	bl	86a2c <__sinit>
   8340e:	e796      	b.n	8333e <setvbuf+0x1a>
   83410:	2f00      	cmp	r7, #0
   83412:	d0cb      	beq.n	833ac <setvbuf+0x88>
   83414:	6bab      	ldr	r3, [r5, #56]	; 0x38
   83416:	2b00      	cmp	r3, #0
   83418:	d033      	beq.n	83482 <setvbuf+0x15e>
   8341a:	9b00      	ldr	r3, [sp, #0]
   8341c:	f9b4 200c 	ldrsh.w	r2, [r4, #12]
   83420:	429e      	cmp	r6, r3
   83422:	bf1c      	itt	ne
   83424:	f442 6200 	orrne.w	r2, r2, #2048	; 0x800
   83428:	81a2      	strhne	r2, [r4, #12]
   8342a:	f1b8 0f01 	cmp.w	r8, #1
   8342e:	bf04      	itt	eq
   83430:	f042 0201 	orreq.w	r2, r2, #1
   83434:	81a2      	strheq	r2, [r4, #12]
   83436:	b292      	uxth	r2, r2
   83438:	f012 0308 	ands.w	r3, r2, #8
   8343c:	6027      	str	r7, [r4, #0]
   8343e:	6127      	str	r7, [r4, #16]
   83440:	6166      	str	r6, [r4, #20]
   83442:	d00e      	beq.n	83462 <setvbuf+0x13e>
   83444:	07d1      	lsls	r1, r2, #31
   83446:	d51a      	bpl.n	8347e <setvbuf+0x15a>
   83448:	2300      	movs	r3, #0
   8344a:	6e65      	ldr	r5, [r4, #100]	; 0x64
   8344c:	4276      	negs	r6, r6
   8344e:	f015 0501 	ands.w	r5, r5, #1
   83452:	61a6      	str	r6, [r4, #24]
   83454:	60a3      	str	r3, [r4, #8]
   83456:	d009      	beq.n	8346c <setvbuf+0x148>
   83458:	2500      	movs	r5, #0
   8345a:	4628      	mov	r0, r5
   8345c:	b003      	add	sp, #12
   8345e:	e8bd 83f0 	ldmia.w	sp!, {r4, r5, r6, r7, r8, r9, pc}
   83462:	60a3      	str	r3, [r4, #8]
   83464:	6e65      	ldr	r5, [r4, #100]	; 0x64
   83466:	f015 0501 	ands.w	r5, r5, #1
   8346a:	d1f5      	bne.n	83458 <setvbuf+0x134>
   8346c:	0593      	lsls	r3, r2, #22
   8346e:	d4c0      	bmi.n	833f2 <setvbuf+0xce>
   83470:	6da0      	ldr	r0, [r4, #88]	; 0x58
   83472:	f003 feab 	bl	871cc <__retarget_lock_release_recursive>
   83476:	4628      	mov	r0, r5
   83478:	b003      	add	sp, #12
   8347a:	e8bd 83f0 	ldmia.w	sp!, {r4, r5, r6, r7, r8, r9, pc}
   8347e:	60a6      	str	r6, [r4, #8]
   83480:	e7f0      	b.n	83464 <setvbuf+0x140>
   83482:	4628      	mov	r0, r5
   83484:	f003 fad2 	bl	86a2c <__sinit>
   83488:	e7c7      	b.n	8341a <setvbuf+0xf6>
   8348a:	f04f 35ff 	mov.w	r5, #4294967295
   8348e:	e7b0      	b.n	833f2 <setvbuf+0xce>
   83490:	f8dd 9000 	ldr.w	r9, [sp]
   83494:	45b1      	cmp	r9, r6
   83496:	d004      	beq.n	834a2 <setvbuf+0x17e>
   83498:	4648      	mov	r0, r9
   8349a:	f7ff fc25 	bl	82ce8 <malloc>
   8349e:	4607      	mov	r7, r0
   834a0:	b920      	cbnz	r0, 834ac <setvbuf+0x188>
   834a2:	f9b4 300c 	ldrsh.w	r3, [r4, #12]
   834a6:	f04f 35ff 	mov.w	r5, #4294967295
   834aa:	e792      	b.n	833d2 <setvbuf+0xae>
   834ac:	464e      	mov	r6, r9
   834ae:	e783      	b.n	833b8 <setvbuf+0x94>
   834b0:	20070138 	.word	0x20070138

000834b4 <sprintf>:
   834b4:	b40e      	push	{r1, r2, r3}
   834b6:	4601      	mov	r1, r0
   834b8:	b5f0      	push	{r4, r5, r6, r7, lr}
   834ba:	f06f 4500 	mvn.w	r5, #2147483648	; 0x80000000
   834be:	f44f 7702 	mov.w	r7, #520	; 0x208
   834c2:	f64f 76ff 	movw	r6, #65535	; 0xffff
   834c6:	b09c      	sub	sp, #112	; 0x70
   834c8:	ac21      	add	r4, sp, #132	; 0x84
   834ca:	f854 2b04 	ldr.w	r2, [r4], #4
   834ce:	4b0b      	ldr	r3, [pc, #44]	; (834fc <sprintf+0x48>)
   834d0:	9102      	str	r1, [sp, #8]
   834d2:	9106      	str	r1, [sp, #24]
   834d4:	6818      	ldr	r0, [r3, #0]
   834d6:	a902      	add	r1, sp, #8
   834d8:	4623      	mov	r3, r4
   834da:	9401      	str	r4, [sp, #4]
   834dc:	f8ad 7014 	strh.w	r7, [sp, #20]
   834e0:	9504      	str	r5, [sp, #16]
   834e2:	9507      	str	r5, [sp, #28]
   834e4:	f8ad 6016 	strh.w	r6, [sp, #22]
   834e8:	f000 f838 	bl	8355c <_svfprintf_r>
   834ec:	2200      	movs	r2, #0
   834ee:	9b02      	ldr	r3, [sp, #8]
   834f0:	701a      	strb	r2, [r3, #0]
   834f2:	b01c      	add	sp, #112	; 0x70
   834f4:	e8bd 40f0 	ldmia.w	sp!, {r4, r5, r6, r7, lr}
   834f8:	b003      	add	sp, #12
   834fa:	4770      	bx	lr
   834fc:	20070138 	.word	0x20070138

00083500 <strlen>:
   83500:	f020 0103 	bic.w	r1, r0, #3
   83504:	f010 0003 	ands.w	r0, r0, #3
   83508:	f1c0 0000 	rsb	r0, r0, #0
   8350c:	f851 3b04 	ldr.w	r3, [r1], #4
   83510:	f100 0c04 	add.w	ip, r0, #4
   83514:	ea4f 0ccc 	mov.w	ip, ip, lsl #3
   83518:	f06f 0200 	mvn.w	r2, #0
   8351c:	bf1c      	itt	ne
   8351e:	fa22 f20c 	lsrne.w	r2, r2, ip
   83522:	4313      	orrne	r3, r2
   83524:	f04f 0c01 	mov.w	ip, #1
   83528:	ea4c 2c0c 	orr.w	ip, ip, ip, lsl #8
   8352c:	ea4c 4c0c 	orr.w	ip, ip, ip, lsl #16
   83530:	eba3 020c 	sub.w	r2, r3, ip
   83534:	ea22 0203 	bic.w	r2, r2, r3
   83538:	ea12 12cc 	ands.w	r2, r2, ip, lsl #7
   8353c:	bf04      	itt	eq
   8353e:	f851 3b04 	ldreq.w	r3, [r1], #4
   83542:	3004      	addeq	r0, #4
   83544:	d0f4      	beq.n	83530 <strlen+0x30>
   83546:	f1c2 0100 	rsb	r1, r2, #0
   8354a:	ea02 0201 	and.w	r2, r2, r1
   8354e:	fab2 f282 	clz	r2, r2
   83552:	f1c2 021f 	rsb	r2, r2, #31
   83556:	eb00 00d2 	add.w	r0, r0, r2, lsr #3
   8355a:	4770      	bx	lr

0008355c <_svfprintf_r>:
   8355c:	e92d 4ff0 	stmdb	sp!, {r4, r5, r6, r7, r8, r9, sl, fp, lr}
   83560:	b0c3      	sub	sp, #268	; 0x10c
   83562:	460c      	mov	r4, r1
   83564:	910b      	str	r1, [sp, #44]	; 0x2c
   83566:	4692      	mov	sl, r2
   83568:	930f      	str	r3, [sp, #60]	; 0x3c
   8356a:	900c      	str	r0, [sp, #48]	; 0x30
   8356c:	f003 fe1a 	bl	871a4 <_localeconv_r>
   83570:	6803      	ldr	r3, [r0, #0]
   83572:	4618      	mov	r0, r3
   83574:	931a      	str	r3, [sp, #104]	; 0x68
   83576:	f7ff ffc3 	bl	83500 <strlen>
   8357a:	89a3      	ldrh	r3, [r4, #12]
   8357c:	9019      	str	r0, [sp, #100]	; 0x64
   8357e:	0619      	lsls	r1, r3, #24
   83580:	d503      	bpl.n	8358a <_svfprintf_r+0x2e>
   83582:	6923      	ldr	r3, [r4, #16]
   83584:	2b00      	cmp	r3, #0
   83586:	f001 8035 	beq.w	845f4 <_svfprintf_r+0x1098>
   8358a:	2300      	movs	r3, #0
   8358c:	f10d 09c8 	add.w	r9, sp, #200	; 0xc8
   83590:	46c8      	mov	r8, r9
   83592:	9315      	str	r3, [sp, #84]	; 0x54
   83594:	9313      	str	r3, [sp, #76]	; 0x4c
   83596:	9314      	str	r3, [sp, #80]	; 0x50
   83598:	9318      	str	r3, [sp, #96]	; 0x60
   8359a:	931b      	str	r3, [sp, #108]	; 0x6c
   8359c:	9309      	str	r3, [sp, #36]	; 0x24
   8359e:	9316      	str	r3, [sp, #88]	; 0x58
   835a0:	9317      	str	r3, [sp, #92]	; 0x5c
   835a2:	9327      	str	r3, [sp, #156]	; 0x9c
   835a4:	9326      	str	r3, [sp, #152]	; 0x98
   835a6:	f8cd 9094 	str.w	r9, [sp, #148]	; 0x94
   835aa:	f89a 3000 	ldrb.w	r3, [sl]
   835ae:	4654      	mov	r4, sl
   835b0:	b1eb      	cbz	r3, 835ee <_svfprintf_r+0x92>
   835b2:	2b25      	cmp	r3, #37	; 0x25
   835b4:	d102      	bne.n	835bc <_svfprintf_r+0x60>
   835b6:	e01a      	b.n	835ee <_svfprintf_r+0x92>
   835b8:	2b25      	cmp	r3, #37	; 0x25
   835ba:	d003      	beq.n	835c4 <_svfprintf_r+0x68>
   835bc:	f814 3f01 	ldrb.w	r3, [r4, #1]!
   835c0:	2b00      	cmp	r3, #0
   835c2:	d1f9      	bne.n	835b8 <_svfprintf_r+0x5c>
   835c4:	eba4 050a 	sub.w	r5, r4, sl
   835c8:	b18d      	cbz	r5, 835ee <_svfprintf_r+0x92>
   835ca:	9b26      	ldr	r3, [sp, #152]	; 0x98
   835cc:	9a27      	ldr	r2, [sp, #156]	; 0x9c
   835ce:	3301      	adds	r3, #1
   835d0:	442a      	add	r2, r5
   835d2:	2b07      	cmp	r3, #7
   835d4:	f8c8 a000 	str.w	sl, [r8]
   835d8:	f8c8 5004 	str.w	r5, [r8, #4]
   835dc:	9227      	str	r2, [sp, #156]	; 0x9c
   835de:	9326      	str	r3, [sp, #152]	; 0x98
   835e0:	f300 808a 	bgt.w	836f8 <_svfprintf_r+0x19c>
   835e4:	f108 0808 	add.w	r8, r8, #8
   835e8:	9b09      	ldr	r3, [sp, #36]	; 0x24
   835ea:	442b      	add	r3, r5
   835ec:	9309      	str	r3, [sp, #36]	; 0x24
   835ee:	7823      	ldrb	r3, [r4, #0]
   835f0:	2b00      	cmp	r3, #0
   835f2:	f000 8089 	beq.w	83708 <_svfprintf_r+0x1ac>
   835f6:	2300      	movs	r3, #0
   835f8:	f04f 30ff 	mov.w	r0, #4294967295
   835fc:	461a      	mov	r2, r3
   835fe:	f88d 3077 	strb.w	r3, [sp, #119]	; 0x77
   83602:	4619      	mov	r1, r3
   83604:	930d      	str	r3, [sp, #52]	; 0x34
   83606:	469b      	mov	fp, r3
   83608:	7863      	ldrb	r3, [r4, #1]
   8360a:	f104 0a01 	add.w	sl, r4, #1
   8360e:	900a      	str	r0, [sp, #40]	; 0x28
   83610:	f10a 0a01 	add.w	sl, sl, #1
   83614:	f1a3 0020 	sub.w	r0, r3, #32
   83618:	2858      	cmp	r0, #88	; 0x58
   8361a:	f200 83b7 	bhi.w	83d8c <_svfprintf_r+0x830>
   8361e:	e8df f010 	tbh	[pc, r0, lsl #1]
   83622:	034c      	.short	0x034c
   83624:	03b503b5 	.word	0x03b503b5
   83628:	03b50354 	.word	0x03b50354
   8362c:	03b503b5 	.word	0x03b503b5
   83630:	03b503b5 	.word	0x03b503b5
   83634:	005903b5 	.word	0x005903b5
   83638:	03b50359 	.word	0x03b50359
   8363c:	02140066 	.word	0x02140066
   83640:	022f03b5 	.word	0x022f03b5
   83644:	03a503a5 	.word	0x03a503a5
   83648:	03a503a5 	.word	0x03a503a5
   8364c:	03a503a5 	.word	0x03a503a5
   83650:	03a503a5 	.word	0x03a503a5
   83654:	03b503a5 	.word	0x03b503a5
   83658:	03b503b5 	.word	0x03b503b5
   8365c:	03b503b5 	.word	0x03b503b5
   83660:	03b503b5 	.word	0x03b503b5
   83664:	03b503b5 	.word	0x03b503b5
   83668:	028b03b5 	.word	0x028b03b5
   8366c:	03b502d3 	.word	0x03b502d3
   83670:	03b502d3 	.word	0x03b502d3
   83674:	03b503b5 	.word	0x03b503b5
   83678:	031b03b5 	.word	0x031b03b5
   8367c:	03b503b5 	.word	0x03b503b5
   83680:	03b50320 	.word	0x03b50320
   83684:	03b503b5 	.word	0x03b503b5
   83688:	03b503b5 	.word	0x03b503b5
   8368c:	03b50234 	.word	0x03b50234
   83690:	024b03b5 	.word	0x024b03b5
   83694:	03b503b5 	.word	0x03b503b5
   83698:	03b503b5 	.word	0x03b503b5
   8369c:	03b503b5 	.word	0x03b503b5
   836a0:	03b503b5 	.word	0x03b503b5
   836a4:	03b503b5 	.word	0x03b503b5
   836a8:	039e0276 	.word	0x039e0276
   836ac:	02d302d3 	.word	0x02d302d3
   836b0:	036302d3 	.word	0x036302d3
   836b4:	03b5039e 	.word	0x03b5039e
   836b8:	036803b5 	.word	0x036803b5
   836bc:	037503b5 	.word	0x037503b5
   836c0:	038c01dd 	.word	0x038c01dd
   836c4:	03b5035e 	.word	0x03b5035e
   836c8:	03b501f2 	.word	0x03b501f2
   836cc:	03b50087 	.word	0x03b50087
   836d0:	033203b5 	.word	0x033203b5
   836d4:	9c0f      	ldr	r4, [sp, #60]	; 0x3c
   836d6:	6823      	ldr	r3, [r4, #0]
   836d8:	4618      	mov	r0, r3
   836da:	930d      	str	r3, [sp, #52]	; 0x34
   836dc:	4623      	mov	r3, r4
   836de:	2800      	cmp	r0, #0
   836e0:	f103 0304 	add.w	r3, r3, #4
   836e4:	930f      	str	r3, [sp, #60]	; 0x3c
   836e6:	da04      	bge.n	836f2 <_svfprintf_r+0x196>
   836e8:	9b0d      	ldr	r3, [sp, #52]	; 0x34
   836ea:	425b      	negs	r3, r3
   836ec:	930d      	str	r3, [sp, #52]	; 0x34
   836ee:	f04b 0b04 	orr.w	fp, fp, #4
   836f2:	f89a 3000 	ldrb.w	r3, [sl]
   836f6:	e78b      	b.n	83610 <_svfprintf_r+0xb4>
   836f8:	aa25      	add	r2, sp, #148	; 0x94
   836fa:	990b      	ldr	r1, [sp, #44]	; 0x2c
   836fc:	980c      	ldr	r0, [sp, #48]	; 0x30
   836fe:	f004 fc0b 	bl	87f18 <__ssprint_r>
   83702:	b940      	cbnz	r0, 83716 <_svfprintf_r+0x1ba>
   83704:	46c8      	mov	r8, r9
   83706:	e76f      	b.n	835e8 <_svfprintf_r+0x8c>
   83708:	9b27      	ldr	r3, [sp, #156]	; 0x9c
   8370a:	b123      	cbz	r3, 83716 <_svfprintf_r+0x1ba>
   8370c:	980c      	ldr	r0, [sp, #48]	; 0x30
   8370e:	aa25      	add	r2, sp, #148	; 0x94
   83710:	990b      	ldr	r1, [sp, #44]	; 0x2c
   83712:	f004 fc01 	bl	87f18 <__ssprint_r>
   83716:	9b0b      	ldr	r3, [sp, #44]	; 0x2c
   83718:	899b      	ldrh	r3, [r3, #12]
   8371a:	f013 0f40 	tst.w	r3, #64	; 0x40
   8371e:	9b09      	ldr	r3, [sp, #36]	; 0x24
   83720:	bf18      	it	ne
   83722:	f04f 33ff 	movne.w	r3, #4294967295
   83726:	9309      	str	r3, [sp, #36]	; 0x24
   83728:	9809      	ldr	r0, [sp, #36]	; 0x24
   8372a:	b043      	add	sp, #268	; 0x10c
   8372c:	e8bd 8ff0 	ldmia.w	sp!, {r4, r5, r6, r7, r8, r9, sl, fp, pc}
   83730:	f01b 0f20 	tst.w	fp, #32
   83734:	9311      	str	r3, [sp, #68]	; 0x44
   83736:	f040 81af 	bne.w	83a98 <_svfprintf_r+0x53c>
   8373a:	9a0f      	ldr	r2, [sp, #60]	; 0x3c
   8373c:	f01b 0f10 	tst.w	fp, #16
   83740:	4613      	mov	r3, r2
   83742:	f040 859a 	bne.w	8427a <_svfprintf_r+0xd1e>
   83746:	f01b 0f40 	tst.w	fp, #64	; 0x40
   8374a:	f000 8596 	beq.w	8427a <_svfprintf_r+0xd1e>
   8374e:	2500      	movs	r5, #0
   83750:	2301      	movs	r3, #1
   83752:	8814      	ldrh	r4, [r2, #0]
   83754:	3204      	adds	r2, #4
   83756:	920f      	str	r2, [sp, #60]	; 0x3c
   83758:	2200      	movs	r2, #0
   8375a:	4617      	mov	r7, r2
   8375c:	f88d 2077 	strb.w	r2, [sp, #119]	; 0x77
   83760:	990a      	ldr	r1, [sp, #40]	; 0x28
   83762:	1c4a      	adds	r2, r1, #1
   83764:	f000 8210 	beq.w	83b88 <_svfprintf_r+0x62c>
   83768:	f02b 0280 	bic.w	r2, fp, #128	; 0x80
   8376c:	9207      	str	r2, [sp, #28]
   8376e:	ea54 0205 	orrs.w	r2, r4, r5
   83772:	f040 820f 	bne.w	83b94 <_svfprintf_r+0x638>
   83776:	2900      	cmp	r1, #0
   83778:	f040 8431 	bne.w	83fde <_svfprintf_r+0xa82>
   8377c:	2b00      	cmp	r3, #0
   8377e:	f040 8539 	bne.w	841f4 <_svfprintf_r+0xc98>
   83782:	f01b 0301 	ands.w	r3, fp, #1
   83786:	930e      	str	r3, [sp, #56]	; 0x38
   83788:	f000 8662 	beq.w	84450 <_svfprintf_r+0xef4>
   8378c:	2330      	movs	r3, #48	; 0x30
   8378e:	ae42      	add	r6, sp, #264	; 0x108
   83790:	f806 3d41 	strb.w	r3, [r6, #-65]!
   83794:	9b0a      	ldr	r3, [sp, #40]	; 0x28
   83796:	9a0e      	ldr	r2, [sp, #56]	; 0x38
   83798:	4293      	cmp	r3, r2
   8379a:	bfb8      	it	lt
   8379c:	4613      	movlt	r3, r2
   8379e:	9308      	str	r3, [sp, #32]
   837a0:	2300      	movs	r3, #0
   837a2:	9312      	str	r3, [sp, #72]	; 0x48
   837a4:	b117      	cbz	r7, 837ac <_svfprintf_r+0x250>
   837a6:	9b08      	ldr	r3, [sp, #32]
   837a8:	3301      	adds	r3, #1
   837aa:	9308      	str	r3, [sp, #32]
   837ac:	9b07      	ldr	r3, [sp, #28]
   837ae:	f013 0302 	ands.w	r3, r3, #2
   837b2:	9310      	str	r3, [sp, #64]	; 0x40
   837b4:	d002      	beq.n	837bc <_svfprintf_r+0x260>
   837b6:	9b08      	ldr	r3, [sp, #32]
   837b8:	3302      	adds	r3, #2
   837ba:	9308      	str	r3, [sp, #32]
   837bc:	9b07      	ldr	r3, [sp, #28]
   837be:	f013 0584 	ands.w	r5, r3, #132	; 0x84
   837c2:	f040 8310 	bne.w	83de6 <_svfprintf_r+0x88a>
   837c6:	9b0d      	ldr	r3, [sp, #52]	; 0x34
   837c8:	9a08      	ldr	r2, [sp, #32]
   837ca:	eba3 0b02 	sub.w	fp, r3, r2
   837ce:	f1bb 0f00 	cmp.w	fp, #0
   837d2:	f340 8308 	ble.w	83de6 <_svfprintf_r+0x88a>
   837d6:	f1bb 0f10 	cmp.w	fp, #16
   837da:	f340 87b2 	ble.w	84742 <_svfprintf_r+0x11e6>
   837de:	9c27      	ldr	r4, [sp, #156]	; 0x9c
   837e0:	4643      	mov	r3, r8
   837e2:	4621      	mov	r1, r4
   837e4:	46a8      	mov	r8, r5
   837e6:	2710      	movs	r7, #16
   837e8:	9a26      	ldr	r2, [sp, #152]	; 0x98
   837ea:	9c0c      	ldr	r4, [sp, #48]	; 0x30
   837ec:	9d0b      	ldr	r5, [sp, #44]	; 0x2c
   837ee:	e006      	b.n	837fe <_svfprintf_r+0x2a2>
   837f0:	f1ab 0b10 	sub.w	fp, fp, #16
   837f4:	f1bb 0f10 	cmp.w	fp, #16
   837f8:	f103 0308 	add.w	r3, r3, #8
   837fc:	dd18      	ble.n	83830 <_svfprintf_r+0x2d4>
   837fe:	3201      	adds	r2, #1
   83800:	48ab      	ldr	r0, [pc, #684]	; (83ab0 <_svfprintf_r+0x554>)
   83802:	3110      	adds	r1, #16
   83804:	2a07      	cmp	r2, #7
   83806:	9127      	str	r1, [sp, #156]	; 0x9c
   83808:	9226      	str	r2, [sp, #152]	; 0x98
   8380a:	e883 0081 	stmia.w	r3, {r0, r7}
   8380e:	ddef      	ble.n	837f0 <_svfprintf_r+0x294>
   83810:	aa25      	add	r2, sp, #148	; 0x94
   83812:	4629      	mov	r1, r5
   83814:	4620      	mov	r0, r4
   83816:	f004 fb7f 	bl	87f18 <__ssprint_r>
   8381a:	2800      	cmp	r0, #0
   8381c:	f47f af7b 	bne.w	83716 <_svfprintf_r+0x1ba>
   83820:	f1ab 0b10 	sub.w	fp, fp, #16
   83824:	f1bb 0f10 	cmp.w	fp, #16
   83828:	464b      	mov	r3, r9
   8382a:	9927      	ldr	r1, [sp, #156]	; 0x9c
   8382c:	9a26      	ldr	r2, [sp, #152]	; 0x98
   8382e:	dce6      	bgt.n	837fe <_svfprintf_r+0x2a2>
   83830:	4645      	mov	r5, r8
   83832:	460c      	mov	r4, r1
   83834:	4698      	mov	r8, r3
   83836:	3201      	adds	r2, #1
   83838:	4b9d      	ldr	r3, [pc, #628]	; (83ab0 <_svfprintf_r+0x554>)
   8383a:	445c      	add	r4, fp
   8383c:	2a07      	cmp	r2, #7
   8383e:	9427      	str	r4, [sp, #156]	; 0x9c
   83840:	9226      	str	r2, [sp, #152]	; 0x98
   83842:	e888 0808 	stmia.w	r8, {r3, fp}
   83846:	f300 82c3 	bgt.w	83dd0 <_svfprintf_r+0x874>
   8384a:	f89d 7077 	ldrb.w	r7, [sp, #119]	; 0x77
   8384e:	f108 0808 	add.w	r8, r8, #8
   83852:	b187      	cbz	r7, 83876 <_svfprintf_r+0x31a>
   83854:	2101      	movs	r1, #1
   83856:	9b26      	ldr	r3, [sp, #152]	; 0x98
   83858:	440c      	add	r4, r1
   8385a:	440b      	add	r3, r1
   8385c:	f10d 0277 	add.w	r2, sp, #119	; 0x77
   83860:	2b07      	cmp	r3, #7
   83862:	9427      	str	r4, [sp, #156]	; 0x9c
   83864:	9326      	str	r3, [sp, #152]	; 0x98
   83866:	f8c8 1004 	str.w	r1, [r8, #4]
   8386a:	f8c8 2000 	str.w	r2, [r8]
   8386e:	f300 83cd 	bgt.w	8400c <_svfprintf_r+0xab0>
   83872:	f108 0808 	add.w	r8, r8, #8
   83876:	9b10      	ldr	r3, [sp, #64]	; 0x40
   83878:	b17b      	cbz	r3, 8389a <_svfprintf_r+0x33e>
   8387a:	2102      	movs	r1, #2
   8387c:	9b26      	ldr	r3, [sp, #152]	; 0x98
   8387e:	440c      	add	r4, r1
   83880:	3301      	adds	r3, #1
   83882:	aa1e      	add	r2, sp, #120	; 0x78
   83884:	2b07      	cmp	r3, #7
   83886:	9427      	str	r4, [sp, #156]	; 0x9c
   83888:	9326      	str	r3, [sp, #152]	; 0x98
   8388a:	f8c8 1004 	str.w	r1, [r8, #4]
   8388e:	f8c8 2000 	str.w	r2, [r8]
   83892:	f300 8411 	bgt.w	840b8 <_svfprintf_r+0xb5c>
   83896:	f108 0808 	add.w	r8, r8, #8
   8389a:	2d80      	cmp	r5, #128	; 0x80
   8389c:	f000 8304 	beq.w	83ea8 <_svfprintf_r+0x94c>
   838a0:	9b0a      	ldr	r3, [sp, #40]	; 0x28
   838a2:	9a0e      	ldr	r2, [sp, #56]	; 0x38
   838a4:	1a9f      	subs	r7, r3, r2
   838a6:	2f00      	cmp	r7, #0
   838a8:	dd37      	ble.n	8391a <_svfprintf_r+0x3be>
   838aa:	2f10      	cmp	r7, #16
   838ac:	f340 8679 	ble.w	845a2 <_svfprintf_r+0x1046>
   838b0:	4d80      	ldr	r5, [pc, #512]	; (83ab4 <_svfprintf_r+0x558>)
   838b2:	4642      	mov	r2, r8
   838b4:	4621      	mov	r1, r4
   838b6:	46b0      	mov	r8, r6
   838b8:	f04f 0b10 	mov.w	fp, #16
   838bc:	462e      	mov	r6, r5
   838be:	9b26      	ldr	r3, [sp, #152]	; 0x98
   838c0:	9c0c      	ldr	r4, [sp, #48]	; 0x30
   838c2:	9d0b      	ldr	r5, [sp, #44]	; 0x2c
   838c4:	e004      	b.n	838d0 <_svfprintf_r+0x374>
   838c6:	3f10      	subs	r7, #16
   838c8:	2f10      	cmp	r7, #16
   838ca:	f102 0208 	add.w	r2, r2, #8
   838ce:	dd15      	ble.n	838fc <_svfprintf_r+0x3a0>
   838d0:	3301      	adds	r3, #1
   838d2:	3110      	adds	r1, #16
   838d4:	2b07      	cmp	r3, #7
   838d6:	9127      	str	r1, [sp, #156]	; 0x9c
   838d8:	9326      	str	r3, [sp, #152]	; 0x98
   838da:	e882 0840 	stmia.w	r2, {r6, fp}
   838de:	ddf2      	ble.n	838c6 <_svfprintf_r+0x36a>
   838e0:	aa25      	add	r2, sp, #148	; 0x94
   838e2:	4629      	mov	r1, r5
   838e4:	4620      	mov	r0, r4
   838e6:	f004 fb17 	bl	87f18 <__ssprint_r>
   838ea:	2800      	cmp	r0, #0
   838ec:	f47f af13 	bne.w	83716 <_svfprintf_r+0x1ba>
   838f0:	3f10      	subs	r7, #16
   838f2:	2f10      	cmp	r7, #16
   838f4:	464a      	mov	r2, r9
   838f6:	9927      	ldr	r1, [sp, #156]	; 0x9c
   838f8:	9b26      	ldr	r3, [sp, #152]	; 0x98
   838fa:	dce9      	bgt.n	838d0 <_svfprintf_r+0x374>
   838fc:	4635      	mov	r5, r6
   838fe:	460c      	mov	r4, r1
   83900:	4646      	mov	r6, r8
   83902:	4690      	mov	r8, r2
   83904:	3301      	adds	r3, #1
   83906:	443c      	add	r4, r7
   83908:	2b07      	cmp	r3, #7
   8390a:	9427      	str	r4, [sp, #156]	; 0x9c
   8390c:	9326      	str	r3, [sp, #152]	; 0x98
   8390e:	e888 00a0 	stmia.w	r8, {r5, r7}
   83912:	f300 8370 	bgt.w	83ff6 <_svfprintf_r+0xa9a>
   83916:	f108 0808 	add.w	r8, r8, #8
   8391a:	9b07      	ldr	r3, [sp, #28]
   8391c:	05df      	lsls	r7, r3, #23
   8391e:	f100 8264 	bmi.w	83dea <_svfprintf_r+0x88e>
   83922:	9b26      	ldr	r3, [sp, #152]	; 0x98
   83924:	990e      	ldr	r1, [sp, #56]	; 0x38
   83926:	3301      	adds	r3, #1
   83928:	440c      	add	r4, r1
   8392a:	2b07      	cmp	r3, #7
   8392c:	9427      	str	r4, [sp, #156]	; 0x9c
   8392e:	f8c8 6000 	str.w	r6, [r8]
   83932:	f8c8 1004 	str.w	r1, [r8, #4]
   83936:	9326      	str	r3, [sp, #152]	; 0x98
   83938:	f300 83b3 	bgt.w	840a2 <_svfprintf_r+0xb46>
   8393c:	f108 0808 	add.w	r8, r8, #8
   83940:	9b07      	ldr	r3, [sp, #28]
   83942:	075b      	lsls	r3, r3, #29
   83944:	d53b      	bpl.n	839be <_svfprintf_r+0x462>
   83946:	9b0d      	ldr	r3, [sp, #52]	; 0x34
   83948:	9a08      	ldr	r2, [sp, #32]
   8394a:	1a9d      	subs	r5, r3, r2
   8394c:	2d00      	cmp	r5, #0
   8394e:	dd36      	ble.n	839be <_svfprintf_r+0x462>
   83950:	2d10      	cmp	r5, #16
   83952:	f340 8721 	ble.w	84798 <_svfprintf_r+0x123c>
   83956:	2610      	movs	r6, #16
   83958:	9b26      	ldr	r3, [sp, #152]	; 0x98
   8395a:	9f0c      	ldr	r7, [sp, #48]	; 0x30
   8395c:	f8dd b02c 	ldr.w	fp, [sp, #44]	; 0x2c
   83960:	e004      	b.n	8396c <_svfprintf_r+0x410>
   83962:	3d10      	subs	r5, #16
   83964:	2d10      	cmp	r5, #16
   83966:	f108 0808 	add.w	r8, r8, #8
   8396a:	dd16      	ble.n	8399a <_svfprintf_r+0x43e>
   8396c:	3301      	adds	r3, #1
   8396e:	4a50      	ldr	r2, [pc, #320]	; (83ab0 <_svfprintf_r+0x554>)
   83970:	3410      	adds	r4, #16
   83972:	2b07      	cmp	r3, #7
   83974:	9427      	str	r4, [sp, #156]	; 0x9c
   83976:	9326      	str	r3, [sp, #152]	; 0x98
   83978:	e888 0044 	stmia.w	r8, {r2, r6}
   8397c:	ddf1      	ble.n	83962 <_svfprintf_r+0x406>
   8397e:	aa25      	add	r2, sp, #148	; 0x94
   83980:	4659      	mov	r1, fp
   83982:	4638      	mov	r0, r7
   83984:	f004 fac8 	bl	87f18 <__ssprint_r>
   83988:	2800      	cmp	r0, #0
   8398a:	f47f aec4 	bne.w	83716 <_svfprintf_r+0x1ba>
   8398e:	3d10      	subs	r5, #16
   83990:	2d10      	cmp	r5, #16
   83992:	46c8      	mov	r8, r9
   83994:	9c27      	ldr	r4, [sp, #156]	; 0x9c
   83996:	9b26      	ldr	r3, [sp, #152]	; 0x98
   83998:	dce8      	bgt.n	8396c <_svfprintf_r+0x410>
   8399a:	3301      	adds	r3, #1
   8399c:	4a44      	ldr	r2, [pc, #272]	; (83ab0 <_svfprintf_r+0x554>)
   8399e:	442c      	add	r4, r5
   839a0:	2b07      	cmp	r3, #7
   839a2:	9427      	str	r4, [sp, #156]	; 0x9c
   839a4:	9326      	str	r3, [sp, #152]	; 0x98
   839a6:	e888 0024 	stmia.w	r8, {r2, r5}
   839aa:	dd08      	ble.n	839be <_svfprintf_r+0x462>
   839ac:	aa25      	add	r2, sp, #148	; 0x94
   839ae:	990b      	ldr	r1, [sp, #44]	; 0x2c
   839b0:	980c      	ldr	r0, [sp, #48]	; 0x30
   839b2:	f004 fab1 	bl	87f18 <__ssprint_r>
   839b6:	2800      	cmp	r0, #0
   839b8:	f47f aead 	bne.w	83716 <_svfprintf_r+0x1ba>
   839bc:	9c27      	ldr	r4, [sp, #156]	; 0x9c
   839be:	9b09      	ldr	r3, [sp, #36]	; 0x24
   839c0:	9a0d      	ldr	r2, [sp, #52]	; 0x34
   839c2:	9908      	ldr	r1, [sp, #32]
   839c4:	428a      	cmp	r2, r1
   839c6:	bfac      	ite	ge
   839c8:	189b      	addge	r3, r3, r2
   839ca:	185b      	addlt	r3, r3, r1
   839cc:	9309      	str	r3, [sp, #36]	; 0x24
   839ce:	2c00      	cmp	r4, #0
   839d0:	f040 82fb 	bne.w	83fca <_svfprintf_r+0xa6e>
   839d4:	2300      	movs	r3, #0
   839d6:	46c8      	mov	r8, r9
   839d8:	9326      	str	r3, [sp, #152]	; 0x98
   839da:	e5e6      	b.n	835aa <_svfprintf_r+0x4e>
   839dc:	9311      	str	r3, [sp, #68]	; 0x44
   839de:	f01b 0320 	ands.w	r3, fp, #32
   839e2:	f040 8145 	bne.w	83c70 <_svfprintf_r+0x714>
   839e6:	f01b 0210 	ands.w	r2, fp, #16
   839ea:	f040 8466 	bne.w	842ba <_svfprintf_r+0xd5e>
   839ee:	f01b 0340 	ands.w	r3, fp, #64	; 0x40
   839f2:	f000 8462 	beq.w	842ba <_svfprintf_r+0xd5e>
   839f6:	990f      	ldr	r1, [sp, #60]	; 0x3c
   839f8:	4613      	mov	r3, r2
   839fa:	460a      	mov	r2, r1
   839fc:	3204      	adds	r2, #4
   839fe:	880c      	ldrh	r4, [r1, #0]
   83a00:	2500      	movs	r5, #0
   83a02:	920f      	str	r2, [sp, #60]	; 0x3c
   83a04:	e6a8      	b.n	83758 <_svfprintf_r+0x1fc>
   83a06:	2500      	movs	r5, #0
   83a08:	9a0f      	ldr	r2, [sp, #60]	; 0x3c
   83a0a:	9311      	str	r3, [sp, #68]	; 0x44
   83a0c:	6816      	ldr	r6, [r2, #0]
   83a0e:	f88d 5077 	strb.w	r5, [sp, #119]	; 0x77
   83a12:	1d14      	adds	r4, r2, #4
   83a14:	2e00      	cmp	r6, #0
   83a16:	f000 86cd 	beq.w	847b4 <_svfprintf_r+0x1258>
   83a1a:	9a0a      	ldr	r2, [sp, #40]	; 0x28
   83a1c:	1c53      	adds	r3, r2, #1
   83a1e:	f000 861b 	beq.w	84658 <_svfprintf_r+0x10fc>
   83a22:	4629      	mov	r1, r5
   83a24:	4630      	mov	r0, r6
   83a26:	f003 fc61 	bl	872ec <memchr>
   83a2a:	2800      	cmp	r0, #0
   83a2c:	f000 870d 	beq.w	8484a <_svfprintf_r+0x12ee>
   83a30:	1b83      	subs	r3, r0, r6
   83a32:	950a      	str	r5, [sp, #40]	; 0x28
   83a34:	930e      	str	r3, [sp, #56]	; 0x38
   83a36:	940f      	str	r4, [sp, #60]	; 0x3c
   83a38:	f8cd b01c 	str.w	fp, [sp, #28]
   83a3c:	ea23 73e3 	bic.w	r3, r3, r3, asr #31
   83a40:	9308      	str	r3, [sp, #32]
   83a42:	9512      	str	r5, [sp, #72]	; 0x48
   83a44:	f89d 7077 	ldrb.w	r7, [sp, #119]	; 0x77
   83a48:	e6ac      	b.n	837a4 <_svfprintf_r+0x248>
   83a4a:	f89a 3000 	ldrb.w	r3, [sl]
   83a4e:	f10a 0401 	add.w	r4, sl, #1
   83a52:	2b2a      	cmp	r3, #42	; 0x2a
   83a54:	f000 87c2 	beq.w	849dc <_svfprintf_r+0x1480>
   83a58:	f1a3 0030 	sub.w	r0, r3, #48	; 0x30
   83a5c:	2809      	cmp	r0, #9
   83a5e:	46a2      	mov	sl, r4
   83a60:	f200 8718 	bhi.w	84894 <_svfprintf_r+0x1338>
   83a64:	2300      	movs	r3, #0
   83a66:	461c      	mov	r4, r3
   83a68:	f81a 3b01 	ldrb.w	r3, [sl], #1
   83a6c:	eb04 0484 	add.w	r4, r4, r4, lsl #2
   83a70:	eb00 0444 	add.w	r4, r0, r4, lsl #1
   83a74:	f1a3 0030 	sub.w	r0, r3, #48	; 0x30
   83a78:	2809      	cmp	r0, #9
   83a7a:	d9f5      	bls.n	83a68 <_svfprintf_r+0x50c>
   83a7c:	940a      	str	r4, [sp, #40]	; 0x28
   83a7e:	e5c9      	b.n	83614 <_svfprintf_r+0xb8>
   83a80:	f04b 0b80 	orr.w	fp, fp, #128	; 0x80
   83a84:	f89a 3000 	ldrb.w	r3, [sl]
   83a88:	e5c2      	b.n	83610 <_svfprintf_r+0xb4>
   83a8a:	f04b 0b10 	orr.w	fp, fp, #16
   83a8e:	f01b 0f20 	tst.w	fp, #32
   83a92:	9311      	str	r3, [sp, #68]	; 0x44
   83a94:	f43f ae51 	beq.w	8373a <_svfprintf_r+0x1de>
   83a98:	9c0f      	ldr	r4, [sp, #60]	; 0x3c
   83a9a:	3407      	adds	r4, #7
   83a9c:	f024 0307 	bic.w	r3, r4, #7
   83aa0:	f103 0208 	add.w	r2, r3, #8
   83aa4:	e9d3 4500 	ldrd	r4, r5, [r3]
   83aa8:	920f      	str	r2, [sp, #60]	; 0x3c
   83aaa:	2301      	movs	r3, #1
   83aac:	e654      	b.n	83758 <_svfprintf_r+0x1fc>
   83aae:	bf00      	nop
   83ab0:	00088820 	.word	0x00088820
   83ab4:	00088830 	.word	0x00088830
   83ab8:	9311      	str	r3, [sp, #68]	; 0x44
   83aba:	2a00      	cmp	r2, #0
   83abc:	f040 87ad 	bne.w	84a1a <_svfprintf_r+0x14be>
   83ac0:	4bbe      	ldr	r3, [pc, #760]	; (83dbc <_svfprintf_r+0x860>)
   83ac2:	f01b 0f20 	tst.w	fp, #32
   83ac6:	9318      	str	r3, [sp, #96]	; 0x60
   83ac8:	f040 80e7 	bne.w	83c9a <_svfprintf_r+0x73e>
   83acc:	9a0f      	ldr	r2, [sp, #60]	; 0x3c
   83ace:	f01b 0f10 	tst.w	fp, #16
   83ad2:	4613      	mov	r3, r2
   83ad4:	f040 83d8 	bne.w	84288 <_svfprintf_r+0xd2c>
   83ad8:	f01b 0f40 	tst.w	fp, #64	; 0x40
   83adc:	f000 83d4 	beq.w	84288 <_svfprintf_r+0xd2c>
   83ae0:	2500      	movs	r5, #0
   83ae2:	3304      	adds	r3, #4
   83ae4:	8814      	ldrh	r4, [r2, #0]
   83ae6:	930f      	str	r3, [sp, #60]	; 0x3c
   83ae8:	f01b 0f01 	tst.w	fp, #1
   83aec:	f000 80e3 	beq.w	83cb6 <_svfprintf_r+0x75a>
   83af0:	ea54 0305 	orrs.w	r3, r4, r5
   83af4:	f000 80df 	beq.w	83cb6 <_svfprintf_r+0x75a>
   83af8:	2330      	movs	r3, #48	; 0x30
   83afa:	f89d 2044 	ldrb.w	r2, [sp, #68]	; 0x44
   83afe:	f88d 3078 	strb.w	r3, [sp, #120]	; 0x78
   83b02:	f88d 2079 	strb.w	r2, [sp, #121]	; 0x79
   83b06:	f04b 0b02 	orr.w	fp, fp, #2
   83b0a:	2302      	movs	r3, #2
   83b0c:	e624      	b.n	83758 <_svfprintf_r+0x1fc>
   83b0e:	2201      	movs	r2, #1
   83b10:	9311      	str	r3, [sp, #68]	; 0x44
   83b12:	2300      	movs	r3, #0
   83b14:	4611      	mov	r1, r2
   83b16:	980f      	ldr	r0, [sp, #60]	; 0x3c
   83b18:	9208      	str	r2, [sp, #32]
   83b1a:	6802      	ldr	r2, [r0, #0]
   83b1c:	461f      	mov	r7, r3
   83b1e:	f88d 3077 	strb.w	r3, [sp, #119]	; 0x77
   83b22:	930a      	str	r3, [sp, #40]	; 0x28
   83b24:	9312      	str	r3, [sp, #72]	; 0x48
   83b26:	1d03      	adds	r3, r0, #4
   83b28:	f8cd b01c 	str.w	fp, [sp, #28]
   83b2c:	910e      	str	r1, [sp, #56]	; 0x38
   83b2e:	f88d 20a0 	strb.w	r2, [sp, #160]	; 0xa0
   83b32:	930f      	str	r3, [sp, #60]	; 0x3c
   83b34:	ae28      	add	r6, sp, #160	; 0xa0
   83b36:	e639      	b.n	837ac <_svfprintf_r+0x250>
   83b38:	9311      	str	r3, [sp, #68]	; 0x44
   83b3a:	2a00      	cmp	r2, #0
   83b3c:	f040 8784 	bne.w	84a48 <_svfprintf_r+0x14ec>
   83b40:	f04b 0b10 	orr.w	fp, fp, #16
   83b44:	f01b 0f20 	tst.w	fp, #32
   83b48:	f040 8475 	bne.w	84436 <_svfprintf_r+0xeda>
   83b4c:	9a0f      	ldr	r2, [sp, #60]	; 0x3c
   83b4e:	f01b 0f10 	tst.w	fp, #16
   83b52:	4613      	mov	r3, r2
   83b54:	f040 839d 	bne.w	84292 <_svfprintf_r+0xd36>
   83b58:	f01b 0f40 	tst.w	fp, #64	; 0x40
   83b5c:	f000 8399 	beq.w	84292 <_svfprintf_r+0xd36>
   83b60:	f9b2 4000 	ldrsh.w	r4, [r2]
   83b64:	3304      	adds	r3, #4
   83b66:	17e5      	asrs	r5, r4, #31
   83b68:	930f      	str	r3, [sp, #60]	; 0x3c
   83b6a:	4622      	mov	r2, r4
   83b6c:	462b      	mov	r3, r5
   83b6e:	2a00      	cmp	r2, #0
   83b70:	f173 0300 	sbcs.w	r3, r3, #0
   83b74:	f2c0 8398 	blt.w	842a8 <_svfprintf_r+0xd4c>
   83b78:	990a      	ldr	r1, [sp, #40]	; 0x28
   83b7a:	f89d 7077 	ldrb.w	r7, [sp, #119]	; 0x77
   83b7e:	1c4a      	adds	r2, r1, #1
   83b80:	f04f 0301 	mov.w	r3, #1
   83b84:	f47f adf0 	bne.w	83768 <_svfprintf_r+0x20c>
   83b88:	ea54 0205 	orrs.w	r2, r4, r5
   83b8c:	f000 8229 	beq.w	83fe2 <_svfprintf_r+0xa86>
   83b90:	f8cd b01c 	str.w	fp, [sp, #28]
   83b94:	2b01      	cmp	r3, #1
   83b96:	f000 830e 	beq.w	841b6 <_svfprintf_r+0xc5a>
   83b9a:	2b02      	cmp	r3, #2
   83b9c:	f040 829c 	bne.w	840d8 <_svfprintf_r+0xb7c>
   83ba0:	464e      	mov	r6, r9
   83ba2:	9818      	ldr	r0, [sp, #96]	; 0x60
   83ba4:	0923      	lsrs	r3, r4, #4
   83ba6:	ea43 7305 	orr.w	r3, r3, r5, lsl #28
   83baa:	0929      	lsrs	r1, r5, #4
   83bac:	f004 020f 	and.w	r2, r4, #15
   83bb0:	460d      	mov	r5, r1
   83bb2:	461c      	mov	r4, r3
   83bb4:	5c83      	ldrb	r3, [r0, r2]
   83bb6:	f806 3d01 	strb.w	r3, [r6, #-1]!
   83bba:	ea54 0305 	orrs.w	r3, r4, r5
   83bbe:	d1f1      	bne.n	83ba4 <_svfprintf_r+0x648>
   83bc0:	eba9 0306 	sub.w	r3, r9, r6
   83bc4:	930e      	str	r3, [sp, #56]	; 0x38
   83bc6:	e5e5      	b.n	83794 <_svfprintf_r+0x238>
   83bc8:	9311      	str	r3, [sp, #68]	; 0x44
   83bca:	2a00      	cmp	r2, #0
   83bcc:	f040 8738 	bne.w	84a40 <_svfprintf_r+0x14e4>
   83bd0:	9c0f      	ldr	r4, [sp, #60]	; 0x3c
   83bd2:	f01b 0f08 	tst.w	fp, #8
   83bd6:	f104 0407 	add.w	r4, r4, #7
   83bda:	f000 84cf 	beq.w	8457c <_svfprintf_r+0x1020>
   83bde:	f024 0307 	bic.w	r3, r4, #7
   83be2:	f103 0208 	add.w	r2, r3, #8
   83be6:	920f      	str	r2, [sp, #60]	; 0x3c
   83be8:	681a      	ldr	r2, [r3, #0]
   83bea:	685b      	ldr	r3, [r3, #4]
   83bec:	9215      	str	r2, [sp, #84]	; 0x54
   83bee:	9314      	str	r3, [sp, #80]	; 0x50
   83bf0:	9b14      	ldr	r3, [sp, #80]	; 0x50
   83bf2:	9d15      	ldr	r5, [sp, #84]	; 0x54
   83bf4:	f023 4400 	bic.w	r4, r3, #2147483648	; 0x80000000
   83bf8:	4628      	mov	r0, r5
   83bfa:	4621      	mov	r1, r4
   83bfc:	f04f 32ff 	mov.w	r2, #4294967295
   83c00:	4b6f      	ldr	r3, [pc, #444]	; (83dc0 <_svfprintf_r+0x864>)
   83c02:	f7fe fd6b 	bl	826dc <__aeabi_dcmpun>
   83c06:	2800      	cmp	r0, #0
   83c08:	f040 8434 	bne.w	84474 <_svfprintf_r+0xf18>
   83c0c:	4628      	mov	r0, r5
   83c0e:	4621      	mov	r1, r4
   83c10:	f04f 32ff 	mov.w	r2, #4294967295
   83c14:	4b6a      	ldr	r3, [pc, #424]	; (83dc0 <_svfprintf_r+0x864>)
   83c16:	f7fe fd43 	bl	826a0 <__aeabi_dcmple>
   83c1a:	2800      	cmp	r0, #0
   83c1c:	f040 842a 	bne.w	84474 <_svfprintf_r+0xf18>
   83c20:	a815      	add	r0, sp, #84	; 0x54
   83c22:	c80d      	ldmia	r0, {r0, r2, r3}
   83c24:	9914      	ldr	r1, [sp, #80]	; 0x50
   83c26:	f7fe fd31 	bl	8268c <__aeabi_dcmplt>
   83c2a:	2800      	cmp	r0, #0
   83c2c:	f040 85d4 	bne.w	847d8 <_svfprintf_r+0x127c>
   83c30:	f89d 7077 	ldrb.w	r7, [sp, #119]	; 0x77
   83c34:	2303      	movs	r3, #3
   83c36:	461a      	mov	r2, r3
   83c38:	9308      	str	r3, [sp, #32]
   83c3a:	2300      	movs	r3, #0
   83c3c:	4e61      	ldr	r6, [pc, #388]	; (83dc4 <_svfprintf_r+0x868>)
   83c3e:	4619      	mov	r1, r3
   83c40:	930a      	str	r3, [sp, #40]	; 0x28
   83c42:	4b61      	ldr	r3, [pc, #388]	; (83dc8 <_svfprintf_r+0x86c>)
   83c44:	920e      	str	r2, [sp, #56]	; 0x38
   83c46:	9a11      	ldr	r2, [sp, #68]	; 0x44
   83c48:	f02b 0080 	bic.w	r0, fp, #128	; 0x80
   83c4c:	9007      	str	r0, [sp, #28]
   83c4e:	9112      	str	r1, [sp, #72]	; 0x48
   83c50:	2a47      	cmp	r2, #71	; 0x47
   83c52:	bfd8      	it	le
   83c54:	461e      	movle	r6, r3
   83c56:	e5a5      	b.n	837a4 <_svfprintf_r+0x248>
   83c58:	f04b 0b08 	orr.w	fp, fp, #8
   83c5c:	f89a 3000 	ldrb.w	r3, [sl]
   83c60:	e4d6      	b.n	83610 <_svfprintf_r+0xb4>
   83c62:	f04b 0b10 	orr.w	fp, fp, #16
   83c66:	9311      	str	r3, [sp, #68]	; 0x44
   83c68:	f01b 0320 	ands.w	r3, fp, #32
   83c6c:	f43f aebb 	beq.w	839e6 <_svfprintf_r+0x48a>
   83c70:	9c0f      	ldr	r4, [sp, #60]	; 0x3c
   83c72:	3407      	adds	r4, #7
   83c74:	f024 0307 	bic.w	r3, r4, #7
   83c78:	f103 0208 	add.w	r2, r3, #8
   83c7c:	e9d3 4500 	ldrd	r4, r5, [r3]
   83c80:	920f      	str	r2, [sp, #60]	; 0x3c
   83c82:	2300      	movs	r3, #0
   83c84:	e568      	b.n	83758 <_svfprintf_r+0x1fc>
   83c86:	9311      	str	r3, [sp, #68]	; 0x44
   83c88:	2a00      	cmp	r2, #0
   83c8a:	f040 86c2 	bne.w	84a12 <_svfprintf_r+0x14b6>
   83c8e:	4b4f      	ldr	r3, [pc, #316]	; (83dcc <_svfprintf_r+0x870>)
   83c90:	f01b 0f20 	tst.w	fp, #32
   83c94:	9318      	str	r3, [sp, #96]	; 0x60
   83c96:	f43f af19 	beq.w	83acc <_svfprintf_r+0x570>
   83c9a:	9c0f      	ldr	r4, [sp, #60]	; 0x3c
   83c9c:	f01b 0f01 	tst.w	fp, #1
   83ca0:	f104 0407 	add.w	r4, r4, #7
   83ca4:	f024 0307 	bic.w	r3, r4, #7
   83ca8:	f103 0208 	add.w	r2, r3, #8
   83cac:	920f      	str	r2, [sp, #60]	; 0x3c
   83cae:	e9d3 4500 	ldrd	r4, r5, [r3]
   83cb2:	f47f af1d 	bne.w	83af0 <_svfprintf_r+0x594>
   83cb6:	2302      	movs	r3, #2
   83cb8:	e54e      	b.n	83758 <_svfprintf_r+0x1fc>
   83cba:	f89a 3000 	ldrb.w	r3, [sl]
   83cbe:	2900      	cmp	r1, #0
   83cc0:	f47f aca6 	bne.w	83610 <_svfprintf_r+0xb4>
   83cc4:	2201      	movs	r2, #1
   83cc6:	2120      	movs	r1, #32
   83cc8:	e4a2      	b.n	83610 <_svfprintf_r+0xb4>
   83cca:	f04b 0b01 	orr.w	fp, fp, #1
   83cce:	f89a 3000 	ldrb.w	r3, [sl]
   83cd2:	e49d      	b.n	83610 <_svfprintf_r+0xb4>
   83cd4:	f89a 3000 	ldrb.w	r3, [sl]
   83cd8:	2201      	movs	r2, #1
   83cda:	212b      	movs	r1, #43	; 0x2b
   83cdc:	e498      	b.n	83610 <_svfprintf_r+0xb4>
   83cde:	f04b 0b20 	orr.w	fp, fp, #32
   83ce2:	f89a 3000 	ldrb.w	r3, [sl]
   83ce6:	e493      	b.n	83610 <_svfprintf_r+0xb4>
   83ce8:	f04b 0b40 	orr.w	fp, fp, #64	; 0x40
   83cec:	f89a 3000 	ldrb.w	r3, [sl]
   83cf0:	e48e      	b.n	83610 <_svfprintf_r+0xb4>
   83cf2:	f89a 3000 	ldrb.w	r3, [sl]
   83cf6:	2b6c      	cmp	r3, #108	; 0x6c
   83cf8:	bf03      	ittte	eq
   83cfa:	f89a 3001 	ldrbeq.w	r3, [sl, #1]
   83cfe:	f04b 0b20 	orreq.w	fp, fp, #32
   83d02:	f10a 0a01 	addeq.w	sl, sl, #1
   83d06:	f04b 0b10 	orrne.w	fp, fp, #16
   83d0a:	e481      	b.n	83610 <_svfprintf_r+0xb4>
   83d0c:	2a00      	cmp	r2, #0
   83d0e:	f040 867c 	bne.w	84a0a <_svfprintf_r+0x14ae>
   83d12:	f01b 0f20 	tst.w	fp, #32
   83d16:	f040 8452 	bne.w	845be <_svfprintf_r+0x1062>
   83d1a:	f01b 0f10 	tst.w	fp, #16
   83d1e:	f040 8438 	bne.w	84592 <_svfprintf_r+0x1036>
   83d22:	f01b 0f40 	tst.w	fp, #64	; 0x40
   83d26:	f000 8434 	beq.w	84592 <_svfprintf_r+0x1036>
   83d2a:	9a0f      	ldr	r2, [sp, #60]	; 0x3c
   83d2c:	6813      	ldr	r3, [r2, #0]
   83d2e:	3204      	adds	r2, #4
   83d30:	920f      	str	r2, [sp, #60]	; 0x3c
   83d32:	f8bd 2024 	ldrh.w	r2, [sp, #36]	; 0x24
   83d36:	801a      	strh	r2, [r3, #0]
   83d38:	e437      	b.n	835aa <_svfprintf_r+0x4e>
   83d3a:	2378      	movs	r3, #120	; 0x78
   83d3c:	2230      	movs	r2, #48	; 0x30
   83d3e:	980f      	ldr	r0, [sp, #60]	; 0x3c
   83d40:	f88d 3079 	strb.w	r3, [sp, #121]	; 0x79
   83d44:	9311      	str	r3, [sp, #68]	; 0x44
   83d46:	1d03      	adds	r3, r0, #4
   83d48:	930f      	str	r3, [sp, #60]	; 0x3c
   83d4a:	4b20      	ldr	r3, [pc, #128]	; (83dcc <_svfprintf_r+0x870>)
   83d4c:	6804      	ldr	r4, [r0, #0]
   83d4e:	9318      	str	r3, [sp, #96]	; 0x60
   83d50:	f04b 0b02 	orr.w	fp, fp, #2
   83d54:	f88d 2078 	strb.w	r2, [sp, #120]	; 0x78
   83d58:	2500      	movs	r5, #0
   83d5a:	2302      	movs	r3, #2
   83d5c:	e4fc      	b.n	83758 <_svfprintf_r+0x1fc>
   83d5e:	9311      	str	r3, [sp, #68]	; 0x44
   83d60:	2a00      	cmp	r2, #0
   83d62:	f43f aeef 	beq.w	83b44 <_svfprintf_r+0x5e8>
   83d66:	f88d 1077 	strb.w	r1, [sp, #119]	; 0x77
   83d6a:	e6eb      	b.n	83b44 <_svfprintf_r+0x5e8>
   83d6c:	2000      	movs	r0, #0
   83d6e:	4604      	mov	r4, r0
   83d70:	f1a3 0030 	sub.w	r0, r3, #48	; 0x30
   83d74:	f81a 3b01 	ldrb.w	r3, [sl], #1
   83d78:	eb04 0484 	add.w	r4, r4, r4, lsl #2
   83d7c:	eb00 0444 	add.w	r4, r0, r4, lsl #1
   83d80:	f1a3 0030 	sub.w	r0, r3, #48	; 0x30
   83d84:	2809      	cmp	r0, #9
   83d86:	d9f5      	bls.n	83d74 <_svfprintf_r+0x818>
   83d88:	940d      	str	r4, [sp, #52]	; 0x34
   83d8a:	e443      	b.n	83614 <_svfprintf_r+0xb8>
   83d8c:	9311      	str	r3, [sp, #68]	; 0x44
   83d8e:	2a00      	cmp	r2, #0
   83d90:	f040 864a 	bne.w	84a28 <_svfprintf_r+0x14cc>
   83d94:	9a11      	ldr	r2, [sp, #68]	; 0x44
   83d96:	2a00      	cmp	r2, #0
   83d98:	f43f acb6 	beq.w	83708 <_svfprintf_r+0x1ac>
   83d9c:	2300      	movs	r3, #0
   83d9e:	2101      	movs	r1, #1
   83da0:	461f      	mov	r7, r3
   83da2:	9108      	str	r1, [sp, #32]
   83da4:	f88d 20a0 	strb.w	r2, [sp, #160]	; 0xa0
   83da8:	f8cd b01c 	str.w	fp, [sp, #28]
   83dac:	f88d 3077 	strb.w	r3, [sp, #119]	; 0x77
   83db0:	930a      	str	r3, [sp, #40]	; 0x28
   83db2:	9312      	str	r3, [sp, #72]	; 0x48
   83db4:	910e      	str	r1, [sp, #56]	; 0x38
   83db6:	ae28      	add	r6, sp, #160	; 0xa0
   83db8:	e4f8      	b.n	837ac <_svfprintf_r+0x250>
   83dba:	bf00      	nop
   83dbc:	000887ec 	.word	0x000887ec
   83dc0:	7fefffff 	.word	0x7fefffff
   83dc4:	000887e0 	.word	0x000887e0
   83dc8:	000887dc 	.word	0x000887dc
   83dcc:	00088800 	.word	0x00088800
   83dd0:	aa25      	add	r2, sp, #148	; 0x94
   83dd2:	990b      	ldr	r1, [sp, #44]	; 0x2c
   83dd4:	980c      	ldr	r0, [sp, #48]	; 0x30
   83dd6:	f004 f89f 	bl	87f18 <__ssprint_r>
   83dda:	2800      	cmp	r0, #0
   83ddc:	f47f ac9b 	bne.w	83716 <_svfprintf_r+0x1ba>
   83de0:	46c8      	mov	r8, r9
   83de2:	f89d 7077 	ldrb.w	r7, [sp, #119]	; 0x77
   83de6:	9c27      	ldr	r4, [sp, #156]	; 0x9c
   83de8:	e533      	b.n	83852 <_svfprintf_r+0x2f6>
   83dea:	9b11      	ldr	r3, [sp, #68]	; 0x44
   83dec:	2b65      	cmp	r3, #101	; 0x65
   83dee:	f340 809a 	ble.w	83f26 <_svfprintf_r+0x9ca>
   83df2:	a815      	add	r0, sp, #84	; 0x54
   83df4:	c80d      	ldmia	r0, {r0, r2, r3}
   83df6:	9914      	ldr	r1, [sp, #80]	; 0x50
   83df8:	f7fe fc3e 	bl	82678 <__aeabi_dcmpeq>
   83dfc:	2800      	cmp	r0, #0
   83dfe:	f000 8193 	beq.w	84128 <_svfprintf_r+0xbcc>
   83e02:	2101      	movs	r1, #1
   83e04:	9b26      	ldr	r3, [sp, #152]	; 0x98
   83e06:	4ab5      	ldr	r2, [pc, #724]	; (840dc <_svfprintf_r+0xb80>)
   83e08:	440b      	add	r3, r1
   83e0a:	440c      	add	r4, r1
   83e0c:	2b07      	cmp	r3, #7
   83e0e:	9427      	str	r4, [sp, #156]	; 0x9c
   83e10:	9326      	str	r3, [sp, #152]	; 0x98
   83e12:	f8c8 1004 	str.w	r1, [r8, #4]
   83e16:	f8c8 2000 	str.w	r2, [r8]
   83e1a:	f300 83c6 	bgt.w	845aa <_svfprintf_r+0x104e>
   83e1e:	f108 0808 	add.w	r8, r8, #8
   83e22:	9b1f      	ldr	r3, [sp, #124]	; 0x7c
   83e24:	9a13      	ldr	r2, [sp, #76]	; 0x4c
   83e26:	9c27      	ldr	r4, [sp, #156]	; 0x9c
   83e28:	4293      	cmp	r3, r2
   83e2a:	db03      	blt.n	83e34 <_svfprintf_r+0x8d8>
   83e2c:	9b07      	ldr	r3, [sp, #28]
   83e2e:	07dd      	lsls	r5, r3, #31
   83e30:	f57f ad86 	bpl.w	83940 <_svfprintf_r+0x3e4>
   83e34:	9b26      	ldr	r3, [sp, #152]	; 0x98
   83e36:	9919      	ldr	r1, [sp, #100]	; 0x64
   83e38:	3301      	adds	r3, #1
   83e3a:	9a1a      	ldr	r2, [sp, #104]	; 0x68
   83e3c:	440c      	add	r4, r1
   83e3e:	2b07      	cmp	r3, #7
   83e40:	f8c8 2000 	str.w	r2, [r8]
   83e44:	f8c8 1004 	str.w	r1, [r8, #4]
   83e48:	9427      	str	r4, [sp, #156]	; 0x9c
   83e4a:	9326      	str	r3, [sp, #152]	; 0x98
   83e4c:	f300 83c4 	bgt.w	845d8 <_svfprintf_r+0x107c>
   83e50:	f108 0808 	add.w	r8, r8, #8
   83e54:	9b13      	ldr	r3, [sp, #76]	; 0x4c
   83e56:	1e5e      	subs	r6, r3, #1
   83e58:	2e00      	cmp	r6, #0
   83e5a:	f77f ad71 	ble.w	83940 <_svfprintf_r+0x3e4>
   83e5e:	2e10      	cmp	r6, #16
   83e60:	f340 8575 	ble.w	8494e <_svfprintf_r+0x13f2>
   83e64:	4622      	mov	r2, r4
   83e66:	2710      	movs	r7, #16
   83e68:	9b26      	ldr	r3, [sp, #152]	; 0x98
   83e6a:	4d9d      	ldr	r5, [pc, #628]	; (840e0 <_svfprintf_r+0xb84>)
   83e6c:	f8dd b030 	ldr.w	fp, [sp, #48]	; 0x30
   83e70:	9c0b      	ldr	r4, [sp, #44]	; 0x2c
   83e72:	e005      	b.n	83e80 <_svfprintf_r+0x924>
   83e74:	f108 0808 	add.w	r8, r8, #8
   83e78:	3e10      	subs	r6, #16
   83e7a:	2e10      	cmp	r6, #16
   83e7c:	f340 8225 	ble.w	842ca <_svfprintf_r+0xd6e>
   83e80:	3301      	adds	r3, #1
   83e82:	3210      	adds	r2, #16
   83e84:	2b07      	cmp	r3, #7
   83e86:	9227      	str	r2, [sp, #156]	; 0x9c
   83e88:	9326      	str	r3, [sp, #152]	; 0x98
   83e8a:	e888 00a0 	stmia.w	r8, {r5, r7}
   83e8e:	ddf1      	ble.n	83e74 <_svfprintf_r+0x918>
   83e90:	aa25      	add	r2, sp, #148	; 0x94
   83e92:	4621      	mov	r1, r4
   83e94:	4658      	mov	r0, fp
   83e96:	f004 f83f 	bl	87f18 <__ssprint_r>
   83e9a:	2800      	cmp	r0, #0
   83e9c:	f47f ac3b 	bne.w	83716 <_svfprintf_r+0x1ba>
   83ea0:	46c8      	mov	r8, r9
   83ea2:	9a27      	ldr	r2, [sp, #156]	; 0x9c
   83ea4:	9b26      	ldr	r3, [sp, #152]	; 0x98
   83ea6:	e7e7      	b.n	83e78 <_svfprintf_r+0x91c>
   83ea8:	9b0d      	ldr	r3, [sp, #52]	; 0x34
   83eaa:	9a08      	ldr	r2, [sp, #32]
   83eac:	1a9f      	subs	r7, r3, r2
   83eae:	2f00      	cmp	r7, #0
   83eb0:	f77f acf6 	ble.w	838a0 <_svfprintf_r+0x344>
   83eb4:	2f10      	cmp	r7, #16
   83eb6:	f340 84a8 	ble.w	8480a <_svfprintf_r+0x12ae>
   83eba:	4d89      	ldr	r5, [pc, #548]	; (840e0 <_svfprintf_r+0xb84>)
   83ebc:	4642      	mov	r2, r8
   83ebe:	4621      	mov	r1, r4
   83ec0:	46b0      	mov	r8, r6
   83ec2:	f04f 0b10 	mov.w	fp, #16
   83ec6:	462e      	mov	r6, r5
   83ec8:	9b26      	ldr	r3, [sp, #152]	; 0x98
   83eca:	9c0c      	ldr	r4, [sp, #48]	; 0x30
   83ecc:	9d0b      	ldr	r5, [sp, #44]	; 0x2c
   83ece:	e004      	b.n	83eda <_svfprintf_r+0x97e>
   83ed0:	3f10      	subs	r7, #16
   83ed2:	2f10      	cmp	r7, #16
   83ed4:	f102 0208 	add.w	r2, r2, #8
   83ed8:	dd15      	ble.n	83f06 <_svfprintf_r+0x9aa>
   83eda:	3301      	adds	r3, #1
   83edc:	3110      	adds	r1, #16
   83ede:	2b07      	cmp	r3, #7
   83ee0:	9127      	str	r1, [sp, #156]	; 0x9c
   83ee2:	9326      	str	r3, [sp, #152]	; 0x98
   83ee4:	e882 0840 	stmia.w	r2, {r6, fp}
   83ee8:	ddf2      	ble.n	83ed0 <_svfprintf_r+0x974>
   83eea:	aa25      	add	r2, sp, #148	; 0x94
   83eec:	4629      	mov	r1, r5
   83eee:	4620      	mov	r0, r4
   83ef0:	f004 f812 	bl	87f18 <__ssprint_r>
   83ef4:	2800      	cmp	r0, #0
   83ef6:	f47f ac0e 	bne.w	83716 <_svfprintf_r+0x1ba>
   83efa:	3f10      	subs	r7, #16
   83efc:	2f10      	cmp	r7, #16
   83efe:	464a      	mov	r2, r9
   83f00:	9927      	ldr	r1, [sp, #156]	; 0x9c
   83f02:	9b26      	ldr	r3, [sp, #152]	; 0x98
   83f04:	dce9      	bgt.n	83eda <_svfprintf_r+0x97e>
   83f06:	4635      	mov	r5, r6
   83f08:	460c      	mov	r4, r1
   83f0a:	4646      	mov	r6, r8
   83f0c:	4690      	mov	r8, r2
   83f0e:	3301      	adds	r3, #1
   83f10:	443c      	add	r4, r7
   83f12:	2b07      	cmp	r3, #7
   83f14:	9427      	str	r4, [sp, #156]	; 0x9c
   83f16:	9326      	str	r3, [sp, #152]	; 0x98
   83f18:	e888 00a0 	stmia.w	r8, {r5, r7}
   83f1c:	f300 829e 	bgt.w	8445c <_svfprintf_r+0xf00>
   83f20:	f108 0808 	add.w	r8, r8, #8
   83f24:	e4bc      	b.n	838a0 <_svfprintf_r+0x344>
   83f26:	9b13      	ldr	r3, [sp, #76]	; 0x4c
   83f28:	2b01      	cmp	r3, #1
   83f2a:	f340 824f 	ble.w	843cc <_svfprintf_r+0xe70>
   83f2e:	2301      	movs	r3, #1
   83f30:	9f26      	ldr	r7, [sp, #152]	; 0x98
   83f32:	441c      	add	r4, r3
   83f34:	441f      	add	r7, r3
   83f36:	2f07      	cmp	r7, #7
   83f38:	9427      	str	r4, [sp, #156]	; 0x9c
   83f3a:	f8c8 6000 	str.w	r6, [r8]
   83f3e:	9726      	str	r7, [sp, #152]	; 0x98
   83f40:	f8c8 3004 	str.w	r3, [r8, #4]
   83f44:	f300 825f 	bgt.w	84406 <_svfprintf_r+0xeaa>
   83f48:	f108 0808 	add.w	r8, r8, #8
   83f4c:	9a19      	ldr	r2, [sp, #100]	; 0x64
   83f4e:	3701      	adds	r7, #1
   83f50:	9b1a      	ldr	r3, [sp, #104]	; 0x68
   83f52:	4414      	add	r4, r2
   83f54:	2f07      	cmp	r7, #7
   83f56:	9427      	str	r4, [sp, #156]	; 0x9c
   83f58:	9726      	str	r7, [sp, #152]	; 0x98
   83f5a:	f8c8 3000 	str.w	r3, [r8]
   83f5e:	f8c8 2004 	str.w	r2, [r8, #4]
   83f62:	f300 825c 	bgt.w	8441e <_svfprintf_r+0xec2>
   83f66:	f108 0808 	add.w	r8, r8, #8
   83f6a:	a815      	add	r0, sp, #84	; 0x54
   83f6c:	c80d      	ldmia	r0, {r0, r2, r3}
   83f6e:	9914      	ldr	r1, [sp, #80]	; 0x50
   83f70:	f7fe fb82 	bl	82678 <__aeabi_dcmpeq>
   83f74:	9b13      	ldr	r3, [sp, #76]	; 0x4c
   83f76:	2800      	cmp	r0, #0
   83f78:	f040 8141 	bne.w	841fe <_svfprintf_r+0xca2>
   83f7c:	3b01      	subs	r3, #1
   83f7e:	3701      	adds	r7, #1
   83f80:	3601      	adds	r6, #1
   83f82:	441c      	add	r4, r3
   83f84:	2f07      	cmp	r7, #7
   83f86:	f8c8 6000 	str.w	r6, [r8]
   83f8a:	9726      	str	r7, [sp, #152]	; 0x98
   83f8c:	9427      	str	r4, [sp, #156]	; 0x9c
   83f8e:	f8c8 3004 	str.w	r3, [r8, #4]
   83f92:	f300 8166 	bgt.w	84262 <_svfprintf_r+0xd06>
   83f96:	f108 0808 	add.w	r8, r8, #8
   83f9a:	9a1b      	ldr	r2, [sp, #108]	; 0x6c
   83f9c:	3701      	adds	r7, #1
   83f9e:	4414      	add	r4, r2
   83fa0:	ab21      	add	r3, sp, #132	; 0x84
   83fa2:	2f07      	cmp	r7, #7
   83fa4:	9427      	str	r4, [sp, #156]	; 0x9c
   83fa6:	9726      	str	r7, [sp, #152]	; 0x98
   83fa8:	f8c8 2004 	str.w	r2, [r8, #4]
   83fac:	f8c8 3000 	str.w	r3, [r8]
   83fb0:	f77f acc4 	ble.w	8393c <_svfprintf_r+0x3e0>
   83fb4:	aa25      	add	r2, sp, #148	; 0x94
   83fb6:	990b      	ldr	r1, [sp, #44]	; 0x2c
   83fb8:	980c      	ldr	r0, [sp, #48]	; 0x30
   83fba:	f003 ffad 	bl	87f18 <__ssprint_r>
   83fbe:	2800      	cmp	r0, #0
   83fc0:	f47f aba9 	bne.w	83716 <_svfprintf_r+0x1ba>
   83fc4:	46c8      	mov	r8, r9
   83fc6:	9c27      	ldr	r4, [sp, #156]	; 0x9c
   83fc8:	e4ba      	b.n	83940 <_svfprintf_r+0x3e4>
   83fca:	aa25      	add	r2, sp, #148	; 0x94
   83fcc:	990b      	ldr	r1, [sp, #44]	; 0x2c
   83fce:	980c      	ldr	r0, [sp, #48]	; 0x30
   83fd0:	f003 ffa2 	bl	87f18 <__ssprint_r>
   83fd4:	2800      	cmp	r0, #0
   83fd6:	f43f acfd 	beq.w	839d4 <_svfprintf_r+0x478>
   83fda:	f7ff bb9c 	b.w	83716 <_svfprintf_r+0x1ba>
   83fde:	f8dd b01c 	ldr.w	fp, [sp, #28]
   83fe2:	2b01      	cmp	r3, #1
   83fe4:	f000 817e 	beq.w	842e4 <_svfprintf_r+0xd88>
   83fe8:	2b02      	cmp	r3, #2
   83fea:	d171      	bne.n	840d0 <_svfprintf_r+0xb74>
   83fec:	f8cd b01c 	str.w	fp, [sp, #28]
   83ff0:	2400      	movs	r4, #0
   83ff2:	2500      	movs	r5, #0
   83ff4:	e5d4      	b.n	83ba0 <_svfprintf_r+0x644>
   83ff6:	aa25      	add	r2, sp, #148	; 0x94
   83ff8:	990b      	ldr	r1, [sp, #44]	; 0x2c
   83ffa:	980c      	ldr	r0, [sp, #48]	; 0x30
   83ffc:	f003 ff8c 	bl	87f18 <__ssprint_r>
   84000:	2800      	cmp	r0, #0
   84002:	f47f ab88 	bne.w	83716 <_svfprintf_r+0x1ba>
   84006:	46c8      	mov	r8, r9
   84008:	9c27      	ldr	r4, [sp, #156]	; 0x9c
   8400a:	e486      	b.n	8391a <_svfprintf_r+0x3be>
   8400c:	aa25      	add	r2, sp, #148	; 0x94
   8400e:	990b      	ldr	r1, [sp, #44]	; 0x2c
   84010:	980c      	ldr	r0, [sp, #48]	; 0x30
   84012:	f003 ff81 	bl	87f18 <__ssprint_r>
   84016:	2800      	cmp	r0, #0
   84018:	f47f ab7d 	bne.w	83716 <_svfprintf_r+0x1ba>
   8401c:	46c8      	mov	r8, r9
   8401e:	9c27      	ldr	r4, [sp, #156]	; 0x9c
   84020:	e429      	b.n	83876 <_svfprintf_r+0x31a>
   84022:	2001      	movs	r0, #1
   84024:	9b26      	ldr	r3, [sp, #152]	; 0x98
   84026:	4a2d      	ldr	r2, [pc, #180]	; (840dc <_svfprintf_r+0xb80>)
   84028:	4403      	add	r3, r0
   8402a:	4404      	add	r4, r0
   8402c:	2b07      	cmp	r3, #7
   8402e:	9427      	str	r4, [sp, #156]	; 0x9c
   84030:	9326      	str	r3, [sp, #152]	; 0x98
   84032:	f8c8 0004 	str.w	r0, [r8, #4]
   84036:	f8c8 2000 	str.w	r2, [r8]
   8403a:	f340 82d8 	ble.w	845ee <_svfprintf_r+0x1092>
   8403e:	aa25      	add	r2, sp, #148	; 0x94
   84040:	990b      	ldr	r1, [sp, #44]	; 0x2c
   84042:	980c      	ldr	r0, [sp, #48]	; 0x30
   84044:	f003 ff68 	bl	87f18 <__ssprint_r>
   84048:	2800      	cmp	r0, #0
   8404a:	f47f ab64 	bne.w	83716 <_svfprintf_r+0x1ba>
   8404e:	46c8      	mov	r8, r9
   84050:	991f      	ldr	r1, [sp, #124]	; 0x7c
   84052:	9c27      	ldr	r4, [sp, #156]	; 0x9c
   84054:	b929      	cbnz	r1, 84062 <_svfprintf_r+0xb06>
   84056:	9b13      	ldr	r3, [sp, #76]	; 0x4c
   84058:	b91b      	cbnz	r3, 84062 <_svfprintf_r+0xb06>
   8405a:	9b07      	ldr	r3, [sp, #28]
   8405c:	07d8      	lsls	r0, r3, #31
   8405e:	f57f ac6f 	bpl.w	83940 <_svfprintf_r+0x3e4>
   84062:	9819      	ldr	r0, [sp, #100]	; 0x64
   84064:	9b26      	ldr	r3, [sp, #152]	; 0x98
   84066:	4602      	mov	r2, r0
   84068:	3301      	adds	r3, #1
   8406a:	4422      	add	r2, r4
   8406c:	9c1a      	ldr	r4, [sp, #104]	; 0x68
   8406e:	2b07      	cmp	r3, #7
   84070:	9227      	str	r2, [sp, #156]	; 0x9c
   84072:	f8c8 4000 	str.w	r4, [r8]
   84076:	f8c8 0004 	str.w	r0, [r8, #4]
   8407a:	9326      	str	r3, [sp, #152]	; 0x98
   8407c:	f300 8431 	bgt.w	848e2 <_svfprintf_r+0x1386>
   84080:	f108 0808 	add.w	r8, r8, #8
   84084:	2900      	cmp	r1, #0
   84086:	f2c0 8409 	blt.w	8489c <_svfprintf_r+0x1340>
   8408a:	9913      	ldr	r1, [sp, #76]	; 0x4c
   8408c:	3301      	adds	r3, #1
   8408e:	188c      	adds	r4, r1, r2
   84090:	2b07      	cmp	r3, #7
   84092:	9427      	str	r4, [sp, #156]	; 0x9c
   84094:	9326      	str	r3, [sp, #152]	; 0x98
   84096:	f8c8 6000 	str.w	r6, [r8]
   8409a:	f8c8 1004 	str.w	r1, [r8, #4]
   8409e:	f77f ac4d 	ble.w	8393c <_svfprintf_r+0x3e0>
   840a2:	aa25      	add	r2, sp, #148	; 0x94
   840a4:	990b      	ldr	r1, [sp, #44]	; 0x2c
   840a6:	980c      	ldr	r0, [sp, #48]	; 0x30
   840a8:	f003 ff36 	bl	87f18 <__ssprint_r>
   840ac:	2800      	cmp	r0, #0
   840ae:	f47f ab32 	bne.w	83716 <_svfprintf_r+0x1ba>
   840b2:	9c27      	ldr	r4, [sp, #156]	; 0x9c
   840b4:	46c8      	mov	r8, r9
   840b6:	e443      	b.n	83940 <_svfprintf_r+0x3e4>
   840b8:	aa25      	add	r2, sp, #148	; 0x94
   840ba:	990b      	ldr	r1, [sp, #44]	; 0x2c
   840bc:	980c      	ldr	r0, [sp, #48]	; 0x30
   840be:	f003 ff2b 	bl	87f18 <__ssprint_r>
   840c2:	2800      	cmp	r0, #0
   840c4:	f47f ab27 	bne.w	83716 <_svfprintf_r+0x1ba>
   840c8:	46c8      	mov	r8, r9
   840ca:	9c27      	ldr	r4, [sp, #156]	; 0x9c
   840cc:	f7ff bbe5 	b.w	8389a <_svfprintf_r+0x33e>
   840d0:	2400      	movs	r4, #0
   840d2:	2500      	movs	r5, #0
   840d4:	f8cd b01c 	str.w	fp, [sp, #28]
   840d8:	4649      	mov	r1, r9
   840da:	e004      	b.n	840e6 <_svfprintf_r+0xb8a>
   840dc:	0008881c 	.word	0x0008881c
   840e0:	00088830 	.word	0x00088830
   840e4:	4631      	mov	r1, r6
   840e6:	08e2      	lsrs	r2, r4, #3
   840e8:	ea42 7245 	orr.w	r2, r2, r5, lsl #29
   840ec:	08e8      	lsrs	r0, r5, #3
   840ee:	f004 0307 	and.w	r3, r4, #7
   840f2:	4605      	mov	r5, r0
   840f4:	4614      	mov	r4, r2
   840f6:	3330      	adds	r3, #48	; 0x30
   840f8:	ea54 0205 	orrs.w	r2, r4, r5
   840fc:	f801 3c01 	strb.w	r3, [r1, #-1]
   84100:	f101 36ff 	add.w	r6, r1, #4294967295
   84104:	d1ee      	bne.n	840e4 <_svfprintf_r+0xb88>
   84106:	9a07      	ldr	r2, [sp, #28]
   84108:	07d2      	lsls	r2, r2, #31
   8410a:	f57f ad59 	bpl.w	83bc0 <_svfprintf_r+0x664>
   8410e:	2b30      	cmp	r3, #48	; 0x30
   84110:	f43f ad56 	beq.w	83bc0 <_svfprintf_r+0x664>
   84114:	2330      	movs	r3, #48	; 0x30
   84116:	3902      	subs	r1, #2
   84118:	f806 3c01 	strb.w	r3, [r6, #-1]
   8411c:	eba9 0301 	sub.w	r3, r9, r1
   84120:	930e      	str	r3, [sp, #56]	; 0x38
   84122:	460e      	mov	r6, r1
   84124:	f7ff bb36 	b.w	83794 <_svfprintf_r+0x238>
   84128:	991f      	ldr	r1, [sp, #124]	; 0x7c
   8412a:	2900      	cmp	r1, #0
   8412c:	f77f af79 	ble.w	84022 <_svfprintf_r+0xac6>
   84130:	9b12      	ldr	r3, [sp, #72]	; 0x48
   84132:	9a13      	ldr	r2, [sp, #76]	; 0x4c
   84134:	4293      	cmp	r3, r2
   84136:	bfa8      	it	ge
   84138:	4613      	movge	r3, r2
   8413a:	2b00      	cmp	r3, #0
   8413c:	461f      	mov	r7, r3
   8413e:	dd0b      	ble.n	84158 <_svfprintf_r+0xbfc>
   84140:	9b26      	ldr	r3, [sp, #152]	; 0x98
   84142:	443c      	add	r4, r7
   84144:	3301      	adds	r3, #1
   84146:	2b07      	cmp	r3, #7
   84148:	9427      	str	r4, [sp, #156]	; 0x9c
   8414a:	e888 00c0 	stmia.w	r8, {r6, r7}
   8414e:	9326      	str	r3, [sp, #152]	; 0x98
   84150:	f300 82fb 	bgt.w	8474a <_svfprintf_r+0x11ee>
   84154:	f108 0808 	add.w	r8, r8, #8
   84158:	9b12      	ldr	r3, [sp, #72]	; 0x48
   8415a:	2f00      	cmp	r7, #0
   8415c:	bfa8      	it	ge
   8415e:	1bdb      	subge	r3, r3, r7
   84160:	2b00      	cmp	r3, #0
   84162:	461f      	mov	r7, r3
   84164:	f340 80d7 	ble.w	84316 <_svfprintf_r+0xdba>
   84168:	2b10      	cmp	r3, #16
   8416a:	f340 8434 	ble.w	849d6 <_svfprintf_r+0x147a>
   8416e:	4dba      	ldr	r5, [pc, #744]	; (84458 <_svfprintf_r+0xefc>)
   84170:	4642      	mov	r2, r8
   84172:	4621      	mov	r1, r4
   84174:	46b0      	mov	r8, r6
   84176:	f04f 0b10 	mov.w	fp, #16
   8417a:	462e      	mov	r6, r5
   8417c:	9b26      	ldr	r3, [sp, #152]	; 0x98
   8417e:	9c0c      	ldr	r4, [sp, #48]	; 0x30
   84180:	9d0b      	ldr	r5, [sp, #44]	; 0x2c
   84182:	e004      	b.n	8418e <_svfprintf_r+0xc32>
   84184:	3208      	adds	r2, #8
   84186:	3f10      	subs	r7, #16
   84188:	2f10      	cmp	r7, #16
   8418a:	f340 80b5 	ble.w	842f8 <_svfprintf_r+0xd9c>
   8418e:	3301      	adds	r3, #1
   84190:	3110      	adds	r1, #16
   84192:	2b07      	cmp	r3, #7
   84194:	9127      	str	r1, [sp, #156]	; 0x9c
   84196:	9326      	str	r3, [sp, #152]	; 0x98
   84198:	e882 0840 	stmia.w	r2, {r6, fp}
   8419c:	ddf2      	ble.n	84184 <_svfprintf_r+0xc28>
   8419e:	aa25      	add	r2, sp, #148	; 0x94
   841a0:	4629      	mov	r1, r5
   841a2:	4620      	mov	r0, r4
   841a4:	f003 feb8 	bl	87f18 <__ssprint_r>
   841a8:	2800      	cmp	r0, #0
   841aa:	f47f aab4 	bne.w	83716 <_svfprintf_r+0x1ba>
   841ae:	464a      	mov	r2, r9
   841b0:	9927      	ldr	r1, [sp, #156]	; 0x9c
   841b2:	9b26      	ldr	r3, [sp, #152]	; 0x98
   841b4:	e7e7      	b.n	84186 <_svfprintf_r+0xc2a>
   841b6:	2d00      	cmp	r5, #0
   841b8:	bf08      	it	eq
   841ba:	2c0a      	cmpeq	r4, #10
   841bc:	f0c0 8090 	bcc.w	842e0 <_svfprintf_r+0xd84>
   841c0:	464e      	mov	r6, r9
   841c2:	4620      	mov	r0, r4
   841c4:	4629      	mov	r1, r5
   841c6:	220a      	movs	r2, #10
   841c8:	2300      	movs	r3, #0
   841ca:	f004 f947 	bl	8845c <__aeabi_uldivmod>
   841ce:	3230      	adds	r2, #48	; 0x30
   841d0:	f806 2d01 	strb.w	r2, [r6, #-1]!
   841d4:	4620      	mov	r0, r4
   841d6:	4629      	mov	r1, r5
   841d8:	2300      	movs	r3, #0
   841da:	220a      	movs	r2, #10
   841dc:	f004 f93e 	bl	8845c <__aeabi_uldivmod>
   841e0:	4604      	mov	r4, r0
   841e2:	460d      	mov	r5, r1
   841e4:	ea54 0305 	orrs.w	r3, r4, r5
   841e8:	d1eb      	bne.n	841c2 <_svfprintf_r+0xc66>
   841ea:	eba9 0306 	sub.w	r3, r9, r6
   841ee:	930e      	str	r3, [sp, #56]	; 0x38
   841f0:	f7ff bad0 	b.w	83794 <_svfprintf_r+0x238>
   841f4:	9b0a      	ldr	r3, [sp, #40]	; 0x28
   841f6:	464e      	mov	r6, r9
   841f8:	930e      	str	r3, [sp, #56]	; 0x38
   841fa:	f7ff bacb 	b.w	83794 <_svfprintf_r+0x238>
   841fe:	1e5e      	subs	r6, r3, #1
   84200:	2e00      	cmp	r6, #0
   84202:	f77f aeca 	ble.w	83f9a <_svfprintf_r+0xa3e>
   84206:	2e10      	cmp	r6, #16
   84208:	f340 83e3 	ble.w	849d2 <_svfprintf_r+0x1476>
   8420c:	4622      	mov	r2, r4
   8420e:	f04f 0b10 	mov.w	fp, #16
   84212:	4d91      	ldr	r5, [pc, #580]	; (84458 <_svfprintf_r+0xefc>)
   84214:	9c0c      	ldr	r4, [sp, #48]	; 0x30
   84216:	e004      	b.n	84222 <_svfprintf_r+0xcc6>
   84218:	3e10      	subs	r6, #16
   8421a:	2e10      	cmp	r6, #16
   8421c:	f108 0808 	add.w	r8, r8, #8
   84220:	dd15      	ble.n	8424e <_svfprintf_r+0xcf2>
   84222:	3701      	adds	r7, #1
   84224:	3210      	adds	r2, #16
   84226:	2f07      	cmp	r7, #7
   84228:	9227      	str	r2, [sp, #156]	; 0x9c
   8422a:	9726      	str	r7, [sp, #152]	; 0x98
   8422c:	e888 0820 	stmia.w	r8, {r5, fp}
   84230:	ddf2      	ble.n	84218 <_svfprintf_r+0xcbc>
   84232:	aa25      	add	r2, sp, #148	; 0x94
   84234:	990b      	ldr	r1, [sp, #44]	; 0x2c
   84236:	4620      	mov	r0, r4
   84238:	f003 fe6e 	bl	87f18 <__ssprint_r>
   8423c:	2800      	cmp	r0, #0
   8423e:	f47f aa6a 	bne.w	83716 <_svfprintf_r+0x1ba>
   84242:	3e10      	subs	r6, #16
   84244:	2e10      	cmp	r6, #16
   84246:	46c8      	mov	r8, r9
   84248:	9a27      	ldr	r2, [sp, #156]	; 0x9c
   8424a:	9f26      	ldr	r7, [sp, #152]	; 0x98
   8424c:	dce9      	bgt.n	84222 <_svfprintf_r+0xcc6>
   8424e:	4614      	mov	r4, r2
   84250:	3701      	adds	r7, #1
   84252:	4434      	add	r4, r6
   84254:	2f07      	cmp	r7, #7
   84256:	9427      	str	r4, [sp, #156]	; 0x9c
   84258:	9726      	str	r7, [sp, #152]	; 0x98
   8425a:	e888 0060 	stmia.w	r8, {r5, r6}
   8425e:	f77f ae9a 	ble.w	83f96 <_svfprintf_r+0xa3a>
   84262:	aa25      	add	r2, sp, #148	; 0x94
   84264:	990b      	ldr	r1, [sp, #44]	; 0x2c
   84266:	980c      	ldr	r0, [sp, #48]	; 0x30
   84268:	f003 fe56 	bl	87f18 <__ssprint_r>
   8426c:	2800      	cmp	r0, #0
   8426e:	f47f aa52 	bne.w	83716 <_svfprintf_r+0x1ba>
   84272:	9c27      	ldr	r4, [sp, #156]	; 0x9c
   84274:	9f26      	ldr	r7, [sp, #152]	; 0x98
   84276:	46c8      	mov	r8, r9
   84278:	e68f      	b.n	83f9a <_svfprintf_r+0xa3e>
   8427a:	3204      	adds	r2, #4
   8427c:	681c      	ldr	r4, [r3, #0]
   8427e:	2500      	movs	r5, #0
   84280:	2301      	movs	r3, #1
   84282:	920f      	str	r2, [sp, #60]	; 0x3c
   84284:	f7ff ba68 	b.w	83758 <_svfprintf_r+0x1fc>
   84288:	681c      	ldr	r4, [r3, #0]
   8428a:	3304      	adds	r3, #4
   8428c:	930f      	str	r3, [sp, #60]	; 0x3c
   8428e:	2500      	movs	r5, #0
   84290:	e42a      	b.n	83ae8 <_svfprintf_r+0x58c>
   84292:	681c      	ldr	r4, [r3, #0]
   84294:	3304      	adds	r3, #4
   84296:	17e5      	asrs	r5, r4, #31
   84298:	4622      	mov	r2, r4
   8429a:	930f      	str	r3, [sp, #60]	; 0x3c
   8429c:	462b      	mov	r3, r5
   8429e:	2a00      	cmp	r2, #0
   842a0:	f173 0300 	sbcs.w	r3, r3, #0
   842a4:	f6bf ac68 	bge.w	83b78 <_svfprintf_r+0x61c>
   842a8:	272d      	movs	r7, #45	; 0x2d
   842aa:	4264      	negs	r4, r4
   842ac:	eb65 0545 	sbc.w	r5, r5, r5, lsl #1
   842b0:	f88d 7077 	strb.w	r7, [sp, #119]	; 0x77
   842b4:	2301      	movs	r3, #1
   842b6:	f7ff ba53 	b.w	83760 <_svfprintf_r+0x204>
   842ba:	990f      	ldr	r1, [sp, #60]	; 0x3c
   842bc:	2500      	movs	r5, #0
   842be:	460a      	mov	r2, r1
   842c0:	3204      	adds	r2, #4
   842c2:	680c      	ldr	r4, [r1, #0]
   842c4:	920f      	str	r2, [sp, #60]	; 0x3c
   842c6:	f7ff ba47 	b.w	83758 <_svfprintf_r+0x1fc>
   842ca:	4614      	mov	r4, r2
   842cc:	3301      	adds	r3, #1
   842ce:	4434      	add	r4, r6
   842d0:	2b07      	cmp	r3, #7
   842d2:	9427      	str	r4, [sp, #156]	; 0x9c
   842d4:	9326      	str	r3, [sp, #152]	; 0x98
   842d6:	e888 0060 	stmia.w	r8, {r5, r6}
   842da:	f77f ab2f 	ble.w	8393c <_svfprintf_r+0x3e0>
   842de:	e6e0      	b.n	840a2 <_svfprintf_r+0xb46>
   842e0:	f8dd b01c 	ldr.w	fp, [sp, #28]
   842e4:	2301      	movs	r3, #1
   842e6:	ae42      	add	r6, sp, #264	; 0x108
   842e8:	3430      	adds	r4, #48	; 0x30
   842ea:	f8cd b01c 	str.w	fp, [sp, #28]
   842ee:	f806 4d41 	strb.w	r4, [r6, #-65]!
   842f2:	930e      	str	r3, [sp, #56]	; 0x38
   842f4:	f7ff ba4e 	b.w	83794 <_svfprintf_r+0x238>
   842f8:	4635      	mov	r5, r6
   842fa:	460c      	mov	r4, r1
   842fc:	4646      	mov	r6, r8
   842fe:	4690      	mov	r8, r2
   84300:	3301      	adds	r3, #1
   84302:	443c      	add	r4, r7
   84304:	2b07      	cmp	r3, #7
   84306:	9427      	str	r4, [sp, #156]	; 0x9c
   84308:	9326      	str	r3, [sp, #152]	; 0x98
   8430a:	e888 00a0 	stmia.w	r8, {r5, r7}
   8430e:	f300 8246 	bgt.w	8479e <_svfprintf_r+0x1242>
   84312:	f108 0808 	add.w	r8, r8, #8
   84316:	9a1f      	ldr	r2, [sp, #124]	; 0x7c
   84318:	9b13      	ldr	r3, [sp, #76]	; 0x4c
   8431a:	429a      	cmp	r2, r3
   8431c:	db45      	blt.n	843aa <_svfprintf_r+0xe4e>
   8431e:	9b07      	ldr	r3, [sp, #28]
   84320:	07d9      	lsls	r1, r3, #31
   84322:	d442      	bmi.n	843aa <_svfprintf_r+0xe4e>
   84324:	9b13      	ldr	r3, [sp, #76]	; 0x4c
   84326:	9812      	ldr	r0, [sp, #72]	; 0x48
   84328:	1a9a      	subs	r2, r3, r2
   8432a:	1a1d      	subs	r5, r3, r0
   8432c:	4295      	cmp	r5, r2
   8432e:	bfa8      	it	ge
   84330:	4615      	movge	r5, r2
   84332:	2d00      	cmp	r5, #0
   84334:	dd0e      	ble.n	84354 <_svfprintf_r+0xdf8>
   84336:	9926      	ldr	r1, [sp, #152]	; 0x98
   84338:	4406      	add	r6, r0
   8433a:	3101      	adds	r1, #1
   8433c:	442c      	add	r4, r5
   8433e:	2907      	cmp	r1, #7
   84340:	f8c8 6000 	str.w	r6, [r8]
   84344:	9427      	str	r4, [sp, #156]	; 0x9c
   84346:	f8c8 5004 	str.w	r5, [r8, #4]
   8434a:	9126      	str	r1, [sp, #152]	; 0x98
   8434c:	f300 8216 	bgt.w	8477c <_svfprintf_r+0x1220>
   84350:	f108 0808 	add.w	r8, r8, #8
   84354:	2d00      	cmp	r5, #0
   84356:	bfb4      	ite	lt
   84358:	4616      	movlt	r6, r2
   8435a:	1b56      	subge	r6, r2, r5
   8435c:	2e00      	cmp	r6, #0
   8435e:	f77f aaef 	ble.w	83940 <_svfprintf_r+0x3e4>
   84362:	2e10      	cmp	r6, #16
   84364:	f340 82f3 	ble.w	8494e <_svfprintf_r+0x13f2>
   84368:	4622      	mov	r2, r4
   8436a:	2710      	movs	r7, #16
   8436c:	9b26      	ldr	r3, [sp, #152]	; 0x98
   8436e:	4d3a      	ldr	r5, [pc, #232]	; (84458 <_svfprintf_r+0xefc>)
   84370:	f8dd b030 	ldr.w	fp, [sp, #48]	; 0x30
   84374:	9c0b      	ldr	r4, [sp, #44]	; 0x2c
   84376:	e004      	b.n	84382 <_svfprintf_r+0xe26>
   84378:	f108 0808 	add.w	r8, r8, #8
   8437c:	3e10      	subs	r6, #16
   8437e:	2e10      	cmp	r6, #16
   84380:	dda3      	ble.n	842ca <_svfprintf_r+0xd6e>
   84382:	3301      	adds	r3, #1
   84384:	3210      	adds	r2, #16
   84386:	2b07      	cmp	r3, #7
   84388:	9227      	str	r2, [sp, #156]	; 0x9c
   8438a:	9326      	str	r3, [sp, #152]	; 0x98
   8438c:	e888 00a0 	stmia.w	r8, {r5, r7}
   84390:	ddf2      	ble.n	84378 <_svfprintf_r+0xe1c>
   84392:	aa25      	add	r2, sp, #148	; 0x94
   84394:	4621      	mov	r1, r4
   84396:	4658      	mov	r0, fp
   84398:	f003 fdbe 	bl	87f18 <__ssprint_r>
   8439c:	2800      	cmp	r0, #0
   8439e:	f47f a9ba 	bne.w	83716 <_svfprintf_r+0x1ba>
   843a2:	46c8      	mov	r8, r9
   843a4:	9a27      	ldr	r2, [sp, #156]	; 0x9c
   843a6:	9b26      	ldr	r3, [sp, #152]	; 0x98
   843a8:	e7e8      	b.n	8437c <_svfprintf_r+0xe20>
   843aa:	9b26      	ldr	r3, [sp, #152]	; 0x98
   843ac:	9819      	ldr	r0, [sp, #100]	; 0x64
   843ae:	3301      	adds	r3, #1
   843b0:	991a      	ldr	r1, [sp, #104]	; 0x68
   843b2:	4404      	add	r4, r0
   843b4:	2b07      	cmp	r3, #7
   843b6:	9427      	str	r4, [sp, #156]	; 0x9c
   843b8:	f8c8 1000 	str.w	r1, [r8]
   843bc:	f8c8 0004 	str.w	r0, [r8, #4]
   843c0:	9326      	str	r3, [sp, #152]	; 0x98
   843c2:	f300 81cf 	bgt.w	84764 <_svfprintf_r+0x1208>
   843c6:	f108 0808 	add.w	r8, r8, #8
   843ca:	e7ab      	b.n	84324 <_svfprintf_r+0xdc8>
   843cc:	9b07      	ldr	r3, [sp, #28]
   843ce:	07da      	lsls	r2, r3, #31
   843d0:	f53f adad 	bmi.w	83f2e <_svfprintf_r+0x9d2>
   843d4:	2301      	movs	r3, #1
   843d6:	9f26      	ldr	r7, [sp, #152]	; 0x98
   843d8:	441c      	add	r4, r3
   843da:	441f      	add	r7, r3
   843dc:	2f07      	cmp	r7, #7
   843de:	9427      	str	r4, [sp, #156]	; 0x9c
   843e0:	f8c8 6000 	str.w	r6, [r8]
   843e4:	9726      	str	r7, [sp, #152]	; 0x98
   843e6:	f8c8 3004 	str.w	r3, [r8, #4]
   843ea:	f77f add4 	ble.w	83f96 <_svfprintf_r+0xa3a>
   843ee:	aa25      	add	r2, sp, #148	; 0x94
   843f0:	990b      	ldr	r1, [sp, #44]	; 0x2c
   843f2:	980c      	ldr	r0, [sp, #48]	; 0x30
   843f4:	f003 fd90 	bl	87f18 <__ssprint_r>
   843f8:	2800      	cmp	r0, #0
   843fa:	f47f a98c 	bne.w	83716 <_svfprintf_r+0x1ba>
   843fe:	46c8      	mov	r8, r9
   84400:	9c27      	ldr	r4, [sp, #156]	; 0x9c
   84402:	9f26      	ldr	r7, [sp, #152]	; 0x98
   84404:	e5c9      	b.n	83f9a <_svfprintf_r+0xa3e>
   84406:	aa25      	add	r2, sp, #148	; 0x94
   84408:	990b      	ldr	r1, [sp, #44]	; 0x2c
   8440a:	980c      	ldr	r0, [sp, #48]	; 0x30
   8440c:	f003 fd84 	bl	87f18 <__ssprint_r>
   84410:	2800      	cmp	r0, #0
   84412:	f47f a980 	bne.w	83716 <_svfprintf_r+0x1ba>
   84416:	46c8      	mov	r8, r9
   84418:	9c27      	ldr	r4, [sp, #156]	; 0x9c
   8441a:	9f26      	ldr	r7, [sp, #152]	; 0x98
   8441c:	e596      	b.n	83f4c <_svfprintf_r+0x9f0>
   8441e:	aa25      	add	r2, sp, #148	; 0x94
   84420:	990b      	ldr	r1, [sp, #44]	; 0x2c
   84422:	980c      	ldr	r0, [sp, #48]	; 0x30
   84424:	f003 fd78 	bl	87f18 <__ssprint_r>
   84428:	2800      	cmp	r0, #0
   8442a:	f47f a974 	bne.w	83716 <_svfprintf_r+0x1ba>
   8442e:	46c8      	mov	r8, r9
   84430:	9c27      	ldr	r4, [sp, #156]	; 0x9c
   84432:	9f26      	ldr	r7, [sp, #152]	; 0x98
   84434:	e599      	b.n	83f6a <_svfprintf_r+0xa0e>
   84436:	9c0f      	ldr	r4, [sp, #60]	; 0x3c
   84438:	3407      	adds	r4, #7
   8443a:	f024 0407 	bic.w	r4, r4, #7
   8443e:	f104 0108 	add.w	r1, r4, #8
   84442:	e9d4 2300 	ldrd	r2, r3, [r4]
   84446:	910f      	str	r1, [sp, #60]	; 0x3c
   84448:	4614      	mov	r4, r2
   8444a:	461d      	mov	r5, r3
   8444c:	f7ff bb8f 	b.w	83b6e <_svfprintf_r+0x612>
   84450:	464e      	mov	r6, r9
   84452:	f7ff b99f 	b.w	83794 <_svfprintf_r+0x238>
   84456:	bf00      	nop
   84458:	00088830 	.word	0x00088830
   8445c:	aa25      	add	r2, sp, #148	; 0x94
   8445e:	990b      	ldr	r1, [sp, #44]	; 0x2c
   84460:	980c      	ldr	r0, [sp, #48]	; 0x30
   84462:	f003 fd59 	bl	87f18 <__ssprint_r>
   84466:	2800      	cmp	r0, #0
   84468:	f47f a955 	bne.w	83716 <_svfprintf_r+0x1ba>
   8446c:	46c8      	mov	r8, r9
   8446e:	9c27      	ldr	r4, [sp, #156]	; 0x9c
   84470:	f7ff ba16 	b.w	838a0 <_svfprintf_r+0x344>
   84474:	9c15      	ldr	r4, [sp, #84]	; 0x54
   84476:	4622      	mov	r2, r4
   84478:	4620      	mov	r0, r4
   8447a:	9c14      	ldr	r4, [sp, #80]	; 0x50
   8447c:	4623      	mov	r3, r4
   8447e:	4621      	mov	r1, r4
   84480:	f7fe f92c 	bl	826dc <__aeabi_dcmpun>
   84484:	2800      	cmp	r0, #0
   84486:	f040 8273 	bne.w	84970 <_svfprintf_r+0x1414>
   8448a:	9b0a      	ldr	r3, [sp, #40]	; 0x28
   8448c:	3301      	adds	r3, #1
   8448e:	9b11      	ldr	r3, [sp, #68]	; 0x44
   84490:	f023 0320 	bic.w	r3, r3, #32
   84494:	930e      	str	r3, [sp, #56]	; 0x38
   84496:	f000 819c 	beq.w	847d2 <_svfprintf_r+0x1276>
   8449a:	2b47      	cmp	r3, #71	; 0x47
   8449c:	f000 80d6 	beq.w	8464c <_svfprintf_r+0x10f0>
   844a0:	f44b 7380 	orr.w	r3, fp, #256	; 0x100
   844a4:	9307      	str	r3, [sp, #28]
   844a6:	9b14      	ldr	r3, [sp, #80]	; 0x50
   844a8:	1e1f      	subs	r7, r3, #0
   844aa:	9b15      	ldr	r3, [sp, #84]	; 0x54
   844ac:	9308      	str	r3, [sp, #32]
   844ae:	bfb7      	itett	lt
   844b0:	463b      	movlt	r3, r7
   844b2:	2300      	movge	r3, #0
   844b4:	f103 4700 	addlt.w	r7, r3, #2147483648	; 0x80000000
   844b8:	232d      	movlt	r3, #45	; 0x2d
   844ba:	9310      	str	r3, [sp, #64]	; 0x40
   844bc:	9b11      	ldr	r3, [sp, #68]	; 0x44
   844be:	2b66      	cmp	r3, #102	; 0x66
   844c0:	f000 8190 	beq.w	847e4 <_svfprintf_r+0x1288>
   844c4:	2b46      	cmp	r3, #70	; 0x46
   844c6:	f000 80a4 	beq.w	84612 <_svfprintf_r+0x10b6>
   844ca:	2002      	movs	r0, #2
   844cc:	9b0e      	ldr	r3, [sp, #56]	; 0x38
   844ce:	a923      	add	r1, sp, #140	; 0x8c
   844d0:	2b45      	cmp	r3, #69	; 0x45
   844d2:	bf0a      	itet	eq
   844d4:	9b0a      	ldreq	r3, [sp, #40]	; 0x28
   844d6:	9d0a      	ldrne	r5, [sp, #40]	; 0x28
   844d8:	1c5d      	addeq	r5, r3, #1
   844da:	e88d 0021 	stmia.w	sp, {r0, r5}
   844de:	9104      	str	r1, [sp, #16]
   844e0:	a820      	add	r0, sp, #128	; 0x80
   844e2:	a91f      	add	r1, sp, #124	; 0x7c
   844e4:	463b      	mov	r3, r7
   844e6:	9003      	str	r0, [sp, #12]
   844e8:	9a08      	ldr	r2, [sp, #32]
   844ea:	9102      	str	r1, [sp, #8]
   844ec:	980c      	ldr	r0, [sp, #48]	; 0x30
   844ee:	f001 fa87 	bl	85a00 <_dtoa_r>
   844f2:	9b11      	ldr	r3, [sp, #68]	; 0x44
   844f4:	4606      	mov	r6, r0
   844f6:	2b67      	cmp	r3, #103	; 0x67
   844f8:	f040 81ba 	bne.w	84870 <_svfprintf_r+0x1314>
   844fc:	f01b 0f01 	tst.w	fp, #1
   84500:	f000 8223 	beq.w	8494a <_svfprintf_r+0x13ee>
   84504:	1974      	adds	r4, r6, r5
   84506:	9a16      	ldr	r2, [sp, #88]	; 0x58
   84508:	9808      	ldr	r0, [sp, #32]
   8450a:	9b17      	ldr	r3, [sp, #92]	; 0x5c
   8450c:	4639      	mov	r1, r7
   8450e:	f7fe f8b3 	bl	82678 <__aeabi_dcmpeq>
   84512:	2800      	cmp	r0, #0
   84514:	f040 8124 	bne.w	84760 <_svfprintf_r+0x1204>
   84518:	9b23      	ldr	r3, [sp, #140]	; 0x8c
   8451a:	42a3      	cmp	r3, r4
   8451c:	d206      	bcs.n	8452c <_svfprintf_r+0xfd0>
   8451e:	2130      	movs	r1, #48	; 0x30
   84520:	1c5a      	adds	r2, r3, #1
   84522:	9223      	str	r2, [sp, #140]	; 0x8c
   84524:	7019      	strb	r1, [r3, #0]
   84526:	9b23      	ldr	r3, [sp, #140]	; 0x8c
   84528:	429c      	cmp	r4, r3
   8452a:	d8f9      	bhi.n	84520 <_svfprintf_r+0xfc4>
   8452c:	1b9b      	subs	r3, r3, r6
   8452e:	9313      	str	r3, [sp, #76]	; 0x4c
   84530:	9b0e      	ldr	r3, [sp, #56]	; 0x38
   84532:	2b47      	cmp	r3, #71	; 0x47
   84534:	f000 80a2 	beq.w	8467c <_svfprintf_r+0x1120>
   84538:	9b11      	ldr	r3, [sp, #68]	; 0x44
   8453a:	2b65      	cmp	r3, #101	; 0x65
   8453c:	f340 81a7 	ble.w	8488e <_svfprintf_r+0x1332>
   84540:	9b11      	ldr	r3, [sp, #68]	; 0x44
   84542:	2b66      	cmp	r3, #102	; 0x66
   84544:	9b1f      	ldr	r3, [sp, #124]	; 0x7c
   84546:	9312      	str	r3, [sp, #72]	; 0x48
   84548:	f000 8171 	beq.w	8482e <_svfprintf_r+0x12d2>
   8454c:	9b13      	ldr	r3, [sp, #76]	; 0x4c
   8454e:	9a12      	ldr	r2, [sp, #72]	; 0x48
   84550:	4619      	mov	r1, r3
   84552:	4291      	cmp	r1, r2
   84554:	f300 815d 	bgt.w	84812 <_svfprintf_r+0x12b6>
   84558:	f01b 0f01 	tst.w	fp, #1
   8455c:	f040 81f0 	bne.w	84940 <_svfprintf_r+0x13e4>
   84560:	ea22 73e2 	bic.w	r3, r2, r2, asr #31
   84564:	9308      	str	r3, [sp, #32]
   84566:	2367      	movs	r3, #103	; 0x67
   84568:	920e      	str	r2, [sp, #56]	; 0x38
   8456a:	9311      	str	r3, [sp, #68]	; 0x44
   8456c:	9b10      	ldr	r3, [sp, #64]	; 0x40
   8456e:	2b00      	cmp	r3, #0
   84570:	d17d      	bne.n	8466e <_svfprintf_r+0x1112>
   84572:	930a      	str	r3, [sp, #40]	; 0x28
   84574:	f89d 7077 	ldrb.w	r7, [sp, #119]	; 0x77
   84578:	f7ff b914 	b.w	837a4 <_svfprintf_r+0x248>
   8457c:	f024 0407 	bic.w	r4, r4, #7
   84580:	6823      	ldr	r3, [r4, #0]
   84582:	9315      	str	r3, [sp, #84]	; 0x54
   84584:	6863      	ldr	r3, [r4, #4]
   84586:	9314      	str	r3, [sp, #80]	; 0x50
   84588:	f104 0308 	add.w	r3, r4, #8
   8458c:	930f      	str	r3, [sp, #60]	; 0x3c
   8458e:	f7ff bb2f 	b.w	83bf0 <_svfprintf_r+0x694>
   84592:	9a0f      	ldr	r2, [sp, #60]	; 0x3c
   84594:	6813      	ldr	r3, [r2, #0]
   84596:	3204      	adds	r2, #4
   84598:	920f      	str	r2, [sp, #60]	; 0x3c
   8459a:	9a09      	ldr	r2, [sp, #36]	; 0x24
   8459c:	601a      	str	r2, [r3, #0]
   8459e:	f7ff b804 	b.w	835aa <_svfprintf_r+0x4e>
   845a2:	9b26      	ldr	r3, [sp, #152]	; 0x98
   845a4:	4daf      	ldr	r5, [pc, #700]	; (84864 <_svfprintf_r+0x1308>)
   845a6:	f7ff b9ad 	b.w	83904 <_svfprintf_r+0x3a8>
   845aa:	aa25      	add	r2, sp, #148	; 0x94
   845ac:	990b      	ldr	r1, [sp, #44]	; 0x2c
   845ae:	980c      	ldr	r0, [sp, #48]	; 0x30
   845b0:	f003 fcb2 	bl	87f18 <__ssprint_r>
   845b4:	2800      	cmp	r0, #0
   845b6:	f47f a8ae 	bne.w	83716 <_svfprintf_r+0x1ba>
   845ba:	46c8      	mov	r8, r9
   845bc:	e431      	b.n	83e22 <_svfprintf_r+0x8c6>
   845be:	9a0f      	ldr	r2, [sp, #60]	; 0x3c
   845c0:	4613      	mov	r3, r2
   845c2:	3304      	adds	r3, #4
   845c4:	930f      	str	r3, [sp, #60]	; 0x3c
   845c6:	9b09      	ldr	r3, [sp, #36]	; 0x24
   845c8:	6811      	ldr	r1, [r2, #0]
   845ca:	17dd      	asrs	r5, r3, #31
   845cc:	461a      	mov	r2, r3
   845ce:	462b      	mov	r3, r5
   845d0:	e9c1 2300 	strd	r2, r3, [r1]
   845d4:	f7fe bfe9 	b.w	835aa <_svfprintf_r+0x4e>
   845d8:	aa25      	add	r2, sp, #148	; 0x94
   845da:	990b      	ldr	r1, [sp, #44]	; 0x2c
   845dc:	980c      	ldr	r0, [sp, #48]	; 0x30
   845de:	f003 fc9b 	bl	87f18 <__ssprint_r>
   845e2:	2800      	cmp	r0, #0
   845e4:	f47f a897 	bne.w	83716 <_svfprintf_r+0x1ba>
   845e8:	46c8      	mov	r8, r9
   845ea:	9c27      	ldr	r4, [sp, #156]	; 0x9c
   845ec:	e432      	b.n	83e54 <_svfprintf_r+0x8f8>
   845ee:	f108 0808 	add.w	r8, r8, #8
   845f2:	e52f      	b.n	84054 <_svfprintf_r+0xaf8>
   845f4:	2140      	movs	r1, #64	; 0x40
   845f6:	980c      	ldr	r0, [sp, #48]	; 0x30
   845f8:	f7fe fb7e 	bl	82cf8 <_malloc_r>
   845fc:	9a0b      	ldr	r2, [sp, #44]	; 0x2c
   845fe:	6010      	str	r0, [r2, #0]
   84600:	6110      	str	r0, [r2, #16]
   84602:	2800      	cmp	r0, #0
   84604:	f000 8214 	beq.w	84a30 <_svfprintf_r+0x14d4>
   84608:	2340      	movs	r3, #64	; 0x40
   8460a:	9a0b      	ldr	r2, [sp, #44]	; 0x2c
   8460c:	6153      	str	r3, [r2, #20]
   8460e:	f7fe bfbc 	b.w	8358a <_svfprintf_r+0x2e>
   84612:	2003      	movs	r0, #3
   84614:	9c0a      	ldr	r4, [sp, #40]	; 0x28
   84616:	a923      	add	r1, sp, #140	; 0x8c
   84618:	e88d 0011 	stmia.w	sp, {r0, r4}
   8461c:	9104      	str	r1, [sp, #16]
   8461e:	a820      	add	r0, sp, #128	; 0x80
   84620:	a91f      	add	r1, sp, #124	; 0x7c
   84622:	9003      	str	r0, [sp, #12]
   84624:	9a08      	ldr	r2, [sp, #32]
   84626:	463b      	mov	r3, r7
   84628:	9102      	str	r1, [sp, #8]
   8462a:	980c      	ldr	r0, [sp, #48]	; 0x30
   8462c:	f001 f9e8 	bl	85a00 <_dtoa_r>
   84630:	4625      	mov	r5, r4
   84632:	4606      	mov	r6, r0
   84634:	9b11      	ldr	r3, [sp, #68]	; 0x44
   84636:	1974      	adds	r4, r6, r5
   84638:	2b46      	cmp	r3, #70	; 0x46
   8463a:	f47f af64 	bne.w	84506 <_svfprintf_r+0xfaa>
   8463e:	7833      	ldrb	r3, [r6, #0]
   84640:	2b30      	cmp	r3, #48	; 0x30
   84642:	f000 8187 	beq.w	84954 <_svfprintf_r+0x13f8>
   84646:	9d1f      	ldr	r5, [sp, #124]	; 0x7c
   84648:	442c      	add	r4, r5
   8464a:	e75c      	b.n	84506 <_svfprintf_r+0xfaa>
   8464c:	9b0a      	ldr	r3, [sp, #40]	; 0x28
   8464e:	2b00      	cmp	r3, #0
   84650:	bf08      	it	eq
   84652:	2301      	moveq	r3, #1
   84654:	930a      	str	r3, [sp, #40]	; 0x28
   84656:	e723      	b.n	844a0 <_svfprintf_r+0xf44>
   84658:	4630      	mov	r0, r6
   8465a:	950a      	str	r5, [sp, #40]	; 0x28
   8465c:	f7fe ff50 	bl	83500 <strlen>
   84660:	940f      	str	r4, [sp, #60]	; 0x3c
   84662:	900e      	str	r0, [sp, #56]	; 0x38
   84664:	f8cd b01c 	str.w	fp, [sp, #28]
   84668:	4603      	mov	r3, r0
   8466a:	f7ff b9e7 	b.w	83a3c <_svfprintf_r+0x4e0>
   8466e:	272d      	movs	r7, #45	; 0x2d
   84670:	2300      	movs	r3, #0
   84672:	f88d 7077 	strb.w	r7, [sp, #119]	; 0x77
   84676:	930a      	str	r3, [sp, #40]	; 0x28
   84678:	f7ff b895 	b.w	837a6 <_svfprintf_r+0x24a>
   8467c:	9b1f      	ldr	r3, [sp, #124]	; 0x7c
   8467e:	461a      	mov	r2, r3
   84680:	9312      	str	r3, [sp, #72]	; 0x48
   84682:	3303      	adds	r3, #3
   84684:	db04      	blt.n	84690 <_svfprintf_r+0x1134>
   84686:	9b0a      	ldr	r3, [sp, #40]	; 0x28
   84688:	4619      	mov	r1, r3
   8468a:	4291      	cmp	r1, r2
   8468c:	f6bf af5e 	bge.w	8454c <_svfprintf_r+0xff0>
   84690:	9b11      	ldr	r3, [sp, #68]	; 0x44
   84692:	3b02      	subs	r3, #2
   84694:	9311      	str	r3, [sp, #68]	; 0x44
   84696:	9b12      	ldr	r3, [sp, #72]	; 0x48
   84698:	f89d 2044 	ldrb.w	r2, [sp, #68]	; 0x44
   8469c:	3b01      	subs	r3, #1
   8469e:	2b00      	cmp	r3, #0
   846a0:	f88d 2084 	strb.w	r2, [sp, #132]	; 0x84
   846a4:	bfb4      	ite	lt
   846a6:	222d      	movlt	r2, #45	; 0x2d
   846a8:	222b      	movge	r2, #43	; 0x2b
   846aa:	931f      	str	r3, [sp, #124]	; 0x7c
   846ac:	bfb8      	it	lt
   846ae:	9b12      	ldrlt	r3, [sp, #72]	; 0x48
   846b0:	f88d 2085 	strb.w	r2, [sp, #133]	; 0x85
   846b4:	bfb8      	it	lt
   846b6:	f1c3 0301 	rsblt	r3, r3, #1
   846ba:	2b09      	cmp	r3, #9
   846bc:	f340 811f 	ble.w	848fe <_svfprintf_r+0x13a2>
   846c0:	f10d 0093 	add.w	r0, sp, #147	; 0x93
   846c4:	4601      	mov	r1, r0
   846c6:	4c68      	ldr	r4, [pc, #416]	; (84868 <_svfprintf_r+0x130c>)
   846c8:	e000      	b.n	846cc <_svfprintf_r+0x1170>
   846ca:	4611      	mov	r1, r2
   846cc:	fb84 5203 	smull	r5, r2, r4, r3
   846d0:	17dd      	asrs	r5, r3, #31
   846d2:	ebc5 05a2 	rsb	r5, r5, r2, asr #2
   846d6:	eb05 0285 	add.w	r2, r5, r5, lsl #2
   846da:	eba3 0242 	sub.w	r2, r3, r2, lsl #1
   846de:	3230      	adds	r2, #48	; 0x30
   846e0:	2d09      	cmp	r5, #9
   846e2:	f801 2c01 	strb.w	r2, [r1, #-1]
   846e6:	462b      	mov	r3, r5
   846e8:	f101 32ff 	add.w	r2, r1, #4294967295
   846ec:	dced      	bgt.n	846ca <_svfprintf_r+0x116e>
   846ee:	3330      	adds	r3, #48	; 0x30
   846f0:	3902      	subs	r1, #2
   846f2:	b2dc      	uxtb	r4, r3
   846f4:	4288      	cmp	r0, r1
   846f6:	f802 4c01 	strb.w	r4, [r2, #-1]
   846fa:	f240 8192 	bls.w	84a22 <_svfprintf_r+0x14c6>
   846fe:	f10d 0186 	add.w	r1, sp, #134	; 0x86
   84702:	4613      	mov	r3, r2
   84704:	e001      	b.n	8470a <_svfprintf_r+0x11ae>
   84706:	f813 4b01 	ldrb.w	r4, [r3], #1
   8470a:	4283      	cmp	r3, r0
   8470c:	f801 4b01 	strb.w	r4, [r1], #1
   84710:	d1f9      	bne.n	84706 <_svfprintf_r+0x11aa>
   84712:	3301      	adds	r3, #1
   84714:	1a9b      	subs	r3, r3, r2
   84716:	f10d 0286 	add.w	r2, sp, #134	; 0x86
   8471a:	4413      	add	r3, r2
   8471c:	aa21      	add	r2, sp, #132	; 0x84
   8471e:	1a9b      	subs	r3, r3, r2
   84720:	9a13      	ldr	r2, [sp, #76]	; 0x4c
   84722:	931b      	str	r3, [sp, #108]	; 0x6c
   84724:	2a01      	cmp	r2, #1
   84726:	4413      	add	r3, r2
   84728:	930e      	str	r3, [sp, #56]	; 0x38
   8472a:	f340 8148 	ble.w	849be <_svfprintf_r+0x1462>
   8472e:	9b0e      	ldr	r3, [sp, #56]	; 0x38
   84730:	9a19      	ldr	r2, [sp, #100]	; 0x64
   84732:	4413      	add	r3, r2
   84734:	930e      	str	r3, [sp, #56]	; 0x38
   84736:	ea23 73e3 	bic.w	r3, r3, r3, asr #31
   8473a:	9308      	str	r3, [sp, #32]
   8473c:	2300      	movs	r3, #0
   8473e:	9312      	str	r3, [sp, #72]	; 0x48
   84740:	e714      	b.n	8456c <_svfprintf_r+0x1010>
   84742:	9c27      	ldr	r4, [sp, #156]	; 0x9c
   84744:	9a26      	ldr	r2, [sp, #152]	; 0x98
   84746:	f7ff b876 	b.w	83836 <_svfprintf_r+0x2da>
   8474a:	aa25      	add	r2, sp, #148	; 0x94
   8474c:	990b      	ldr	r1, [sp, #44]	; 0x2c
   8474e:	980c      	ldr	r0, [sp, #48]	; 0x30
   84750:	f003 fbe2 	bl	87f18 <__ssprint_r>
   84754:	2800      	cmp	r0, #0
   84756:	f47e afde 	bne.w	83716 <_svfprintf_r+0x1ba>
   8475a:	46c8      	mov	r8, r9
   8475c:	9c27      	ldr	r4, [sp, #156]	; 0x9c
   8475e:	e4fb      	b.n	84158 <_svfprintf_r+0xbfc>
   84760:	4623      	mov	r3, r4
   84762:	e6e3      	b.n	8452c <_svfprintf_r+0xfd0>
   84764:	aa25      	add	r2, sp, #148	; 0x94
   84766:	990b      	ldr	r1, [sp, #44]	; 0x2c
   84768:	980c      	ldr	r0, [sp, #48]	; 0x30
   8476a:	f003 fbd5 	bl	87f18 <__ssprint_r>
   8476e:	2800      	cmp	r0, #0
   84770:	f47e afd1 	bne.w	83716 <_svfprintf_r+0x1ba>
   84774:	46c8      	mov	r8, r9
   84776:	9a1f      	ldr	r2, [sp, #124]	; 0x7c
   84778:	9c27      	ldr	r4, [sp, #156]	; 0x9c
   8477a:	e5d3      	b.n	84324 <_svfprintf_r+0xdc8>
   8477c:	aa25      	add	r2, sp, #148	; 0x94
   8477e:	990b      	ldr	r1, [sp, #44]	; 0x2c
   84780:	980c      	ldr	r0, [sp, #48]	; 0x30
   84782:	f003 fbc9 	bl	87f18 <__ssprint_r>
   84786:	2800      	cmp	r0, #0
   84788:	f47e afc5 	bne.w	83716 <_svfprintf_r+0x1ba>
   8478c:	9a1f      	ldr	r2, [sp, #124]	; 0x7c
   8478e:	9b13      	ldr	r3, [sp, #76]	; 0x4c
   84790:	46c8      	mov	r8, r9
   84792:	9c27      	ldr	r4, [sp, #156]	; 0x9c
   84794:	1a9a      	subs	r2, r3, r2
   84796:	e5dd      	b.n	84354 <_svfprintf_r+0xdf8>
   84798:	9b26      	ldr	r3, [sp, #152]	; 0x98
   8479a:	f7ff b8fe 	b.w	8399a <_svfprintf_r+0x43e>
   8479e:	aa25      	add	r2, sp, #148	; 0x94
   847a0:	990b      	ldr	r1, [sp, #44]	; 0x2c
   847a2:	980c      	ldr	r0, [sp, #48]	; 0x30
   847a4:	f003 fbb8 	bl	87f18 <__ssprint_r>
   847a8:	2800      	cmp	r0, #0
   847aa:	f47e afb4 	bne.w	83716 <_svfprintf_r+0x1ba>
   847ae:	46c8      	mov	r8, r9
   847b0:	9c27      	ldr	r4, [sp, #156]	; 0x9c
   847b2:	e5b0      	b.n	84316 <_svfprintf_r+0xdba>
   847b4:	9b0a      	ldr	r3, [sp, #40]	; 0x28
   847b6:	4637      	mov	r7, r6
   847b8:	2b06      	cmp	r3, #6
   847ba:	bf28      	it	cs
   847bc:	2306      	movcs	r3, #6
   847be:	960a      	str	r6, [sp, #40]	; 0x28
   847c0:	9612      	str	r6, [sp, #72]	; 0x48
   847c2:	9308      	str	r3, [sp, #32]
   847c4:	940f      	str	r4, [sp, #60]	; 0x3c
   847c6:	f8cd b01c 	str.w	fp, [sp, #28]
   847ca:	930e      	str	r3, [sp, #56]	; 0x38
   847cc:	4e27      	ldr	r6, [pc, #156]	; (8486c <_svfprintf_r+0x1310>)
   847ce:	f7fe bfe9 	b.w	837a4 <_svfprintf_r+0x248>
   847d2:	2306      	movs	r3, #6
   847d4:	930a      	str	r3, [sp, #40]	; 0x28
   847d6:	e663      	b.n	844a0 <_svfprintf_r+0xf44>
   847d8:	232d      	movs	r3, #45	; 0x2d
   847da:	461f      	mov	r7, r3
   847dc:	f88d 3077 	strb.w	r3, [sp, #119]	; 0x77
   847e0:	f7ff ba28 	b.w	83c34 <_svfprintf_r+0x6d8>
   847e4:	2003      	movs	r0, #3
   847e6:	9c0a      	ldr	r4, [sp, #40]	; 0x28
   847e8:	a923      	add	r1, sp, #140	; 0x8c
   847ea:	e88d 0011 	stmia.w	sp, {r0, r4}
   847ee:	9104      	str	r1, [sp, #16]
   847f0:	a820      	add	r0, sp, #128	; 0x80
   847f2:	a91f      	add	r1, sp, #124	; 0x7c
   847f4:	9003      	str	r0, [sp, #12]
   847f6:	9a08      	ldr	r2, [sp, #32]
   847f8:	463b      	mov	r3, r7
   847fa:	9102      	str	r1, [sp, #8]
   847fc:	980c      	ldr	r0, [sp, #48]	; 0x30
   847fe:	f001 f8ff 	bl	85a00 <_dtoa_r>
   84802:	4625      	mov	r5, r4
   84804:	4606      	mov	r6, r0
   84806:	1904      	adds	r4, r0, r4
   84808:	e719      	b.n	8463e <_svfprintf_r+0x10e2>
   8480a:	9b26      	ldr	r3, [sp, #152]	; 0x98
   8480c:	4d15      	ldr	r5, [pc, #84]	; (84864 <_svfprintf_r+0x1308>)
   8480e:	f7ff bb7e 	b.w	83f0e <_svfprintf_r+0x9b2>
   84812:	9a19      	ldr	r2, [sp, #100]	; 0x64
   84814:	9b13      	ldr	r3, [sp, #76]	; 0x4c
   84816:	4413      	add	r3, r2
   84818:	9a12      	ldr	r2, [sp, #72]	; 0x48
   8481a:	930e      	str	r3, [sp, #56]	; 0x38
   8481c:	2a00      	cmp	r2, #0
   8481e:	f340 80c7 	ble.w	849b0 <_svfprintf_r+0x1454>
   84822:	ea23 73e3 	bic.w	r3, r3, r3, asr #31
   84826:	9308      	str	r3, [sp, #32]
   84828:	2367      	movs	r3, #103	; 0x67
   8482a:	9311      	str	r3, [sp, #68]	; 0x44
   8482c:	e69e      	b.n	8456c <_svfprintf_r+0x1010>
   8482e:	2b00      	cmp	r3, #0
   84830:	f340 80e1 	ble.w	849f6 <_svfprintf_r+0x149a>
   84834:	9a0a      	ldr	r2, [sp, #40]	; 0x28
   84836:	2a00      	cmp	r2, #0
   84838:	f040 80b0 	bne.w	8499c <_svfprintf_r+0x1440>
   8483c:	f01b 0f01 	tst.w	fp, #1
   84840:	f040 80ac 	bne.w	8499c <_svfprintf_r+0x1440>
   84844:	9308      	str	r3, [sp, #32]
   84846:	930e      	str	r3, [sp, #56]	; 0x38
   84848:	e690      	b.n	8456c <_svfprintf_r+0x1010>
   8484a:	9b0a      	ldr	r3, [sp, #40]	; 0x28
   8484c:	940f      	str	r4, [sp, #60]	; 0x3c
   8484e:	9308      	str	r3, [sp, #32]
   84850:	930e      	str	r3, [sp, #56]	; 0x38
   84852:	900a      	str	r0, [sp, #40]	; 0x28
   84854:	f8cd b01c 	str.w	fp, [sp, #28]
   84858:	9012      	str	r0, [sp, #72]	; 0x48
   8485a:	f89d 7077 	ldrb.w	r7, [sp, #119]	; 0x77
   8485e:	f7fe bfa1 	b.w	837a4 <_svfprintf_r+0x248>
   84862:	bf00      	nop
   84864:	00088830 	.word	0x00088830
   84868:	66666667 	.word	0x66666667
   8486c:	00088814 	.word	0x00088814
   84870:	9b11      	ldr	r3, [sp, #68]	; 0x44
   84872:	2b47      	cmp	r3, #71	; 0x47
   84874:	f47f ae46 	bne.w	84504 <_svfprintf_r+0xfa8>
   84878:	f01b 0f01 	tst.w	fp, #1
   8487c:	f47f aeda 	bne.w	84634 <_svfprintf_r+0x10d8>
   84880:	9b23      	ldr	r3, [sp, #140]	; 0x8c
   84882:	1b9b      	subs	r3, r3, r6
   84884:	9313      	str	r3, [sp, #76]	; 0x4c
   84886:	9b0e      	ldr	r3, [sp, #56]	; 0x38
   84888:	2b47      	cmp	r3, #71	; 0x47
   8488a:	f43f aef7 	beq.w	8467c <_svfprintf_r+0x1120>
   8488e:	9b1f      	ldr	r3, [sp, #124]	; 0x7c
   84890:	9312      	str	r3, [sp, #72]	; 0x48
   84892:	e700      	b.n	84696 <_svfprintf_r+0x113a>
   84894:	2000      	movs	r0, #0
   84896:	900a      	str	r0, [sp, #40]	; 0x28
   84898:	f7fe bebc 	b.w	83614 <_svfprintf_r+0xb8>
   8489c:	424f      	negs	r7, r1
   8489e:	3110      	adds	r1, #16
   848a0:	da35      	bge.n	8490e <_svfprintf_r+0x13b2>
   848a2:	2410      	movs	r4, #16
   848a4:	4d6a      	ldr	r5, [pc, #424]	; (84a50 <_svfprintf_r+0x14f4>)
   848a6:	f8dd b030 	ldr.w	fp, [sp, #48]	; 0x30
   848aa:	e004      	b.n	848b6 <_svfprintf_r+0x135a>
   848ac:	f108 0808 	add.w	r8, r8, #8
   848b0:	3f10      	subs	r7, #16
   848b2:	2f10      	cmp	r7, #16
   848b4:	dd2c      	ble.n	84910 <_svfprintf_r+0x13b4>
   848b6:	3301      	adds	r3, #1
   848b8:	3210      	adds	r2, #16
   848ba:	2b07      	cmp	r3, #7
   848bc:	9227      	str	r2, [sp, #156]	; 0x9c
   848be:	9326      	str	r3, [sp, #152]	; 0x98
   848c0:	f8c8 5000 	str.w	r5, [r8]
   848c4:	f8c8 4004 	str.w	r4, [r8, #4]
   848c8:	ddf0      	ble.n	848ac <_svfprintf_r+0x1350>
   848ca:	aa25      	add	r2, sp, #148	; 0x94
   848cc:	990b      	ldr	r1, [sp, #44]	; 0x2c
   848ce:	4658      	mov	r0, fp
   848d0:	f003 fb22 	bl	87f18 <__ssprint_r>
   848d4:	2800      	cmp	r0, #0
   848d6:	f47e af1e 	bne.w	83716 <_svfprintf_r+0x1ba>
   848da:	46c8      	mov	r8, r9
   848dc:	9a27      	ldr	r2, [sp, #156]	; 0x9c
   848de:	9b26      	ldr	r3, [sp, #152]	; 0x98
   848e0:	e7e6      	b.n	848b0 <_svfprintf_r+0x1354>
   848e2:	aa25      	add	r2, sp, #148	; 0x94
   848e4:	990b      	ldr	r1, [sp, #44]	; 0x2c
   848e6:	980c      	ldr	r0, [sp, #48]	; 0x30
   848e8:	f003 fb16 	bl	87f18 <__ssprint_r>
   848ec:	2800      	cmp	r0, #0
   848ee:	f47e af12 	bne.w	83716 <_svfprintf_r+0x1ba>
   848f2:	46c8      	mov	r8, r9
   848f4:	991f      	ldr	r1, [sp, #124]	; 0x7c
   848f6:	9a27      	ldr	r2, [sp, #156]	; 0x9c
   848f8:	9b26      	ldr	r3, [sp, #152]	; 0x98
   848fa:	f7ff bbc3 	b.w	84084 <_svfprintf_r+0xb28>
   848fe:	2230      	movs	r2, #48	; 0x30
   84900:	4413      	add	r3, r2
   84902:	f88d 3087 	strb.w	r3, [sp, #135]	; 0x87
   84906:	f88d 2086 	strb.w	r2, [sp, #134]	; 0x86
   8490a:	ab22      	add	r3, sp, #136	; 0x88
   8490c:	e706      	b.n	8471c <_svfprintf_r+0x11c0>
   8490e:	4d50      	ldr	r5, [pc, #320]	; (84a50 <_svfprintf_r+0x14f4>)
   84910:	3301      	adds	r3, #1
   84912:	443a      	add	r2, r7
   84914:	2b07      	cmp	r3, #7
   84916:	e888 00a0 	stmia.w	r8, {r5, r7}
   8491a:	9227      	str	r2, [sp, #156]	; 0x9c
   8491c:	9326      	str	r3, [sp, #152]	; 0x98
   8491e:	f108 0808 	add.w	r8, r8, #8
   84922:	f77f abb2 	ble.w	8408a <_svfprintf_r+0xb2e>
   84926:	aa25      	add	r2, sp, #148	; 0x94
   84928:	990b      	ldr	r1, [sp, #44]	; 0x2c
   8492a:	980c      	ldr	r0, [sp, #48]	; 0x30
   8492c:	f003 faf4 	bl	87f18 <__ssprint_r>
   84930:	2800      	cmp	r0, #0
   84932:	f47e aef0 	bne.w	83716 <_svfprintf_r+0x1ba>
   84936:	46c8      	mov	r8, r9
   84938:	9a27      	ldr	r2, [sp, #156]	; 0x9c
   8493a:	9b26      	ldr	r3, [sp, #152]	; 0x98
   8493c:	f7ff bba5 	b.w	8408a <_svfprintf_r+0xb2e>
   84940:	9b12      	ldr	r3, [sp, #72]	; 0x48
   84942:	9a19      	ldr	r2, [sp, #100]	; 0x64
   84944:	4413      	add	r3, r2
   84946:	930e      	str	r3, [sp, #56]	; 0x38
   84948:	e76b      	b.n	84822 <_svfprintf_r+0x12c6>
   8494a:	9b23      	ldr	r3, [sp, #140]	; 0x8c
   8494c:	e5ee      	b.n	8452c <_svfprintf_r+0xfd0>
   8494e:	9b26      	ldr	r3, [sp, #152]	; 0x98
   84950:	4d3f      	ldr	r5, [pc, #252]	; (84a50 <_svfprintf_r+0x14f4>)
   84952:	e4bb      	b.n	842cc <_svfprintf_r+0xd70>
   84954:	9a16      	ldr	r2, [sp, #88]	; 0x58
   84956:	9808      	ldr	r0, [sp, #32]
   84958:	9b17      	ldr	r3, [sp, #92]	; 0x5c
   8495a:	4639      	mov	r1, r7
   8495c:	f7fd fe8c 	bl	82678 <__aeabi_dcmpeq>
   84960:	2800      	cmp	r0, #0
   84962:	f47f ae70 	bne.w	84646 <_svfprintf_r+0x10ea>
   84966:	f1c5 0501 	rsb	r5, r5, #1
   8496a:	951f      	str	r5, [sp, #124]	; 0x7c
   8496c:	442c      	add	r4, r5
   8496e:	e5ca      	b.n	84506 <_svfprintf_r+0xfaa>
   84970:	9b14      	ldr	r3, [sp, #80]	; 0x50
   84972:	4e38      	ldr	r6, [pc, #224]	; (84a54 <_svfprintf_r+0x14f8>)
   84974:	2b00      	cmp	r3, #0
   84976:	bfbe      	ittt	lt
   84978:	232d      	movlt	r3, #45	; 0x2d
   8497a:	461f      	movlt	r7, r3
   8497c:	f88d 3077 	strblt.w	r3, [sp, #119]	; 0x77
   84980:	f04f 0303 	mov.w	r3, #3
   84984:	461a      	mov	r2, r3
   84986:	9308      	str	r3, [sp, #32]
   84988:	f04f 0300 	mov.w	r3, #0
   8498c:	bfa8      	it	ge
   8498e:	f89d 7077 	ldrbge.w	r7, [sp, #119]	; 0x77
   84992:	4619      	mov	r1, r3
   84994:	930a      	str	r3, [sp, #40]	; 0x28
   84996:	4b30      	ldr	r3, [pc, #192]	; (84a58 <_svfprintf_r+0x14fc>)
   84998:	f7ff b954 	b.w	83c44 <_svfprintf_r+0x6e8>
   8499c:	9b12      	ldr	r3, [sp, #72]	; 0x48
   8499e:	9a19      	ldr	r2, [sp, #100]	; 0x64
   849a0:	4413      	add	r3, r2
   849a2:	9a0a      	ldr	r2, [sp, #40]	; 0x28
   849a4:	441a      	add	r2, r3
   849a6:	ea22 73e2 	bic.w	r3, r2, r2, asr #31
   849aa:	920e      	str	r2, [sp, #56]	; 0x38
   849ac:	9308      	str	r3, [sp, #32]
   849ae:	e5dd      	b.n	8456c <_svfprintf_r+0x1010>
   849b0:	9b12      	ldr	r3, [sp, #72]	; 0x48
   849b2:	9a0e      	ldr	r2, [sp, #56]	; 0x38
   849b4:	f1c3 0301 	rsb	r3, r3, #1
   849b8:	441a      	add	r2, r3
   849ba:	4613      	mov	r3, r2
   849bc:	e7c3      	b.n	84946 <_svfprintf_r+0x13ea>
   849be:	f01b 0301 	ands.w	r3, fp, #1
   849c2:	9312      	str	r3, [sp, #72]	; 0x48
   849c4:	f47f aeb3 	bne.w	8472e <_svfprintf_r+0x11d2>
   849c8:	9b0e      	ldr	r3, [sp, #56]	; 0x38
   849ca:	ea23 73e3 	bic.w	r3, r3, r3, asr #31
   849ce:	9308      	str	r3, [sp, #32]
   849d0:	e5cc      	b.n	8456c <_svfprintf_r+0x1010>
   849d2:	4d1f      	ldr	r5, [pc, #124]	; (84a50 <_svfprintf_r+0x14f4>)
   849d4:	e43c      	b.n	84250 <_svfprintf_r+0xcf4>
   849d6:	9b26      	ldr	r3, [sp, #152]	; 0x98
   849d8:	4d1d      	ldr	r5, [pc, #116]	; (84a50 <_svfprintf_r+0x14f4>)
   849da:	e491      	b.n	84300 <_svfprintf_r+0xda4>
   849dc:	9d0f      	ldr	r5, [sp, #60]	; 0x3c
   849de:	f89a 3001 	ldrb.w	r3, [sl, #1]
   849e2:	6828      	ldr	r0, [r5, #0]
   849e4:	46a2      	mov	sl, r4
   849e6:	ea40 70e0 	orr.w	r0, r0, r0, asr #31
   849ea:	900a      	str	r0, [sp, #40]	; 0x28
   849ec:	4628      	mov	r0, r5
   849ee:	3004      	adds	r0, #4
   849f0:	900f      	str	r0, [sp, #60]	; 0x3c
   849f2:	f7fe be0d 	b.w	83610 <_svfprintf_r+0xb4>
   849f6:	9b0a      	ldr	r3, [sp, #40]	; 0x28
   849f8:	b913      	cbnz	r3, 84a00 <_svfprintf_r+0x14a4>
   849fa:	f01b 0f01 	tst.w	fp, #1
   849fe:	d002      	beq.n	84a06 <_svfprintf_r+0x14aa>
   84a00:	9b19      	ldr	r3, [sp, #100]	; 0x64
   84a02:	3301      	adds	r3, #1
   84a04:	e7cd      	b.n	849a2 <_svfprintf_r+0x1446>
   84a06:	2301      	movs	r3, #1
   84a08:	e71c      	b.n	84844 <_svfprintf_r+0x12e8>
   84a0a:	f88d 1077 	strb.w	r1, [sp, #119]	; 0x77
   84a0e:	f7ff b980 	b.w	83d12 <_svfprintf_r+0x7b6>
   84a12:	f88d 1077 	strb.w	r1, [sp, #119]	; 0x77
   84a16:	f7ff b93a 	b.w	83c8e <_svfprintf_r+0x732>
   84a1a:	f88d 1077 	strb.w	r1, [sp, #119]	; 0x77
   84a1e:	f7ff b84f 	b.w	83ac0 <_svfprintf_r+0x564>
   84a22:	f10d 0386 	add.w	r3, sp, #134	; 0x86
   84a26:	e679      	b.n	8471c <_svfprintf_r+0x11c0>
   84a28:	f88d 1077 	strb.w	r1, [sp, #119]	; 0x77
   84a2c:	f7ff b9b2 	b.w	83d94 <_svfprintf_r+0x838>
   84a30:	f04f 32ff 	mov.w	r2, #4294967295
   84a34:	230c      	movs	r3, #12
   84a36:	9209      	str	r2, [sp, #36]	; 0x24
   84a38:	9a0c      	ldr	r2, [sp, #48]	; 0x30
   84a3a:	6013      	str	r3, [r2, #0]
   84a3c:	f7fe be74 	b.w	83728 <_svfprintf_r+0x1cc>
   84a40:	f88d 1077 	strb.w	r1, [sp, #119]	; 0x77
   84a44:	f7ff b8c4 	b.w	83bd0 <_svfprintf_r+0x674>
   84a48:	f88d 1077 	strb.w	r1, [sp, #119]	; 0x77
   84a4c:	f7ff b878 	b.w	83b40 <_svfprintf_r+0x5e4>
   84a50:	00088830 	.word	0x00088830
   84a54:	000887e8 	.word	0x000887e8
   84a58:	000887e4 	.word	0x000887e4

00084a5c <__sprint_r.part.0>:
   84a5c:	e92d 4ff8 	stmdb	sp!, {r3, r4, r5, r6, r7, r8, r9, sl, fp, lr}
   84a60:	6e4b      	ldr	r3, [r1, #100]	; 0x64
   84a62:	4693      	mov	fp, r2
   84a64:	049c      	lsls	r4, r3, #18
   84a66:	d52f      	bpl.n	84ac8 <__sprint_r.part.0+0x6c>
   84a68:	6893      	ldr	r3, [r2, #8]
   84a6a:	6812      	ldr	r2, [r2, #0]
   84a6c:	b353      	cbz	r3, 84ac4 <__sprint_r.part.0+0x68>
   84a6e:	460e      	mov	r6, r1
   84a70:	4607      	mov	r7, r0
   84a72:	f102 0908 	add.w	r9, r2, #8
   84a76:	e919 0420 	ldmdb	r9, {r5, sl}
   84a7a:	ea5f 089a 	movs.w	r8, sl, lsr #2
   84a7e:	d017      	beq.n	84ab0 <__sprint_r.part.0+0x54>
   84a80:	2400      	movs	r4, #0
   84a82:	3d04      	subs	r5, #4
   84a84:	e001      	b.n	84a8a <__sprint_r.part.0+0x2e>
   84a86:	45a0      	cmp	r8, r4
   84a88:	d010      	beq.n	84aac <__sprint_r.part.0+0x50>
   84a8a:	4632      	mov	r2, r6
   84a8c:	f855 1f04 	ldr.w	r1, [r5, #4]!
   84a90:	4638      	mov	r0, r7
   84a92:	f002 f86d 	bl	86b70 <_fputwc_r>
   84a96:	1c43      	adds	r3, r0, #1
   84a98:	f104 0401 	add.w	r4, r4, #1
   84a9c:	d1f3      	bne.n	84a86 <__sprint_r.part.0+0x2a>
   84a9e:	2300      	movs	r3, #0
   84aa0:	f8cb 3008 	str.w	r3, [fp, #8]
   84aa4:	f8cb 3004 	str.w	r3, [fp, #4]
   84aa8:	e8bd 8ff8 	ldmia.w	sp!, {r3, r4, r5, r6, r7, r8, r9, sl, fp, pc}
   84aac:	f8db 3008 	ldr.w	r3, [fp, #8]
   84ab0:	f02a 0a03 	bic.w	sl, sl, #3
   84ab4:	eba3 030a 	sub.w	r3, r3, sl
   84ab8:	f8cb 3008 	str.w	r3, [fp, #8]
   84abc:	f109 0908 	add.w	r9, r9, #8
   84ac0:	2b00      	cmp	r3, #0
   84ac2:	d1d8      	bne.n	84a76 <__sprint_r.part.0+0x1a>
   84ac4:	2000      	movs	r0, #0
   84ac6:	e7ea      	b.n	84a9e <__sprint_r.part.0+0x42>
   84ac8:	f002 f9bc 	bl	86e44 <__sfvwrite_r>
   84acc:	2300      	movs	r3, #0
   84ace:	f8cb 3008 	str.w	r3, [fp, #8]
   84ad2:	f8cb 3004 	str.w	r3, [fp, #4]
   84ad6:	e8bd 8ff8 	ldmia.w	sp!, {r3, r4, r5, r6, r7, r8, r9, sl, fp, pc}
   84ada:	bf00      	nop

00084adc <_vfiprintf_r>:
   84adc:	e92d 4ff0 	stmdb	sp!, {r4, r5, r6, r7, r8, r9, sl, fp, lr}
   84ae0:	b0ad      	sub	sp, #180	; 0xb4
   84ae2:	461d      	mov	r5, r3
   84ae4:	468b      	mov	fp, r1
   84ae6:	4690      	mov	r8, r2
   84ae8:	9307      	str	r3, [sp, #28]
   84aea:	9006      	str	r0, [sp, #24]
   84aec:	b118      	cbz	r0, 84af6 <_vfiprintf_r+0x1a>
   84aee:	6b83      	ldr	r3, [r0, #56]	; 0x38
   84af0:	2b00      	cmp	r3, #0
   84af2:	f000 80f3 	beq.w	84cdc <_vfiprintf_r+0x200>
   84af6:	f8db 3064 	ldr.w	r3, [fp, #100]	; 0x64
   84afa:	f9bb 000c 	ldrsh.w	r0, [fp, #12]
   84afe:	07df      	lsls	r7, r3, #31
   84b00:	b281      	uxth	r1, r0
   84b02:	d402      	bmi.n	84b0a <_vfiprintf_r+0x2e>
   84b04:	058e      	lsls	r6, r1, #22
   84b06:	f140 80fc 	bpl.w	84d02 <_vfiprintf_r+0x226>
   84b0a:	048c      	lsls	r4, r1, #18
   84b0c:	d40a      	bmi.n	84b24 <_vfiprintf_r+0x48>
   84b0e:	f8db 3064 	ldr.w	r3, [fp, #100]	; 0x64
   84b12:	f440 5100 	orr.w	r1, r0, #8192	; 0x2000
   84b16:	f423 5300 	bic.w	r3, r3, #8192	; 0x2000
   84b1a:	f8ab 100c 	strh.w	r1, [fp, #12]
   84b1e:	f8cb 3064 	str.w	r3, [fp, #100]	; 0x64
   84b22:	b289      	uxth	r1, r1
   84b24:	0708      	lsls	r0, r1, #28
   84b26:	f140 80b3 	bpl.w	84c90 <_vfiprintf_r+0x1b4>
   84b2a:	f8db 3010 	ldr.w	r3, [fp, #16]
   84b2e:	2b00      	cmp	r3, #0
   84b30:	f000 80ae 	beq.w	84c90 <_vfiprintf_r+0x1b4>
   84b34:	f001 031a 	and.w	r3, r1, #26
   84b38:	2b0a      	cmp	r3, #10
   84b3a:	f000 80b5 	beq.w	84ca8 <_vfiprintf_r+0x1cc>
   84b3e:	2300      	movs	r3, #0
   84b40:	f10d 0a70 	add.w	sl, sp, #112	; 0x70
   84b44:	46d1      	mov	r9, sl
   84b46:	930b      	str	r3, [sp, #44]	; 0x2c
   84b48:	9303      	str	r3, [sp, #12]
   84b4a:	9311      	str	r3, [sp, #68]	; 0x44
   84b4c:	9310      	str	r3, [sp, #64]	; 0x40
   84b4e:	f8cd a03c 	str.w	sl, [sp, #60]	; 0x3c
   84b52:	f8cd b010 	str.w	fp, [sp, #16]
   84b56:	f898 3000 	ldrb.w	r3, [r8]
   84b5a:	4644      	mov	r4, r8
   84b5c:	b1fb      	cbz	r3, 84b9e <_vfiprintf_r+0xc2>
   84b5e:	2b25      	cmp	r3, #37	; 0x25
   84b60:	d102      	bne.n	84b68 <_vfiprintf_r+0x8c>
   84b62:	e01c      	b.n	84b9e <_vfiprintf_r+0xc2>
   84b64:	2b25      	cmp	r3, #37	; 0x25
   84b66:	d003      	beq.n	84b70 <_vfiprintf_r+0x94>
   84b68:	f814 3f01 	ldrb.w	r3, [r4, #1]!
   84b6c:	2b00      	cmp	r3, #0
   84b6e:	d1f9      	bne.n	84b64 <_vfiprintf_r+0x88>
   84b70:	eba4 0508 	sub.w	r5, r4, r8
   84b74:	b19d      	cbz	r5, 84b9e <_vfiprintf_r+0xc2>
   84b76:	9b10      	ldr	r3, [sp, #64]	; 0x40
   84b78:	9a11      	ldr	r2, [sp, #68]	; 0x44
   84b7a:	3301      	adds	r3, #1
   84b7c:	442a      	add	r2, r5
   84b7e:	2b07      	cmp	r3, #7
   84b80:	f8c9 8000 	str.w	r8, [r9]
   84b84:	f8c9 5004 	str.w	r5, [r9, #4]
   84b88:	9211      	str	r2, [sp, #68]	; 0x44
   84b8a:	9310      	str	r3, [sp, #64]	; 0x40
   84b8c:	dd7a      	ble.n	84c84 <_vfiprintf_r+0x1a8>
   84b8e:	2a00      	cmp	r2, #0
   84b90:	f040 84b5 	bne.w	854fe <_vfiprintf_r+0xa22>
   84b94:	46d1      	mov	r9, sl
   84b96:	9b03      	ldr	r3, [sp, #12]
   84b98:	9210      	str	r2, [sp, #64]	; 0x40
   84b9a:	442b      	add	r3, r5
   84b9c:	9303      	str	r3, [sp, #12]
   84b9e:	7823      	ldrb	r3, [r4, #0]
   84ba0:	2b00      	cmp	r3, #0
   84ba2:	f000 83e5 	beq.w	85370 <_vfiprintf_r+0x894>
   84ba6:	2000      	movs	r0, #0
   84ba8:	f04f 0300 	mov.w	r3, #0
   84bac:	f104 0801 	add.w	r8, r4, #1
   84bb0:	f88d 3037 	strb.w	r3, [sp, #55]	; 0x37
   84bb4:	7862      	ldrb	r2, [r4, #1]
   84bb6:	4606      	mov	r6, r0
   84bb8:	4605      	mov	r5, r0
   84bba:	4603      	mov	r3, r0
   84bbc:	f04f 34ff 	mov.w	r4, #4294967295
   84bc0:	f108 0801 	add.w	r8, r8, #1
   84bc4:	f1a2 0120 	sub.w	r1, r2, #32
   84bc8:	2958      	cmp	r1, #88	; 0x58
   84bca:	f200 82d9 	bhi.w	85180 <_vfiprintf_r+0x6a4>
   84bce:	e8df f011 	tbh	[pc, r1, lsl #1]
   84bd2:	0228      	.short	0x0228
   84bd4:	02d702d7 	.word	0x02d702d7
   84bd8:	02d70230 	.word	0x02d70230
   84bdc:	02d702d7 	.word	0x02d702d7
   84be0:	02d702d7 	.word	0x02d702d7
   84be4:	00a002d7 	.word	0x00a002d7
   84be8:	02d70288 	.word	0x02d70288
   84bec:	02b800a8 	.word	0x02b800a8
   84bf0:	01a602d7 	.word	0x01a602d7
   84bf4:	01ab01ab 	.word	0x01ab01ab
   84bf8:	01ab01ab 	.word	0x01ab01ab
   84bfc:	01ab01ab 	.word	0x01ab01ab
   84c00:	01ab01ab 	.word	0x01ab01ab
   84c04:	02d701ab 	.word	0x02d701ab
   84c08:	02d702d7 	.word	0x02d702d7
   84c0c:	02d702d7 	.word	0x02d702d7
   84c10:	02d702d7 	.word	0x02d702d7
   84c14:	02d702d7 	.word	0x02d702d7
   84c18:	01b902d7 	.word	0x01b902d7
   84c1c:	02d702d7 	.word	0x02d702d7
   84c20:	02d702d7 	.word	0x02d702d7
   84c24:	02d702d7 	.word	0x02d702d7
   84c28:	02d702d7 	.word	0x02d702d7
   84c2c:	02d702d7 	.word	0x02d702d7
   84c30:	02d7019e 	.word	0x02d7019e
   84c34:	02d702d7 	.word	0x02d702d7
   84c38:	02d702d7 	.word	0x02d702d7
   84c3c:	02d701a2 	.word	0x02d701a2
   84c40:	025a02d7 	.word	0x025a02d7
   84c44:	02d702d7 	.word	0x02d702d7
   84c48:	02d702d7 	.word	0x02d702d7
   84c4c:	02d702d7 	.word	0x02d702d7
   84c50:	02d702d7 	.word	0x02d702d7
   84c54:	02d702d7 	.word	0x02d702d7
   84c58:	02220261 	.word	0x02220261
   84c5c:	02d702d7 	.word	0x02d702d7
   84c60:	027602d7 	.word	0x027602d7
   84c64:	02d70222 	.word	0x02d70222
   84c68:	027b02d7 	.word	0x027b02d7
   84c6c:	01fc02d7 	.word	0x01fc02d7
   84c70:	02100189 	.word	0x02100189
   84c74:	02d702d2 	.word	0x02d702d2
   84c78:	02d70295 	.word	0x02d70295
   84c7c:	02d700ad 	.word	0x02d700ad
   84c80:	023502d7 	.word	0x023502d7
   84c84:	f109 0908 	add.w	r9, r9, #8
   84c88:	9b03      	ldr	r3, [sp, #12]
   84c8a:	442b      	add	r3, r5
   84c8c:	9303      	str	r3, [sp, #12]
   84c8e:	e786      	b.n	84b9e <_vfiprintf_r+0xc2>
   84c90:	4659      	mov	r1, fp
   84c92:	9806      	ldr	r0, [sp, #24]
   84c94:	f000 fdaa 	bl	857ec <__swsetup_r>
   84c98:	bb18      	cbnz	r0, 84ce2 <_vfiprintf_r+0x206>
   84c9a:	f8bb 100c 	ldrh.w	r1, [fp, #12]
   84c9e:	f001 031a 	and.w	r3, r1, #26
   84ca2:	2b0a      	cmp	r3, #10
   84ca4:	f47f af4b 	bne.w	84b3e <_vfiprintf_r+0x62>
   84ca8:	f9bb 300e 	ldrsh.w	r3, [fp, #14]
   84cac:	2b00      	cmp	r3, #0
   84cae:	f6ff af46 	blt.w	84b3e <_vfiprintf_r+0x62>
   84cb2:	f8db 3064 	ldr.w	r3, [fp, #100]	; 0x64
   84cb6:	07db      	lsls	r3, r3, #31
   84cb8:	d405      	bmi.n	84cc6 <_vfiprintf_r+0x1ea>
   84cba:	058f      	lsls	r7, r1, #22
   84cbc:	d403      	bmi.n	84cc6 <_vfiprintf_r+0x1ea>
   84cbe:	f8db 0058 	ldr.w	r0, [fp, #88]	; 0x58
   84cc2:	f002 fa83 	bl	871cc <__retarget_lock_release_recursive>
   84cc6:	462b      	mov	r3, r5
   84cc8:	4642      	mov	r2, r8
   84cca:	4659      	mov	r1, fp
   84ccc:	9806      	ldr	r0, [sp, #24]
   84cce:	f000 fd49 	bl	85764 <__sbprintf>
   84cd2:	9003      	str	r0, [sp, #12]
   84cd4:	9803      	ldr	r0, [sp, #12]
   84cd6:	b02d      	add	sp, #180	; 0xb4
   84cd8:	e8bd 8ff0 	ldmia.w	sp!, {r4, r5, r6, r7, r8, r9, sl, fp, pc}
   84cdc:	f001 fea6 	bl	86a2c <__sinit>
   84ce0:	e709      	b.n	84af6 <_vfiprintf_r+0x1a>
   84ce2:	f8db 3064 	ldr.w	r3, [fp, #100]	; 0x64
   84ce6:	07d9      	lsls	r1, r3, #31
   84ce8:	d404      	bmi.n	84cf4 <_vfiprintf_r+0x218>
   84cea:	f8bb 300c 	ldrh.w	r3, [fp, #12]
   84cee:	059a      	lsls	r2, r3, #22
   84cf0:	f140 84ae 	bpl.w	85650 <_vfiprintf_r+0xb74>
   84cf4:	f04f 33ff 	mov.w	r3, #4294967295
   84cf8:	9303      	str	r3, [sp, #12]
   84cfa:	9803      	ldr	r0, [sp, #12]
   84cfc:	b02d      	add	sp, #180	; 0xb4
   84cfe:	e8bd 8ff0 	ldmia.w	sp!, {r4, r5, r6, r7, r8, r9, sl, fp, pc}
   84d02:	f8db 0058 	ldr.w	r0, [fp, #88]	; 0x58
   84d06:	f002 fa5f 	bl	871c8 <__retarget_lock_acquire_recursive>
   84d0a:	f9bb 000c 	ldrsh.w	r0, [fp, #12]
   84d0e:	b281      	uxth	r1, r0
   84d10:	e6fb      	b.n	84b0a <_vfiprintf_r+0x2e>
   84d12:	9907      	ldr	r1, [sp, #28]
   84d14:	460a      	mov	r2, r1
   84d16:	680d      	ldr	r5, [r1, #0]
   84d18:	3204      	adds	r2, #4
   84d1a:	2d00      	cmp	r5, #0
   84d1c:	9207      	str	r2, [sp, #28]
   84d1e:	da02      	bge.n	84d26 <_vfiprintf_r+0x24a>
   84d20:	426d      	negs	r5, r5
   84d22:	f043 0304 	orr.w	r3, r3, #4
   84d26:	f898 2000 	ldrb.w	r2, [r8]
   84d2a:	e749      	b.n	84bc0 <_vfiprintf_r+0xe4>
   84d2c:	9508      	str	r5, [sp, #32]
   84d2e:	069e      	lsls	r6, r3, #26
   84d30:	f100 845a 	bmi.w	855e8 <_vfiprintf_r+0xb0c>
   84d34:	9907      	ldr	r1, [sp, #28]
   84d36:	06dd      	lsls	r5, r3, #27
   84d38:	460a      	mov	r2, r1
   84d3a:	f100 83ef 	bmi.w	8551c <_vfiprintf_r+0xa40>
   84d3e:	0658      	lsls	r0, r3, #25
   84d40:	f140 83ec 	bpl.w	8551c <_vfiprintf_r+0xa40>
   84d44:	2700      	movs	r7, #0
   84d46:	2201      	movs	r2, #1
   84d48:	880e      	ldrh	r6, [r1, #0]
   84d4a:	3104      	adds	r1, #4
   84d4c:	9107      	str	r1, [sp, #28]
   84d4e:	f04f 0100 	mov.w	r1, #0
   84d52:	2500      	movs	r5, #0
   84d54:	f88d 1037 	strb.w	r1, [sp, #55]	; 0x37
   84d58:	1c61      	adds	r1, r4, #1
   84d5a:	f000 8117 	beq.w	84f8c <_vfiprintf_r+0x4b0>
   84d5e:	f023 0180 	bic.w	r1, r3, #128	; 0x80
   84d62:	9102      	str	r1, [sp, #8]
   84d64:	ea56 0107 	orrs.w	r1, r6, r7
   84d68:	f040 8115 	bne.w	84f96 <_vfiprintf_r+0x4ba>
   84d6c:	2c00      	cmp	r4, #0
   84d6e:	f040 835b 	bne.w	85428 <_vfiprintf_r+0x94c>
   84d72:	2a00      	cmp	r2, #0
   84d74:	f040 83b6 	bne.w	854e4 <_vfiprintf_r+0xa08>
   84d78:	f013 0301 	ands.w	r3, r3, #1
   84d7c:	9305      	str	r3, [sp, #20]
   84d7e:	f000 8455 	beq.w	8562c <_vfiprintf_r+0xb50>
   84d82:	2330      	movs	r3, #48	; 0x30
   84d84:	f10d 0bb0 	add.w	fp, sp, #176	; 0xb0
   84d88:	f80b 3d41 	strb.w	r3, [fp, #-65]!
   84d8c:	9b05      	ldr	r3, [sp, #20]
   84d8e:	42a3      	cmp	r3, r4
   84d90:	bfb8      	it	lt
   84d92:	4623      	movlt	r3, r4
   84d94:	9301      	str	r3, [sp, #4]
   84d96:	b10d      	cbz	r5, 84d9c <_vfiprintf_r+0x2c0>
   84d98:	3301      	adds	r3, #1
   84d9a:	9301      	str	r3, [sp, #4]
   84d9c:	9b02      	ldr	r3, [sp, #8]
   84d9e:	f013 0302 	ands.w	r3, r3, #2
   84da2:	9309      	str	r3, [sp, #36]	; 0x24
   84da4:	d002      	beq.n	84dac <_vfiprintf_r+0x2d0>
   84da6:	9b01      	ldr	r3, [sp, #4]
   84da8:	3302      	adds	r3, #2
   84daa:	9301      	str	r3, [sp, #4]
   84dac:	9b02      	ldr	r3, [sp, #8]
   84dae:	f013 0384 	ands.w	r3, r3, #132	; 0x84
   84db2:	930a      	str	r3, [sp, #40]	; 0x28
   84db4:	f040 8215 	bne.w	851e2 <_vfiprintf_r+0x706>
   84db8:	9b08      	ldr	r3, [sp, #32]
   84dba:	9a01      	ldr	r2, [sp, #4]
   84dbc:	1a9d      	subs	r5, r3, r2
   84dbe:	2d00      	cmp	r5, #0
   84dc0:	f340 820f 	ble.w	851e2 <_vfiprintf_r+0x706>
   84dc4:	2d10      	cmp	r5, #16
   84dc6:	f340 8484 	ble.w	856d2 <_vfiprintf_r+0xbf6>
   84dca:	9b10      	ldr	r3, [sp, #64]	; 0x40
   84dcc:	46ce      	mov	lr, r9
   84dce:	2710      	movs	r7, #16
   84dd0:	46a1      	mov	r9, r4
   84dd2:	9a11      	ldr	r2, [sp, #68]	; 0x44
   84dd4:	4ec5      	ldr	r6, [pc, #788]	; (850ec <_vfiprintf_r+0x610>)
   84dd6:	4619      	mov	r1, r3
   84dd8:	9c06      	ldr	r4, [sp, #24]
   84dda:	e007      	b.n	84dec <_vfiprintf_r+0x310>
   84ddc:	f101 0c02 	add.w	ip, r1, #2
   84de0:	4601      	mov	r1, r0
   84de2:	f10e 0e08 	add.w	lr, lr, #8
   84de6:	3d10      	subs	r5, #16
   84de8:	2d10      	cmp	r5, #16
   84dea:	dd11      	ble.n	84e10 <_vfiprintf_r+0x334>
   84dec:	1c48      	adds	r0, r1, #1
   84dee:	3210      	adds	r2, #16
   84df0:	2807      	cmp	r0, #7
   84df2:	9211      	str	r2, [sp, #68]	; 0x44
   84df4:	e88e 00c0 	stmia.w	lr, {r6, r7}
   84df8:	9010      	str	r0, [sp, #64]	; 0x40
   84dfa:	ddef      	ble.n	84ddc <_vfiprintf_r+0x300>
   84dfc:	2a00      	cmp	r2, #0
   84dfe:	f040 81d9 	bne.w	851b4 <_vfiprintf_r+0x6d8>
   84e02:	3d10      	subs	r5, #16
   84e04:	2d10      	cmp	r5, #16
   84e06:	4611      	mov	r1, r2
   84e08:	f04f 0c01 	mov.w	ip, #1
   84e0c:	46d6      	mov	lr, sl
   84e0e:	dced      	bgt.n	84dec <_vfiprintf_r+0x310>
   84e10:	464c      	mov	r4, r9
   84e12:	4661      	mov	r1, ip
   84e14:	46f1      	mov	r9, lr
   84e16:	442a      	add	r2, r5
   84e18:	2907      	cmp	r1, #7
   84e1a:	9211      	str	r2, [sp, #68]	; 0x44
   84e1c:	f8c9 6000 	str.w	r6, [r9]
   84e20:	f8c9 5004 	str.w	r5, [r9, #4]
   84e24:	9110      	str	r1, [sp, #64]	; 0x40
   84e26:	f300 82eb 	bgt.w	85400 <_vfiprintf_r+0x924>
   84e2a:	f89d 5037 	ldrb.w	r5, [sp, #55]	; 0x37
   84e2e:	f109 0908 	add.w	r9, r9, #8
   84e32:	1c48      	adds	r0, r1, #1
   84e34:	2d00      	cmp	r5, #0
   84e36:	f040 81dc 	bne.w	851f2 <_vfiprintf_r+0x716>
   84e3a:	9b09      	ldr	r3, [sp, #36]	; 0x24
   84e3c:	2b00      	cmp	r3, #0
   84e3e:	f000 81f6 	beq.w	8522e <_vfiprintf_r+0x752>
   84e42:	2102      	movs	r1, #2
   84e44:	ab0e      	add	r3, sp, #56	; 0x38
   84e46:	440a      	add	r2, r1
   84e48:	2807      	cmp	r0, #7
   84e4a:	9211      	str	r2, [sp, #68]	; 0x44
   84e4c:	9010      	str	r0, [sp, #64]	; 0x40
   84e4e:	f8c9 1004 	str.w	r1, [r9, #4]
   84e52:	f8c9 3000 	str.w	r3, [r9]
   84e56:	f340 81e6 	ble.w	85226 <_vfiprintf_r+0x74a>
   84e5a:	2a00      	cmp	r2, #0
   84e5c:	f040 8395 	bne.w	8558a <_vfiprintf_r+0xaae>
   84e60:	9b0a      	ldr	r3, [sp, #40]	; 0x28
   84e62:	2001      	movs	r0, #1
   84e64:	2b80      	cmp	r3, #128	; 0x80
   84e66:	4611      	mov	r1, r2
   84e68:	46d1      	mov	r9, sl
   84e6a:	f040 81e4 	bne.w	85236 <_vfiprintf_r+0x75a>
   84e6e:	9b08      	ldr	r3, [sp, #32]
   84e70:	9d01      	ldr	r5, [sp, #4]
   84e72:	1b5e      	subs	r6, r3, r5
   84e74:	2e00      	cmp	r6, #0
   84e76:	f340 81de 	ble.w	85236 <_vfiprintf_r+0x75a>
   84e7a:	2e10      	cmp	r6, #16
   84e7c:	f340 843c 	ble.w	856f8 <_vfiprintf_r+0xc1c>
   84e80:	46cc      	mov	ip, r9
   84e82:	2710      	movs	r7, #16
   84e84:	46a1      	mov	r9, r4
   84e86:	4d9a      	ldr	r5, [pc, #616]	; (850f0 <_vfiprintf_r+0x614>)
   84e88:	9c06      	ldr	r4, [sp, #24]
   84e8a:	e007      	b.n	84e9c <_vfiprintf_r+0x3c0>
   84e8c:	f101 0e02 	add.w	lr, r1, #2
   84e90:	4601      	mov	r1, r0
   84e92:	f10c 0c08 	add.w	ip, ip, #8
   84e96:	3e10      	subs	r6, #16
   84e98:	2e10      	cmp	r6, #16
   84e9a:	dd11      	ble.n	84ec0 <_vfiprintf_r+0x3e4>
   84e9c:	1c48      	adds	r0, r1, #1
   84e9e:	3210      	adds	r2, #16
   84ea0:	2807      	cmp	r0, #7
   84ea2:	9211      	str	r2, [sp, #68]	; 0x44
   84ea4:	e88c 00a0 	stmia.w	ip, {r5, r7}
   84ea8:	9010      	str	r0, [sp, #64]	; 0x40
   84eaa:	ddef      	ble.n	84e8c <_vfiprintf_r+0x3b0>
   84eac:	2a00      	cmp	r2, #0
   84eae:	f040 829b 	bne.w	853e8 <_vfiprintf_r+0x90c>
   84eb2:	3e10      	subs	r6, #16
   84eb4:	2e10      	cmp	r6, #16
   84eb6:	f04f 0e01 	mov.w	lr, #1
   84eba:	4611      	mov	r1, r2
   84ebc:	46d4      	mov	ip, sl
   84ebe:	dced      	bgt.n	84e9c <_vfiprintf_r+0x3c0>
   84ec0:	464c      	mov	r4, r9
   84ec2:	46e1      	mov	r9, ip
   84ec4:	4432      	add	r2, r6
   84ec6:	f1be 0f07 	cmp.w	lr, #7
   84eca:	9211      	str	r2, [sp, #68]	; 0x44
   84ecc:	e889 0060 	stmia.w	r9, {r5, r6}
   84ed0:	f8cd e040 	str.w	lr, [sp, #64]	; 0x40
   84ed4:	f300 8366 	bgt.w	855a4 <_vfiprintf_r+0xac8>
   84ed8:	f109 0908 	add.w	r9, r9, #8
   84edc:	f10e 0001 	add.w	r0, lr, #1
   84ee0:	4671      	mov	r1, lr
   84ee2:	e1a8      	b.n	85236 <_vfiprintf_r+0x75a>
   84ee4:	9508      	str	r5, [sp, #32]
   84ee6:	f013 0220 	ands.w	r2, r3, #32
   84eea:	f040 8389 	bne.w	85600 <_vfiprintf_r+0xb24>
   84eee:	f013 0110 	ands.w	r1, r3, #16
   84ef2:	f040 8319 	bne.w	85528 <_vfiprintf_r+0xa4c>
   84ef6:	f013 0240 	ands.w	r2, r3, #64	; 0x40
   84efa:	f000 8315 	beq.w	85528 <_vfiprintf_r+0xa4c>
   84efe:	9807      	ldr	r0, [sp, #28]
   84f00:	460a      	mov	r2, r1
   84f02:	4601      	mov	r1, r0
   84f04:	3104      	adds	r1, #4
   84f06:	8806      	ldrh	r6, [r0, #0]
   84f08:	2700      	movs	r7, #0
   84f0a:	9107      	str	r1, [sp, #28]
   84f0c:	e71f      	b.n	84d4e <_vfiprintf_r+0x272>
   84f0e:	9508      	str	r5, [sp, #32]
   84f10:	f043 0310 	orr.w	r3, r3, #16
   84f14:	e7e7      	b.n	84ee6 <_vfiprintf_r+0x40a>
   84f16:	9508      	str	r5, [sp, #32]
   84f18:	f043 0310 	orr.w	r3, r3, #16
   84f1c:	e707      	b.n	84d2e <_vfiprintf_r+0x252>
   84f1e:	f043 0380 	orr.w	r3, r3, #128	; 0x80
   84f22:	f898 2000 	ldrb.w	r2, [r8]
   84f26:	e64b      	b.n	84bc0 <_vfiprintf_r+0xe4>
   84f28:	2500      	movs	r5, #0
   84f2a:	f1a2 0130 	sub.w	r1, r2, #48	; 0x30
   84f2e:	f818 2b01 	ldrb.w	r2, [r8], #1
   84f32:	eb05 0585 	add.w	r5, r5, r5, lsl #2
   84f36:	eb01 0545 	add.w	r5, r1, r5, lsl #1
   84f3a:	f1a2 0130 	sub.w	r1, r2, #48	; 0x30
   84f3e:	2909      	cmp	r1, #9
   84f40:	d9f5      	bls.n	84f2e <_vfiprintf_r+0x452>
   84f42:	e63f      	b.n	84bc4 <_vfiprintf_r+0xe8>
   84f44:	9508      	str	r5, [sp, #32]
   84f46:	2800      	cmp	r0, #0
   84f48:	f040 8402 	bne.w	85750 <_vfiprintf_r+0xc74>
   84f4c:	f043 0310 	orr.w	r3, r3, #16
   84f50:	069e      	lsls	r6, r3, #26
   84f52:	f100 833d 	bmi.w	855d0 <_vfiprintf_r+0xaf4>
   84f56:	9907      	ldr	r1, [sp, #28]
   84f58:	06dd      	lsls	r5, r3, #27
   84f5a:	460a      	mov	r2, r1
   84f5c:	f100 82f0 	bmi.w	85540 <_vfiprintf_r+0xa64>
   84f60:	0658      	lsls	r0, r3, #25
   84f62:	f140 82ed 	bpl.w	85540 <_vfiprintf_r+0xa64>
   84f66:	f9b1 6000 	ldrsh.w	r6, [r1]
   84f6a:	3204      	adds	r2, #4
   84f6c:	17f7      	asrs	r7, r6, #31
   84f6e:	4630      	mov	r0, r6
   84f70:	4639      	mov	r1, r7
   84f72:	9207      	str	r2, [sp, #28]
   84f74:	2800      	cmp	r0, #0
   84f76:	f171 0200 	sbcs.w	r2, r1, #0
   84f7a:	f2c0 835a 	blt.w	85632 <_vfiprintf_r+0xb56>
   84f7e:	1c61      	adds	r1, r4, #1
   84f80:	f89d 5037 	ldrb.w	r5, [sp, #55]	; 0x37
   84f84:	f04f 0201 	mov.w	r2, #1
   84f88:	f47f aee9 	bne.w	84d5e <_vfiprintf_r+0x282>
   84f8c:	ea56 0107 	orrs.w	r1, r6, r7
   84f90:	f000 824b 	beq.w	8542a <_vfiprintf_r+0x94e>
   84f94:	9302      	str	r3, [sp, #8]
   84f96:	2a01      	cmp	r2, #1
   84f98:	f000 828a 	beq.w	854b0 <_vfiprintf_r+0x9d4>
   84f9c:	2a02      	cmp	r2, #2
   84f9e:	f040 825a 	bne.w	85456 <_vfiprintf_r+0x97a>
   84fa2:	46d3      	mov	fp, sl
   84fa4:	980b      	ldr	r0, [sp, #44]	; 0x2c
   84fa6:	0933      	lsrs	r3, r6, #4
   84fa8:	ea43 7307 	orr.w	r3, r3, r7, lsl #28
   84fac:	0939      	lsrs	r1, r7, #4
   84fae:	f006 020f 	and.w	r2, r6, #15
   84fb2:	460f      	mov	r7, r1
   84fb4:	461e      	mov	r6, r3
   84fb6:	5c83      	ldrb	r3, [r0, r2]
   84fb8:	f80b 3d01 	strb.w	r3, [fp, #-1]!
   84fbc:	ea56 0307 	orrs.w	r3, r6, r7
   84fc0:	d1f1      	bne.n	84fa6 <_vfiprintf_r+0x4ca>
   84fc2:	ebaa 030b 	sub.w	r3, sl, fp
   84fc6:	9305      	str	r3, [sp, #20]
   84fc8:	e6e0      	b.n	84d8c <_vfiprintf_r+0x2b0>
   84fca:	2800      	cmp	r0, #0
   84fcc:	f040 83bd 	bne.w	8574a <_vfiprintf_r+0xc6e>
   84fd0:	0699      	lsls	r1, r3, #26
   84fd2:	f100 8359 	bmi.w	85688 <_vfiprintf_r+0xbac>
   84fd6:	06da      	lsls	r2, r3, #27
   84fd8:	f100 80e5 	bmi.w	851a6 <_vfiprintf_r+0x6ca>
   84fdc:	065b      	lsls	r3, r3, #25
   84fde:	f140 80e2 	bpl.w	851a6 <_vfiprintf_r+0x6ca>
   84fe2:	9a07      	ldr	r2, [sp, #28]
   84fe4:	6813      	ldr	r3, [r2, #0]
   84fe6:	3204      	adds	r2, #4
   84fe8:	9207      	str	r2, [sp, #28]
   84fea:	f8bd 200c 	ldrh.w	r2, [sp, #12]
   84fee:	801a      	strh	r2, [r3, #0]
   84ff0:	e5b1      	b.n	84b56 <_vfiprintf_r+0x7a>
   84ff2:	2278      	movs	r2, #120	; 0x78
   84ff4:	2130      	movs	r1, #48	; 0x30
   84ff6:	9508      	str	r5, [sp, #32]
   84ff8:	9d07      	ldr	r5, [sp, #28]
   84ffa:	f88d 2039 	strb.w	r2, [sp, #57]	; 0x39
   84ffe:	1d2a      	adds	r2, r5, #4
   85000:	9207      	str	r2, [sp, #28]
   85002:	4a3c      	ldr	r2, [pc, #240]	; (850f4 <_vfiprintf_r+0x618>)
   85004:	682e      	ldr	r6, [r5, #0]
   85006:	920b      	str	r2, [sp, #44]	; 0x2c
   85008:	f043 0302 	orr.w	r3, r3, #2
   8500c:	f88d 1038 	strb.w	r1, [sp, #56]	; 0x38
   85010:	2700      	movs	r7, #0
   85012:	2202      	movs	r2, #2
   85014:	e69b      	b.n	84d4e <_vfiprintf_r+0x272>
   85016:	9508      	str	r5, [sp, #32]
   85018:	2800      	cmp	r0, #0
   8501a:	d099      	beq.n	84f50 <_vfiprintf_r+0x474>
   8501c:	f88d 6037 	strb.w	r6, [sp, #55]	; 0x37
   85020:	e796      	b.n	84f50 <_vfiprintf_r+0x474>
   85022:	f898 2000 	ldrb.w	r2, [r8]
   85026:	2e00      	cmp	r6, #0
   85028:	f47f adca 	bne.w	84bc0 <_vfiprintf_r+0xe4>
   8502c:	2001      	movs	r0, #1
   8502e:	2620      	movs	r6, #32
   85030:	e5c6      	b.n	84bc0 <_vfiprintf_r+0xe4>
   85032:	f043 0301 	orr.w	r3, r3, #1
   85036:	f898 2000 	ldrb.w	r2, [r8]
   8503a:	e5c1      	b.n	84bc0 <_vfiprintf_r+0xe4>
   8503c:	9508      	str	r5, [sp, #32]
   8503e:	2800      	cmp	r0, #0
   85040:	f040 8380 	bne.w	85744 <_vfiprintf_r+0xc68>
   85044:	492b      	ldr	r1, [pc, #172]	; (850f4 <_vfiprintf_r+0x618>)
   85046:	910b      	str	r1, [sp, #44]	; 0x2c
   85048:	069f      	lsls	r7, r3, #26
   8504a:	f100 82e5 	bmi.w	85618 <_vfiprintf_r+0xb3c>
   8504e:	9807      	ldr	r0, [sp, #28]
   85050:	06de      	lsls	r6, r3, #27
   85052:	4601      	mov	r1, r0
   85054:	f100 826f 	bmi.w	85536 <_vfiprintf_r+0xa5a>
   85058:	065d      	lsls	r5, r3, #25
   8505a:	f140 826c 	bpl.w	85536 <_vfiprintf_r+0xa5a>
   8505e:	2700      	movs	r7, #0
   85060:	3104      	adds	r1, #4
   85062:	8806      	ldrh	r6, [r0, #0]
   85064:	9107      	str	r1, [sp, #28]
   85066:	07d8      	lsls	r0, r3, #31
   85068:	f140 8220 	bpl.w	854ac <_vfiprintf_r+0x9d0>
   8506c:	ea56 0107 	orrs.w	r1, r6, r7
   85070:	f000 821c 	beq.w	854ac <_vfiprintf_r+0x9d0>
   85074:	2130      	movs	r1, #48	; 0x30
   85076:	f88d 2039 	strb.w	r2, [sp, #57]	; 0x39
   8507a:	f043 0302 	orr.w	r3, r3, #2
   8507e:	f88d 1038 	strb.w	r1, [sp, #56]	; 0x38
   85082:	2202      	movs	r2, #2
   85084:	e663      	b.n	84d4e <_vfiprintf_r+0x272>
   85086:	9508      	str	r5, [sp, #32]
   85088:	2800      	cmp	r0, #0
   8508a:	f040 8355 	bne.w	85738 <_vfiprintf_r+0xc5c>
   8508e:	491a      	ldr	r1, [pc, #104]	; (850f8 <_vfiprintf_r+0x61c>)
   85090:	910b      	str	r1, [sp, #44]	; 0x2c
   85092:	e7d9      	b.n	85048 <_vfiprintf_r+0x56c>
   85094:	2201      	movs	r2, #1
   85096:	9807      	ldr	r0, [sp, #28]
   85098:	4611      	mov	r1, r2
   8509a:	9201      	str	r2, [sp, #4]
   8509c:	6802      	ldr	r2, [r0, #0]
   8509e:	f04f 0400 	mov.w	r4, #0
   850a2:	f88d 2048 	strb.w	r2, [sp, #72]	; 0x48
   850a6:	4602      	mov	r2, r0
   850a8:	3204      	adds	r2, #4
   850aa:	9508      	str	r5, [sp, #32]
   850ac:	f88d 4037 	strb.w	r4, [sp, #55]	; 0x37
   850b0:	9105      	str	r1, [sp, #20]
   850b2:	9207      	str	r2, [sp, #28]
   850b4:	f10d 0b48 	add.w	fp, sp, #72	; 0x48
   850b8:	9302      	str	r3, [sp, #8]
   850ba:	2400      	movs	r4, #0
   850bc:	e66e      	b.n	84d9c <_vfiprintf_r+0x2c0>
   850be:	f043 0340 	orr.w	r3, r3, #64	; 0x40
   850c2:	f898 2000 	ldrb.w	r2, [r8]
   850c6:	e57b      	b.n	84bc0 <_vfiprintf_r+0xe4>
   850c8:	f898 2000 	ldrb.w	r2, [r8]
   850cc:	2a6c      	cmp	r2, #108	; 0x6c
   850ce:	bf03      	ittte	eq
   850d0:	f898 2001 	ldrbeq.w	r2, [r8, #1]
   850d4:	f043 0320 	orreq.w	r3, r3, #32
   850d8:	f108 0801 	addeq.w	r8, r8, #1
   850dc:	f043 0310 	orrne.w	r3, r3, #16
   850e0:	e56e      	b.n	84bc0 <_vfiprintf_r+0xe4>
   850e2:	f898 2000 	ldrb.w	r2, [r8]
   850e6:	2001      	movs	r0, #1
   850e8:	262b      	movs	r6, #43	; 0x2b
   850ea:	e569      	b.n	84bc0 <_vfiprintf_r+0xe4>
   850ec:	00088840 	.word	0x00088840
   850f0:	00088850 	.word	0x00088850
   850f4:	00088800 	.word	0x00088800
   850f8:	000887ec 	.word	0x000887ec
   850fc:	f04f 0200 	mov.w	r2, #0
   85100:	9907      	ldr	r1, [sp, #28]
   85102:	9508      	str	r5, [sp, #32]
   85104:	f8d1 b000 	ldr.w	fp, [r1]
   85108:	f88d 2037 	strb.w	r2, [sp, #55]	; 0x37
   8510c:	1d0d      	adds	r5, r1, #4
   8510e:	f1bb 0f00 	cmp.w	fp, #0
   85112:	f000 82e4 	beq.w	856de <_vfiprintf_r+0xc02>
   85116:	1c67      	adds	r7, r4, #1
   85118:	f000 82c3 	beq.w	856a2 <_vfiprintf_r+0xbc6>
   8511c:	4622      	mov	r2, r4
   8511e:	2100      	movs	r1, #0
   85120:	4658      	mov	r0, fp
   85122:	9301      	str	r3, [sp, #4]
   85124:	f002 f8e2 	bl	872ec <memchr>
   85128:	9b01      	ldr	r3, [sp, #4]
   8512a:	2800      	cmp	r0, #0
   8512c:	f000 82e8 	beq.w	85700 <_vfiprintf_r+0xc24>
   85130:	eba0 020b 	sub.w	r2, r0, fp
   85134:	9507      	str	r5, [sp, #28]
   85136:	9205      	str	r2, [sp, #20]
   85138:	9302      	str	r3, [sp, #8]
   8513a:	f89d 5037 	ldrb.w	r5, [sp, #55]	; 0x37
   8513e:	2400      	movs	r4, #0
   85140:	e624      	b.n	84d8c <_vfiprintf_r+0x2b0>
   85142:	f898 2000 	ldrb.w	r2, [r8]
   85146:	f108 0701 	add.w	r7, r8, #1
   8514a:	2a2a      	cmp	r2, #42	; 0x2a
   8514c:	f000 82e9 	beq.w	85722 <_vfiprintf_r+0xc46>
   85150:	f1a2 0130 	sub.w	r1, r2, #48	; 0x30
   85154:	2909      	cmp	r1, #9
   85156:	46b8      	mov	r8, r7
   85158:	f04f 0400 	mov.w	r4, #0
   8515c:	f63f ad32 	bhi.w	84bc4 <_vfiprintf_r+0xe8>
   85160:	f818 2b01 	ldrb.w	r2, [r8], #1
   85164:	eb04 0484 	add.w	r4, r4, r4, lsl #2
   85168:	eb01 0444 	add.w	r4, r1, r4, lsl #1
   8516c:	f1a2 0130 	sub.w	r1, r2, #48	; 0x30
   85170:	2909      	cmp	r1, #9
   85172:	d9f5      	bls.n	85160 <_vfiprintf_r+0x684>
   85174:	e526      	b.n	84bc4 <_vfiprintf_r+0xe8>
   85176:	f043 0320 	orr.w	r3, r3, #32
   8517a:	f898 2000 	ldrb.w	r2, [r8]
   8517e:	e51f      	b.n	84bc0 <_vfiprintf_r+0xe4>
   85180:	9508      	str	r5, [sp, #32]
   85182:	2800      	cmp	r0, #0
   85184:	f040 82db 	bne.w	8573e <_vfiprintf_r+0xc62>
   85188:	2a00      	cmp	r2, #0
   8518a:	f000 80f1 	beq.w	85370 <_vfiprintf_r+0x894>
   8518e:	2101      	movs	r1, #1
   85190:	f88d 2048 	strb.w	r2, [sp, #72]	; 0x48
   85194:	f04f 0200 	mov.w	r2, #0
   85198:	9101      	str	r1, [sp, #4]
   8519a:	f88d 2037 	strb.w	r2, [sp, #55]	; 0x37
   8519e:	9105      	str	r1, [sp, #20]
   851a0:	f10d 0b48 	add.w	fp, sp, #72	; 0x48
   851a4:	e788      	b.n	850b8 <_vfiprintf_r+0x5dc>
   851a6:	9a07      	ldr	r2, [sp, #28]
   851a8:	6813      	ldr	r3, [r2, #0]
   851aa:	3204      	adds	r2, #4
   851ac:	9207      	str	r2, [sp, #28]
   851ae:	9a03      	ldr	r2, [sp, #12]
   851b0:	601a      	str	r2, [r3, #0]
   851b2:	e4d0      	b.n	84b56 <_vfiprintf_r+0x7a>
   851b4:	aa0f      	add	r2, sp, #60	; 0x3c
   851b6:	9904      	ldr	r1, [sp, #16]
   851b8:	4620      	mov	r0, r4
   851ba:	f7ff fc4f 	bl	84a5c <__sprint_r.part.0>
   851be:	2800      	cmp	r0, #0
   851c0:	f040 8143 	bne.w	8544a <_vfiprintf_r+0x96e>
   851c4:	9910      	ldr	r1, [sp, #64]	; 0x40
   851c6:	46d6      	mov	lr, sl
   851c8:	9a11      	ldr	r2, [sp, #68]	; 0x44
   851ca:	f101 0c01 	add.w	ip, r1, #1
   851ce:	e60a      	b.n	84de6 <_vfiprintf_r+0x30a>
   851d0:	aa0f      	add	r2, sp, #60	; 0x3c
   851d2:	9904      	ldr	r1, [sp, #16]
   851d4:	9806      	ldr	r0, [sp, #24]
   851d6:	f7ff fc41 	bl	84a5c <__sprint_r.part.0>
   851da:	2800      	cmp	r0, #0
   851dc:	f040 8135 	bne.w	8544a <_vfiprintf_r+0x96e>
   851e0:	46d1      	mov	r9, sl
   851e2:	9910      	ldr	r1, [sp, #64]	; 0x40
   851e4:	f89d 5037 	ldrb.w	r5, [sp, #55]	; 0x37
   851e8:	9a11      	ldr	r2, [sp, #68]	; 0x44
   851ea:	1c48      	adds	r0, r1, #1
   851ec:	2d00      	cmp	r5, #0
   851ee:	f43f ae24 	beq.w	84e3a <_vfiprintf_r+0x35e>
   851f2:	2101      	movs	r1, #1
   851f4:	f10d 0537 	add.w	r5, sp, #55	; 0x37
   851f8:	440a      	add	r2, r1
   851fa:	2807      	cmp	r0, #7
   851fc:	9211      	str	r2, [sp, #68]	; 0x44
   851fe:	9010      	str	r0, [sp, #64]	; 0x40
   85200:	f8c9 1004 	str.w	r1, [r9, #4]
   85204:	f8c9 5000 	str.w	r5, [r9]
   85208:	f340 8109 	ble.w	8541e <_vfiprintf_r+0x942>
   8520c:	2a00      	cmp	r2, #0
   8520e:	f040 81af 	bne.w	85570 <_vfiprintf_r+0xa94>
   85212:	9b09      	ldr	r3, [sp, #36]	; 0x24
   85214:	2b00      	cmp	r3, #0
   85216:	f43f ae23 	beq.w	84e60 <_vfiprintf_r+0x384>
   8521a:	2202      	movs	r2, #2
   8521c:	4608      	mov	r0, r1
   8521e:	46d1      	mov	r9, sl
   85220:	ab0e      	add	r3, sp, #56	; 0x38
   85222:	921d      	str	r2, [sp, #116]	; 0x74
   85224:	931c      	str	r3, [sp, #112]	; 0x70
   85226:	4601      	mov	r1, r0
   85228:	f109 0908 	add.w	r9, r9, #8
   8522c:	3001      	adds	r0, #1
   8522e:	9b0a      	ldr	r3, [sp, #40]	; 0x28
   85230:	2b80      	cmp	r3, #128	; 0x80
   85232:	f43f ae1c 	beq.w	84e6e <_vfiprintf_r+0x392>
   85236:	9b05      	ldr	r3, [sp, #20]
   85238:	1ae4      	subs	r4, r4, r3
   8523a:	2c00      	cmp	r4, #0
   8523c:	dd2f      	ble.n	8529e <_vfiprintf_r+0x7c2>
   8523e:	2c10      	cmp	r4, #16
   85240:	f340 8220 	ble.w	85684 <_vfiprintf_r+0xba8>
   85244:	46ce      	mov	lr, r9
   85246:	2610      	movs	r6, #16
   85248:	4db2      	ldr	r5, [pc, #712]	; (85514 <_vfiprintf_r+0xa38>)
   8524a:	9f06      	ldr	r7, [sp, #24]
   8524c:	f8dd 9010 	ldr.w	r9, [sp, #16]
   85250:	e006      	b.n	85260 <_vfiprintf_r+0x784>
   85252:	1c88      	adds	r0, r1, #2
   85254:	4619      	mov	r1, r3
   85256:	f10e 0e08 	add.w	lr, lr, #8
   8525a:	3c10      	subs	r4, #16
   8525c:	2c10      	cmp	r4, #16
   8525e:	dd10      	ble.n	85282 <_vfiprintf_r+0x7a6>
   85260:	1c4b      	adds	r3, r1, #1
   85262:	3210      	adds	r2, #16
   85264:	2b07      	cmp	r3, #7
   85266:	9211      	str	r2, [sp, #68]	; 0x44
   85268:	e88e 0060 	stmia.w	lr, {r5, r6}
   8526c:	9310      	str	r3, [sp, #64]	; 0x40
   8526e:	ddf0      	ble.n	85252 <_vfiprintf_r+0x776>
   85270:	2a00      	cmp	r2, #0
   85272:	d165      	bne.n	85340 <_vfiprintf_r+0x864>
   85274:	3c10      	subs	r4, #16
   85276:	2c10      	cmp	r4, #16
   85278:	f04f 0001 	mov.w	r0, #1
   8527c:	4611      	mov	r1, r2
   8527e:	46d6      	mov	lr, sl
   85280:	dcee      	bgt.n	85260 <_vfiprintf_r+0x784>
   85282:	46f1      	mov	r9, lr
   85284:	4422      	add	r2, r4
   85286:	2807      	cmp	r0, #7
   85288:	9211      	str	r2, [sp, #68]	; 0x44
   8528a:	f8c9 5000 	str.w	r5, [r9]
   8528e:	f8c9 4004 	str.w	r4, [r9, #4]
   85292:	9010      	str	r0, [sp, #64]	; 0x40
   85294:	f300 8085 	bgt.w	853a2 <_vfiprintf_r+0x8c6>
   85298:	f109 0908 	add.w	r9, r9, #8
   8529c:	3001      	adds	r0, #1
   8529e:	9905      	ldr	r1, [sp, #20]
   852a0:	2807      	cmp	r0, #7
   852a2:	440a      	add	r2, r1
   852a4:	9211      	str	r2, [sp, #68]	; 0x44
   852a6:	f8c9 b000 	str.w	fp, [r9]
   852aa:	f8c9 1004 	str.w	r1, [r9, #4]
   852ae:	9010      	str	r0, [sp, #64]	; 0x40
   852b0:	f340 8082 	ble.w	853b8 <_vfiprintf_r+0x8dc>
   852b4:	2a00      	cmp	r2, #0
   852b6:	f040 8118 	bne.w	854ea <_vfiprintf_r+0xa0e>
   852ba:	9b02      	ldr	r3, [sp, #8]
   852bc:	9210      	str	r2, [sp, #64]	; 0x40
   852be:	0758      	lsls	r0, r3, #29
   852c0:	d535      	bpl.n	8532e <_vfiprintf_r+0x852>
   852c2:	9b08      	ldr	r3, [sp, #32]
   852c4:	9901      	ldr	r1, [sp, #4]
   852c6:	1a5c      	subs	r4, r3, r1
   852c8:	2c00      	cmp	r4, #0
   852ca:	f340 80e7 	ble.w	8549c <_vfiprintf_r+0x9c0>
   852ce:	46d1      	mov	r9, sl
   852d0:	2c10      	cmp	r4, #16
   852d2:	f340 820d 	ble.w	856f0 <_vfiprintf_r+0xc14>
   852d6:	2510      	movs	r5, #16
   852d8:	9910      	ldr	r1, [sp, #64]	; 0x40
   852da:	4e8f      	ldr	r6, [pc, #572]	; (85518 <_vfiprintf_r+0xa3c>)
   852dc:	9f06      	ldr	r7, [sp, #24]
   852de:	f8dd b010 	ldr.w	fp, [sp, #16]
   852e2:	e006      	b.n	852f2 <_vfiprintf_r+0x816>
   852e4:	1c88      	adds	r0, r1, #2
   852e6:	4619      	mov	r1, r3
   852e8:	f109 0908 	add.w	r9, r9, #8
   852ec:	3c10      	subs	r4, #16
   852ee:	2c10      	cmp	r4, #16
   852f0:	dd11      	ble.n	85316 <_vfiprintf_r+0x83a>
   852f2:	1c4b      	adds	r3, r1, #1
   852f4:	3210      	adds	r2, #16
   852f6:	2b07      	cmp	r3, #7
   852f8:	9211      	str	r2, [sp, #68]	; 0x44
   852fa:	f8c9 6000 	str.w	r6, [r9]
   852fe:	f8c9 5004 	str.w	r5, [r9, #4]
   85302:	9310      	str	r3, [sp, #64]	; 0x40
   85304:	ddee      	ble.n	852e4 <_vfiprintf_r+0x808>
   85306:	bb42      	cbnz	r2, 8535a <_vfiprintf_r+0x87e>
   85308:	3c10      	subs	r4, #16
   8530a:	2c10      	cmp	r4, #16
   8530c:	f04f 0001 	mov.w	r0, #1
   85310:	4611      	mov	r1, r2
   85312:	46d1      	mov	r9, sl
   85314:	dced      	bgt.n	852f2 <_vfiprintf_r+0x816>
   85316:	4422      	add	r2, r4
   85318:	2807      	cmp	r0, #7
   8531a:	9211      	str	r2, [sp, #68]	; 0x44
   8531c:	f8c9 6000 	str.w	r6, [r9]
   85320:	f8c9 4004 	str.w	r4, [r9, #4]
   85324:	9010      	str	r0, [sp, #64]	; 0x40
   85326:	dd51      	ble.n	853cc <_vfiprintf_r+0x8f0>
   85328:	2a00      	cmp	r2, #0
   8532a:	f040 819a 	bne.w	85662 <_vfiprintf_r+0xb86>
   8532e:	9b03      	ldr	r3, [sp, #12]
   85330:	9a08      	ldr	r2, [sp, #32]
   85332:	9901      	ldr	r1, [sp, #4]
   85334:	428a      	cmp	r2, r1
   85336:	bfac      	ite	ge
   85338:	189b      	addge	r3, r3, r2
   8533a:	185b      	addlt	r3, r3, r1
   8533c:	9303      	str	r3, [sp, #12]
   8533e:	e04e      	b.n	853de <_vfiprintf_r+0x902>
   85340:	aa0f      	add	r2, sp, #60	; 0x3c
   85342:	4649      	mov	r1, r9
   85344:	4638      	mov	r0, r7
   85346:	f7ff fb89 	bl	84a5c <__sprint_r.part.0>
   8534a:	2800      	cmp	r0, #0
   8534c:	f040 813e 	bne.w	855cc <_vfiprintf_r+0xaf0>
   85350:	9910      	ldr	r1, [sp, #64]	; 0x40
   85352:	46d6      	mov	lr, sl
   85354:	9a11      	ldr	r2, [sp, #68]	; 0x44
   85356:	1c48      	adds	r0, r1, #1
   85358:	e77f      	b.n	8525a <_vfiprintf_r+0x77e>
   8535a:	aa0f      	add	r2, sp, #60	; 0x3c
   8535c:	4659      	mov	r1, fp
   8535e:	4638      	mov	r0, r7
   85360:	f7ff fb7c 	bl	84a5c <__sprint_r.part.0>
   85364:	b960      	cbnz	r0, 85380 <_vfiprintf_r+0x8a4>
   85366:	9910      	ldr	r1, [sp, #64]	; 0x40
   85368:	46d1      	mov	r9, sl
   8536a:	9a11      	ldr	r2, [sp, #68]	; 0x44
   8536c:	1c48      	adds	r0, r1, #1
   8536e:	e7bd      	b.n	852ec <_vfiprintf_r+0x810>
   85370:	9b11      	ldr	r3, [sp, #68]	; 0x44
   85372:	f8dd b010 	ldr.w	fp, [sp, #16]
   85376:	2b00      	cmp	r3, #0
   85378:	f040 81ca 	bne.w	85710 <_vfiprintf_r+0xc34>
   8537c:	2300      	movs	r3, #0
   8537e:	9310      	str	r3, [sp, #64]	; 0x40
   85380:	f8db 3064 	ldr.w	r3, [fp, #100]	; 0x64
   85384:	f013 0f01 	tst.w	r3, #1
   85388:	f8bb 300c 	ldrh.w	r3, [fp, #12]
   8538c:	d102      	bne.n	85394 <_vfiprintf_r+0x8b8>
   8538e:	059a      	lsls	r2, r3, #22
   85390:	f140 80dd 	bpl.w	8554e <_vfiprintf_r+0xa72>
   85394:	065b      	lsls	r3, r3, #25
   85396:	f53f acad 	bmi.w	84cf4 <_vfiprintf_r+0x218>
   8539a:	9803      	ldr	r0, [sp, #12]
   8539c:	b02d      	add	sp, #180	; 0xb4
   8539e:	e8bd 8ff0 	ldmia.w	sp!, {r4, r5, r6, r7, r8, r9, sl, fp, pc}
   853a2:	2a00      	cmp	r2, #0
   853a4:	f040 8105 	bne.w	855b2 <_vfiprintf_r+0xad6>
   853a8:	2301      	movs	r3, #1
   853aa:	46d1      	mov	r9, sl
   853ac:	9a05      	ldr	r2, [sp, #20]
   853ae:	f8cd b070 	str.w	fp, [sp, #112]	; 0x70
   853b2:	921d      	str	r2, [sp, #116]	; 0x74
   853b4:	9211      	str	r2, [sp, #68]	; 0x44
   853b6:	9310      	str	r3, [sp, #64]	; 0x40
   853b8:	f109 0908 	add.w	r9, r9, #8
   853bc:	9b02      	ldr	r3, [sp, #8]
   853be:	0759      	lsls	r1, r3, #29
   853c0:	d504      	bpl.n	853cc <_vfiprintf_r+0x8f0>
   853c2:	9b08      	ldr	r3, [sp, #32]
   853c4:	9901      	ldr	r1, [sp, #4]
   853c6:	1a5c      	subs	r4, r3, r1
   853c8:	2c00      	cmp	r4, #0
   853ca:	dc81      	bgt.n	852d0 <_vfiprintf_r+0x7f4>
   853cc:	9b03      	ldr	r3, [sp, #12]
   853ce:	9908      	ldr	r1, [sp, #32]
   853d0:	9801      	ldr	r0, [sp, #4]
   853d2:	4281      	cmp	r1, r0
   853d4:	bfac      	ite	ge
   853d6:	185b      	addge	r3, r3, r1
   853d8:	181b      	addlt	r3, r3, r0
   853da:	9303      	str	r3, [sp, #12]
   853dc:	bb72      	cbnz	r2, 8543c <_vfiprintf_r+0x960>
   853de:	2300      	movs	r3, #0
   853e0:	46d1      	mov	r9, sl
   853e2:	9310      	str	r3, [sp, #64]	; 0x40
   853e4:	f7ff bbb7 	b.w	84b56 <_vfiprintf_r+0x7a>
   853e8:	aa0f      	add	r2, sp, #60	; 0x3c
   853ea:	9904      	ldr	r1, [sp, #16]
   853ec:	4620      	mov	r0, r4
   853ee:	f7ff fb35 	bl	84a5c <__sprint_r.part.0>
   853f2:	bb50      	cbnz	r0, 8544a <_vfiprintf_r+0x96e>
   853f4:	9910      	ldr	r1, [sp, #64]	; 0x40
   853f6:	46d4      	mov	ip, sl
   853f8:	9a11      	ldr	r2, [sp, #68]	; 0x44
   853fa:	f101 0e01 	add.w	lr, r1, #1
   853fe:	e54a      	b.n	84e96 <_vfiprintf_r+0x3ba>
   85400:	2a00      	cmp	r2, #0
   85402:	f47f aee5 	bne.w	851d0 <_vfiprintf_r+0x6f4>
   85406:	f89d 1037 	ldrb.w	r1, [sp, #55]	; 0x37
   8540a:	2900      	cmp	r1, #0
   8540c:	f000 811a 	beq.w	85644 <_vfiprintf_r+0xb68>
   85410:	2201      	movs	r2, #1
   85412:	46d1      	mov	r9, sl
   85414:	4610      	mov	r0, r2
   85416:	f10d 0137 	add.w	r1, sp, #55	; 0x37
   8541a:	921d      	str	r2, [sp, #116]	; 0x74
   8541c:	911c      	str	r1, [sp, #112]	; 0x70
   8541e:	4601      	mov	r1, r0
   85420:	f109 0908 	add.w	r9, r9, #8
   85424:	3001      	adds	r0, #1
   85426:	e508      	b.n	84e3a <_vfiprintf_r+0x35e>
   85428:	9b02      	ldr	r3, [sp, #8]
   8542a:	2a01      	cmp	r2, #1
   8542c:	f000 8097 	beq.w	8555e <_vfiprintf_r+0xa82>
   85430:	2a02      	cmp	r2, #2
   85432:	d10d      	bne.n	85450 <_vfiprintf_r+0x974>
   85434:	9302      	str	r3, [sp, #8]
   85436:	2600      	movs	r6, #0
   85438:	2700      	movs	r7, #0
   8543a:	e5b2      	b.n	84fa2 <_vfiprintf_r+0x4c6>
   8543c:	aa0f      	add	r2, sp, #60	; 0x3c
   8543e:	9904      	ldr	r1, [sp, #16]
   85440:	9806      	ldr	r0, [sp, #24]
   85442:	f7ff fb0b 	bl	84a5c <__sprint_r.part.0>
   85446:	2800      	cmp	r0, #0
   85448:	d0c9      	beq.n	853de <_vfiprintf_r+0x902>
   8544a:	f8dd b010 	ldr.w	fp, [sp, #16]
   8544e:	e797      	b.n	85380 <_vfiprintf_r+0x8a4>
   85450:	2600      	movs	r6, #0
   85452:	2700      	movs	r7, #0
   85454:	9302      	str	r3, [sp, #8]
   85456:	4651      	mov	r1, sl
   85458:	e000      	b.n	8545c <_vfiprintf_r+0x980>
   8545a:	4659      	mov	r1, fp
   8545c:	08f2      	lsrs	r2, r6, #3
   8545e:	ea42 7247 	orr.w	r2, r2, r7, lsl #29
   85462:	08f8      	lsrs	r0, r7, #3
   85464:	f006 0307 	and.w	r3, r6, #7
   85468:	4607      	mov	r7, r0
   8546a:	4616      	mov	r6, r2
   8546c:	3330      	adds	r3, #48	; 0x30
   8546e:	ea56 0207 	orrs.w	r2, r6, r7
   85472:	f801 3c01 	strb.w	r3, [r1, #-1]
   85476:	f101 3bff 	add.w	fp, r1, #4294967295
   8547a:	d1ee      	bne.n	8545a <_vfiprintf_r+0x97e>
   8547c:	9a02      	ldr	r2, [sp, #8]
   8547e:	07d6      	lsls	r6, r2, #31
   85480:	f57f ad9f 	bpl.w	84fc2 <_vfiprintf_r+0x4e6>
   85484:	2b30      	cmp	r3, #48	; 0x30
   85486:	f43f ad9c 	beq.w	84fc2 <_vfiprintf_r+0x4e6>
   8548a:	2330      	movs	r3, #48	; 0x30
   8548c:	3902      	subs	r1, #2
   8548e:	f80b 3c01 	strb.w	r3, [fp, #-1]
   85492:	ebaa 0301 	sub.w	r3, sl, r1
   85496:	9305      	str	r3, [sp, #20]
   85498:	468b      	mov	fp, r1
   8549a:	e477      	b.n	84d8c <_vfiprintf_r+0x2b0>
   8549c:	9b03      	ldr	r3, [sp, #12]
   8549e:	9a08      	ldr	r2, [sp, #32]
   854a0:	428a      	cmp	r2, r1
   854a2:	bfac      	ite	ge
   854a4:	189b      	addge	r3, r3, r2
   854a6:	185b      	addlt	r3, r3, r1
   854a8:	9303      	str	r3, [sp, #12]
   854aa:	e798      	b.n	853de <_vfiprintf_r+0x902>
   854ac:	2202      	movs	r2, #2
   854ae:	e44e      	b.n	84d4e <_vfiprintf_r+0x272>
   854b0:	2f00      	cmp	r7, #0
   854b2:	bf08      	it	eq
   854b4:	2e0a      	cmpeq	r6, #10
   854b6:	d351      	bcc.n	8555c <_vfiprintf_r+0xa80>
   854b8:	46d3      	mov	fp, sl
   854ba:	4630      	mov	r0, r6
   854bc:	4639      	mov	r1, r7
   854be:	220a      	movs	r2, #10
   854c0:	2300      	movs	r3, #0
   854c2:	f002 ffcb 	bl	8845c <__aeabi_uldivmod>
   854c6:	3230      	adds	r2, #48	; 0x30
   854c8:	f80b 2d01 	strb.w	r2, [fp, #-1]!
   854cc:	4630      	mov	r0, r6
   854ce:	4639      	mov	r1, r7
   854d0:	2300      	movs	r3, #0
   854d2:	220a      	movs	r2, #10
   854d4:	f002 ffc2 	bl	8845c <__aeabi_uldivmod>
   854d8:	4606      	mov	r6, r0
   854da:	460f      	mov	r7, r1
   854dc:	ea56 0307 	orrs.w	r3, r6, r7
   854e0:	d1eb      	bne.n	854ba <_vfiprintf_r+0x9de>
   854e2:	e56e      	b.n	84fc2 <_vfiprintf_r+0x4e6>
   854e4:	9405      	str	r4, [sp, #20]
   854e6:	46d3      	mov	fp, sl
   854e8:	e450      	b.n	84d8c <_vfiprintf_r+0x2b0>
   854ea:	aa0f      	add	r2, sp, #60	; 0x3c
   854ec:	9904      	ldr	r1, [sp, #16]
   854ee:	9806      	ldr	r0, [sp, #24]
   854f0:	f7ff fab4 	bl	84a5c <__sprint_r.part.0>
   854f4:	2800      	cmp	r0, #0
   854f6:	d1a8      	bne.n	8544a <_vfiprintf_r+0x96e>
   854f8:	46d1      	mov	r9, sl
   854fa:	9a11      	ldr	r2, [sp, #68]	; 0x44
   854fc:	e75e      	b.n	853bc <_vfiprintf_r+0x8e0>
   854fe:	aa0f      	add	r2, sp, #60	; 0x3c
   85500:	9904      	ldr	r1, [sp, #16]
   85502:	9806      	ldr	r0, [sp, #24]
   85504:	f7ff faaa 	bl	84a5c <__sprint_r.part.0>
   85508:	2800      	cmp	r0, #0
   8550a:	d19e      	bne.n	8544a <_vfiprintf_r+0x96e>
   8550c:	46d1      	mov	r9, sl
   8550e:	f7ff bbbb 	b.w	84c88 <_vfiprintf_r+0x1ac>
   85512:	bf00      	nop
   85514:	00088850 	.word	0x00088850
   85518:	00088840 	.word	0x00088840
   8551c:	3104      	adds	r1, #4
   8551e:	6816      	ldr	r6, [r2, #0]
   85520:	2700      	movs	r7, #0
   85522:	2201      	movs	r2, #1
   85524:	9107      	str	r1, [sp, #28]
   85526:	e412      	b.n	84d4e <_vfiprintf_r+0x272>
   85528:	9807      	ldr	r0, [sp, #28]
   8552a:	2700      	movs	r7, #0
   8552c:	4601      	mov	r1, r0
   8552e:	3104      	adds	r1, #4
   85530:	6806      	ldr	r6, [r0, #0]
   85532:	9107      	str	r1, [sp, #28]
   85534:	e40b      	b.n	84d4e <_vfiprintf_r+0x272>
   85536:	680e      	ldr	r6, [r1, #0]
   85538:	3104      	adds	r1, #4
   8553a:	9107      	str	r1, [sp, #28]
   8553c:	2700      	movs	r7, #0
   8553e:	e592      	b.n	85066 <_vfiprintf_r+0x58a>
   85540:	6816      	ldr	r6, [r2, #0]
   85542:	3204      	adds	r2, #4
   85544:	17f7      	asrs	r7, r6, #31
   85546:	9207      	str	r2, [sp, #28]
   85548:	4630      	mov	r0, r6
   8554a:	4639      	mov	r1, r7
   8554c:	e512      	b.n	84f74 <_vfiprintf_r+0x498>
   8554e:	f8db 0058 	ldr.w	r0, [fp, #88]	; 0x58
   85552:	f001 fe3b 	bl	871cc <__retarget_lock_release_recursive>
   85556:	f8bb 300c 	ldrh.w	r3, [fp, #12]
   8555a:	e71b      	b.n	85394 <_vfiprintf_r+0x8b8>
   8555c:	9b02      	ldr	r3, [sp, #8]
   8555e:	9302      	str	r3, [sp, #8]
   85560:	2301      	movs	r3, #1
   85562:	f10d 0bb0 	add.w	fp, sp, #176	; 0xb0
   85566:	3630      	adds	r6, #48	; 0x30
   85568:	f80b 6d41 	strb.w	r6, [fp, #-65]!
   8556c:	9305      	str	r3, [sp, #20]
   8556e:	e40d      	b.n	84d8c <_vfiprintf_r+0x2b0>
   85570:	aa0f      	add	r2, sp, #60	; 0x3c
   85572:	9904      	ldr	r1, [sp, #16]
   85574:	9806      	ldr	r0, [sp, #24]
   85576:	f7ff fa71 	bl	84a5c <__sprint_r.part.0>
   8557a:	2800      	cmp	r0, #0
   8557c:	f47f af65 	bne.w	8544a <_vfiprintf_r+0x96e>
   85580:	9910      	ldr	r1, [sp, #64]	; 0x40
   85582:	46d1      	mov	r9, sl
   85584:	9a11      	ldr	r2, [sp, #68]	; 0x44
   85586:	1c48      	adds	r0, r1, #1
   85588:	e457      	b.n	84e3a <_vfiprintf_r+0x35e>
   8558a:	aa0f      	add	r2, sp, #60	; 0x3c
   8558c:	9904      	ldr	r1, [sp, #16]
   8558e:	9806      	ldr	r0, [sp, #24]
   85590:	f7ff fa64 	bl	84a5c <__sprint_r.part.0>
   85594:	2800      	cmp	r0, #0
   85596:	f47f af58 	bne.w	8544a <_vfiprintf_r+0x96e>
   8559a:	9910      	ldr	r1, [sp, #64]	; 0x40
   8559c:	46d1      	mov	r9, sl
   8559e:	9a11      	ldr	r2, [sp, #68]	; 0x44
   855a0:	1c48      	adds	r0, r1, #1
   855a2:	e644      	b.n	8522e <_vfiprintf_r+0x752>
   855a4:	2a00      	cmp	r2, #0
   855a6:	f040 8087 	bne.w	856b8 <_vfiprintf_r+0xbdc>
   855aa:	2001      	movs	r0, #1
   855ac:	4611      	mov	r1, r2
   855ae:	46d1      	mov	r9, sl
   855b0:	e641      	b.n	85236 <_vfiprintf_r+0x75a>
   855b2:	aa0f      	add	r2, sp, #60	; 0x3c
   855b4:	9904      	ldr	r1, [sp, #16]
   855b6:	9806      	ldr	r0, [sp, #24]
   855b8:	f7ff fa50 	bl	84a5c <__sprint_r.part.0>
   855bc:	2800      	cmp	r0, #0
   855be:	f47f af44 	bne.w	8544a <_vfiprintf_r+0x96e>
   855c2:	9810      	ldr	r0, [sp, #64]	; 0x40
   855c4:	46d1      	mov	r9, sl
   855c6:	9a11      	ldr	r2, [sp, #68]	; 0x44
   855c8:	3001      	adds	r0, #1
   855ca:	e668      	b.n	8529e <_vfiprintf_r+0x7c2>
   855cc:	46cb      	mov	fp, r9
   855ce:	e6d7      	b.n	85380 <_vfiprintf_r+0x8a4>
   855d0:	9d07      	ldr	r5, [sp, #28]
   855d2:	3507      	adds	r5, #7
   855d4:	f025 0507 	bic.w	r5, r5, #7
   855d8:	f105 0208 	add.w	r2, r5, #8
   855dc:	e9d5 0100 	ldrd	r0, r1, [r5]
   855e0:	9207      	str	r2, [sp, #28]
   855e2:	4606      	mov	r6, r0
   855e4:	460f      	mov	r7, r1
   855e6:	e4c5      	b.n	84f74 <_vfiprintf_r+0x498>
   855e8:	9d07      	ldr	r5, [sp, #28]
   855ea:	3507      	adds	r5, #7
   855ec:	f025 0207 	bic.w	r2, r5, #7
   855f0:	f102 0108 	add.w	r1, r2, #8
   855f4:	e9d2 6700 	ldrd	r6, r7, [r2]
   855f8:	9107      	str	r1, [sp, #28]
   855fa:	2201      	movs	r2, #1
   855fc:	f7ff bba7 	b.w	84d4e <_vfiprintf_r+0x272>
   85600:	9d07      	ldr	r5, [sp, #28]
   85602:	3507      	adds	r5, #7
   85604:	f025 0207 	bic.w	r2, r5, #7
   85608:	f102 0108 	add.w	r1, r2, #8
   8560c:	e9d2 6700 	ldrd	r6, r7, [r2]
   85610:	9107      	str	r1, [sp, #28]
   85612:	2200      	movs	r2, #0
   85614:	f7ff bb9b 	b.w	84d4e <_vfiprintf_r+0x272>
   85618:	9d07      	ldr	r5, [sp, #28]
   8561a:	3507      	adds	r5, #7
   8561c:	f025 0107 	bic.w	r1, r5, #7
   85620:	f101 0008 	add.w	r0, r1, #8
   85624:	9007      	str	r0, [sp, #28]
   85626:	e9d1 6700 	ldrd	r6, r7, [r1]
   8562a:	e51c      	b.n	85066 <_vfiprintf_r+0x58a>
   8562c:	46d3      	mov	fp, sl
   8562e:	f7ff bbad 	b.w	84d8c <_vfiprintf_r+0x2b0>
   85632:	252d      	movs	r5, #45	; 0x2d
   85634:	4276      	negs	r6, r6
   85636:	eb67 0747 	sbc.w	r7, r7, r7, lsl #1
   8563a:	f88d 5037 	strb.w	r5, [sp, #55]	; 0x37
   8563e:	2201      	movs	r2, #1
   85640:	f7ff bb8a 	b.w	84d58 <_vfiprintf_r+0x27c>
   85644:	9b09      	ldr	r3, [sp, #36]	; 0x24
   85646:	b9b3      	cbnz	r3, 85676 <_vfiprintf_r+0xb9a>
   85648:	4611      	mov	r1, r2
   8564a:	2001      	movs	r0, #1
   8564c:	46d1      	mov	r9, sl
   8564e:	e5f2      	b.n	85236 <_vfiprintf_r+0x75a>
   85650:	f8db 0058 	ldr.w	r0, [fp, #88]	; 0x58
   85654:	f001 fdba 	bl	871cc <__retarget_lock_release_recursive>
   85658:	f04f 33ff 	mov.w	r3, #4294967295
   8565c:	9303      	str	r3, [sp, #12]
   8565e:	f7ff bb4c 	b.w	84cfa <_vfiprintf_r+0x21e>
   85662:	aa0f      	add	r2, sp, #60	; 0x3c
   85664:	9904      	ldr	r1, [sp, #16]
   85666:	9806      	ldr	r0, [sp, #24]
   85668:	f7ff f9f8 	bl	84a5c <__sprint_r.part.0>
   8566c:	2800      	cmp	r0, #0
   8566e:	f47f aeec 	bne.w	8544a <_vfiprintf_r+0x96e>
   85672:	9a11      	ldr	r2, [sp, #68]	; 0x44
   85674:	e6aa      	b.n	853cc <_vfiprintf_r+0x8f0>
   85676:	2202      	movs	r2, #2
   85678:	ab0e      	add	r3, sp, #56	; 0x38
   8567a:	921d      	str	r2, [sp, #116]	; 0x74
   8567c:	931c      	str	r3, [sp, #112]	; 0x70
   8567e:	2001      	movs	r0, #1
   85680:	46d1      	mov	r9, sl
   85682:	e5d0      	b.n	85226 <_vfiprintf_r+0x74a>
   85684:	4d34      	ldr	r5, [pc, #208]	; (85758 <_vfiprintf_r+0xc7c>)
   85686:	e5fd      	b.n	85284 <_vfiprintf_r+0x7a8>
   85688:	9a07      	ldr	r2, [sp, #28]
   8568a:	4613      	mov	r3, r2
   8568c:	3304      	adds	r3, #4
   8568e:	9307      	str	r3, [sp, #28]
   85690:	9b03      	ldr	r3, [sp, #12]
   85692:	6811      	ldr	r1, [r2, #0]
   85694:	17dd      	asrs	r5, r3, #31
   85696:	461a      	mov	r2, r3
   85698:	462b      	mov	r3, r5
   8569a:	e9c1 2300 	strd	r2, r3, [r1]
   8569e:	f7ff ba5a 	b.w	84b56 <_vfiprintf_r+0x7a>
   856a2:	4658      	mov	r0, fp
   856a4:	9507      	str	r5, [sp, #28]
   856a6:	9302      	str	r3, [sp, #8]
   856a8:	f7fd ff2a 	bl	83500 <strlen>
   856ac:	2400      	movs	r4, #0
   856ae:	9005      	str	r0, [sp, #20]
   856b0:	f89d 5037 	ldrb.w	r5, [sp, #55]	; 0x37
   856b4:	f7ff bb6a 	b.w	84d8c <_vfiprintf_r+0x2b0>
   856b8:	aa0f      	add	r2, sp, #60	; 0x3c
   856ba:	9904      	ldr	r1, [sp, #16]
   856bc:	9806      	ldr	r0, [sp, #24]
   856be:	f7ff f9cd 	bl	84a5c <__sprint_r.part.0>
   856c2:	2800      	cmp	r0, #0
   856c4:	f47f aec1 	bne.w	8544a <_vfiprintf_r+0x96e>
   856c8:	9910      	ldr	r1, [sp, #64]	; 0x40
   856ca:	46d1      	mov	r9, sl
   856cc:	9a11      	ldr	r2, [sp, #68]	; 0x44
   856ce:	1c48      	adds	r0, r1, #1
   856d0:	e5b1      	b.n	85236 <_vfiprintf_r+0x75a>
   856d2:	9910      	ldr	r1, [sp, #64]	; 0x40
   856d4:	9a11      	ldr	r2, [sp, #68]	; 0x44
   856d6:	3101      	adds	r1, #1
   856d8:	4e20      	ldr	r6, [pc, #128]	; (8575c <_vfiprintf_r+0xc80>)
   856da:	f7ff bb9c 	b.w	84e16 <_vfiprintf_r+0x33a>
   856de:	2c06      	cmp	r4, #6
   856e0:	bf28      	it	cs
   856e2:	2406      	movcs	r4, #6
   856e4:	9507      	str	r5, [sp, #28]
   856e6:	9405      	str	r4, [sp, #20]
   856e8:	9401      	str	r4, [sp, #4]
   856ea:	f8df b074 	ldr.w	fp, [pc, #116]	; 85760 <_vfiprintf_r+0xc84>
   856ee:	e4e3      	b.n	850b8 <_vfiprintf_r+0x5dc>
   856f0:	9810      	ldr	r0, [sp, #64]	; 0x40
   856f2:	4e1a      	ldr	r6, [pc, #104]	; (8575c <_vfiprintf_r+0xc80>)
   856f4:	3001      	adds	r0, #1
   856f6:	e60e      	b.n	85316 <_vfiprintf_r+0x83a>
   856f8:	4686      	mov	lr, r0
   856fa:	4d17      	ldr	r5, [pc, #92]	; (85758 <_vfiprintf_r+0xc7c>)
   856fc:	f7ff bbe2 	b.w	84ec4 <_vfiprintf_r+0x3e8>
   85700:	9405      	str	r4, [sp, #20]
   85702:	9507      	str	r5, [sp, #28]
   85704:	9302      	str	r3, [sp, #8]
   85706:	4604      	mov	r4, r0
   85708:	f89d 5037 	ldrb.w	r5, [sp, #55]	; 0x37
   8570c:	f7ff bb3e 	b.w	84d8c <_vfiprintf_r+0x2b0>
   85710:	9806      	ldr	r0, [sp, #24]
   85712:	aa0f      	add	r2, sp, #60	; 0x3c
   85714:	4659      	mov	r1, fp
   85716:	f7ff f9a1 	bl	84a5c <__sprint_r.part.0>
   8571a:	2800      	cmp	r0, #0
   8571c:	f43f ae2e 	beq.w	8537c <_vfiprintf_r+0x8a0>
   85720:	e62e      	b.n	85380 <_vfiprintf_r+0x8a4>
   85722:	9907      	ldr	r1, [sp, #28]
   85724:	f898 2001 	ldrb.w	r2, [r8, #1]
   85728:	680c      	ldr	r4, [r1, #0]
   8572a:	3104      	adds	r1, #4
   8572c:	ea44 74e4 	orr.w	r4, r4, r4, asr #31
   85730:	46b8      	mov	r8, r7
   85732:	9107      	str	r1, [sp, #28]
   85734:	f7ff ba44 	b.w	84bc0 <_vfiprintf_r+0xe4>
   85738:	f88d 6037 	strb.w	r6, [sp, #55]	; 0x37
   8573c:	e4a7      	b.n	8508e <_vfiprintf_r+0x5b2>
   8573e:	f88d 6037 	strb.w	r6, [sp, #55]	; 0x37
   85742:	e521      	b.n	85188 <_vfiprintf_r+0x6ac>
   85744:	f88d 6037 	strb.w	r6, [sp, #55]	; 0x37
   85748:	e47c      	b.n	85044 <_vfiprintf_r+0x568>
   8574a:	f88d 6037 	strb.w	r6, [sp, #55]	; 0x37
   8574e:	e43f      	b.n	84fd0 <_vfiprintf_r+0x4f4>
   85750:	f88d 6037 	strb.w	r6, [sp, #55]	; 0x37
   85754:	f7ff bbfa 	b.w	84f4c <_vfiprintf_r+0x470>
   85758:	00088850 	.word	0x00088850
   8575c:	00088840 	.word	0x00088840
   85760:	00088814 	.word	0x00088814

00085764 <__sbprintf>:
   85764:	e92d 41f0 	stmdb	sp!, {r4, r5, r6, r7, r8, lr}
   85768:	460c      	mov	r4, r1
   8576a:	f04f 0e00 	mov.w	lr, #0
   8576e:	f44f 6580 	mov.w	r5, #1024	; 0x400
   85772:	4606      	mov	r6, r0
   85774:	4617      	mov	r7, r2
   85776:	4698      	mov	r8, r3
   85778:	6e62      	ldr	r2, [r4, #100]	; 0x64
   8577a:	89e3      	ldrh	r3, [r4, #14]
   8577c:	8989      	ldrh	r1, [r1, #12]
   8577e:	f5ad 6d8d 	sub.w	sp, sp, #1128	; 0x468
   85782:	f021 0102 	bic.w	r1, r1, #2
   85786:	9219      	str	r2, [sp, #100]	; 0x64
   85788:	f8ad 300e 	strh.w	r3, [sp, #14]
   8578c:	69e2      	ldr	r2, [r4, #28]
   8578e:	6a63      	ldr	r3, [r4, #36]	; 0x24
   85790:	f8ad 100c 	strh.w	r1, [sp, #12]
   85794:	a816      	add	r0, sp, #88	; 0x58
   85796:	a91a      	add	r1, sp, #104	; 0x68
   85798:	f8cd e018 	str.w	lr, [sp, #24]
   8579c:	9207      	str	r2, [sp, #28]
   8579e:	9309      	str	r3, [sp, #36]	; 0x24
   857a0:	9100      	str	r1, [sp, #0]
   857a2:	9104      	str	r1, [sp, #16]
   857a4:	9502      	str	r5, [sp, #8]
   857a6:	9505      	str	r5, [sp, #20]
   857a8:	f001 fd0a 	bl	871c0 <__retarget_lock_init_recursive>
   857ac:	4643      	mov	r3, r8
   857ae:	463a      	mov	r2, r7
   857b0:	4669      	mov	r1, sp
   857b2:	4630      	mov	r0, r6
   857b4:	f7ff f992 	bl	84adc <_vfiprintf_r>
   857b8:	1e05      	subs	r5, r0, #0
   857ba:	db07      	blt.n	857cc <__sbprintf+0x68>
   857bc:	4630      	mov	r0, r6
   857be:	4669      	mov	r1, sp
   857c0:	f001 f8dc 	bl	8697c <_fflush_r>
   857c4:	2800      	cmp	r0, #0
   857c6:	bf18      	it	ne
   857c8:	f04f 35ff 	movne.w	r5, #4294967295
   857cc:	f8bd 300c 	ldrh.w	r3, [sp, #12]
   857d0:	065b      	lsls	r3, r3, #25
   857d2:	d503      	bpl.n	857dc <__sbprintf+0x78>
   857d4:	89a3      	ldrh	r3, [r4, #12]
   857d6:	f043 0340 	orr.w	r3, r3, #64	; 0x40
   857da:	81a3      	strh	r3, [r4, #12]
   857dc:	9816      	ldr	r0, [sp, #88]	; 0x58
   857de:	f001 fcf1 	bl	871c4 <__retarget_lock_close_recursive>
   857e2:	4628      	mov	r0, r5
   857e4:	f50d 6d8d 	add.w	sp, sp, #1128	; 0x468
   857e8:	e8bd 81f0 	ldmia.w	sp!, {r4, r5, r6, r7, r8, pc}

000857ec <__swsetup_r>:
   857ec:	b538      	push	{r3, r4, r5, lr}
   857ee:	4b30      	ldr	r3, [pc, #192]	; (858b0 <__swsetup_r+0xc4>)
   857f0:	4605      	mov	r5, r0
   857f2:	6818      	ldr	r0, [r3, #0]
   857f4:	460c      	mov	r4, r1
   857f6:	b110      	cbz	r0, 857fe <__swsetup_r+0x12>
   857f8:	6b83      	ldr	r3, [r0, #56]	; 0x38
   857fa:	2b00      	cmp	r3, #0
   857fc:	d038      	beq.n	85870 <__swsetup_r+0x84>
   857fe:	f9b4 200c 	ldrsh.w	r2, [r4, #12]
   85802:	b293      	uxth	r3, r2
   85804:	0718      	lsls	r0, r3, #28
   85806:	d50c      	bpl.n	85822 <__swsetup_r+0x36>
   85808:	6920      	ldr	r0, [r4, #16]
   8580a:	b1a8      	cbz	r0, 85838 <__swsetup_r+0x4c>
   8580c:	f013 0201 	ands.w	r2, r3, #1
   85810:	d01e      	beq.n	85850 <__swsetup_r+0x64>
   85812:	2200      	movs	r2, #0
   85814:	6963      	ldr	r3, [r4, #20]
   85816:	60a2      	str	r2, [r4, #8]
   85818:	425b      	negs	r3, r3
   8581a:	61a3      	str	r3, [r4, #24]
   8581c:	b1f0      	cbz	r0, 8585c <__swsetup_r+0x70>
   8581e:	2000      	movs	r0, #0
   85820:	bd38      	pop	{r3, r4, r5, pc}
   85822:	06d9      	lsls	r1, r3, #27
   85824:	d53b      	bpl.n	8589e <__swsetup_r+0xb2>
   85826:	0758      	lsls	r0, r3, #29
   85828:	d425      	bmi.n	85876 <__swsetup_r+0x8a>
   8582a:	6920      	ldr	r0, [r4, #16]
   8582c:	f042 0308 	orr.w	r3, r2, #8
   85830:	81a3      	strh	r3, [r4, #12]
   85832:	b29b      	uxth	r3, r3
   85834:	2800      	cmp	r0, #0
   85836:	d1e9      	bne.n	8580c <__swsetup_r+0x20>
   85838:	f403 7220 	and.w	r2, r3, #640	; 0x280
   8583c:	f5b2 7f00 	cmp.w	r2, #512	; 0x200
   85840:	d0e4      	beq.n	8580c <__swsetup_r+0x20>
   85842:	4628      	mov	r0, r5
   85844:	4621      	mov	r1, r4
   85846:	f001 fcf1 	bl	8722c <__smakebuf_r>
   8584a:	89a3      	ldrh	r3, [r4, #12]
   8584c:	6920      	ldr	r0, [r4, #16]
   8584e:	e7dd      	b.n	8580c <__swsetup_r+0x20>
   85850:	0799      	lsls	r1, r3, #30
   85852:	bf58      	it	pl
   85854:	6962      	ldrpl	r2, [r4, #20]
   85856:	60a2      	str	r2, [r4, #8]
   85858:	2800      	cmp	r0, #0
   8585a:	d1e0      	bne.n	8581e <__swsetup_r+0x32>
   8585c:	f9b4 300c 	ldrsh.w	r3, [r4, #12]
   85860:	061a      	lsls	r2, r3, #24
   85862:	d5dd      	bpl.n	85820 <__swsetup_r+0x34>
   85864:	f043 0340 	orr.w	r3, r3, #64	; 0x40
   85868:	81a3      	strh	r3, [r4, #12]
   8586a:	f04f 30ff 	mov.w	r0, #4294967295
   8586e:	bd38      	pop	{r3, r4, r5, pc}
   85870:	f001 f8dc 	bl	86a2c <__sinit>
   85874:	e7c3      	b.n	857fe <__swsetup_r+0x12>
   85876:	6b21      	ldr	r1, [r4, #48]	; 0x30
   85878:	b151      	cbz	r1, 85890 <__swsetup_r+0xa4>
   8587a:	f104 0340 	add.w	r3, r4, #64	; 0x40
   8587e:	4299      	cmp	r1, r3
   85880:	d004      	beq.n	8588c <__swsetup_r+0xa0>
   85882:	4628      	mov	r0, r5
   85884:	f001 f9f8 	bl	86c78 <_free_r>
   85888:	f9b4 200c 	ldrsh.w	r2, [r4, #12]
   8588c:	2300      	movs	r3, #0
   8588e:	6323      	str	r3, [r4, #48]	; 0x30
   85890:	2300      	movs	r3, #0
   85892:	6920      	ldr	r0, [r4, #16]
   85894:	f022 0224 	bic.w	r2, r2, #36	; 0x24
   85898:	e884 0009 	stmia.w	r4, {r0, r3}
   8589c:	e7c6      	b.n	8582c <__swsetup_r+0x40>
   8589e:	2309      	movs	r3, #9
   858a0:	f042 0240 	orr.w	r2, r2, #64	; 0x40
   858a4:	602b      	str	r3, [r5, #0]
   858a6:	f04f 30ff 	mov.w	r0, #4294967295
   858aa:	81a2      	strh	r2, [r4, #12]
   858ac:	bd38      	pop	{r3, r4, r5, pc}
   858ae:	bf00      	nop
   858b0:	20070138 	.word	0x20070138

000858b4 <register_fini>:
   858b4:	4b02      	ldr	r3, [pc, #8]	; (858c0 <register_fini+0xc>)
   858b6:	b113      	cbz	r3, 858be <register_fini+0xa>
   858b8:	4802      	ldr	r0, [pc, #8]	; (858c4 <register_fini+0x10>)
   858ba:	f000 b805 	b.w	858c8 <atexit>
   858be:	4770      	bx	lr
   858c0:	00000000 	.word	0x00000000
   858c4:	00086aa5 	.word	0x00086aa5

000858c8 <atexit>:
   858c8:	2300      	movs	r3, #0
   858ca:	4601      	mov	r1, r0
   858cc:	461a      	mov	r2, r3
   858ce:	4618      	mov	r0, r3
   858d0:	f002 bc44 	b.w	8815c <__register_exitproc>

000858d4 <quorem>:
   858d4:	e92d 4ff0 	stmdb	sp!, {r4, r5, r6, r7, r8, r9, sl, fp, lr}
   858d8:	6903      	ldr	r3, [r0, #16]
   858da:	690f      	ldr	r7, [r1, #16]
   858dc:	b083      	sub	sp, #12
   858de:	429f      	cmp	r7, r3
   858e0:	f300 8088 	bgt.w	859f4 <quorem+0x120>
   858e4:	3f01      	subs	r7, #1
   858e6:	f101 0614 	add.w	r6, r1, #20
   858ea:	f100 0a14 	add.w	sl, r0, #20
   858ee:	f856 3027 	ldr.w	r3, [r6, r7, lsl #2]
   858f2:	f85a 2027 	ldr.w	r2, [sl, r7, lsl #2]
   858f6:	3301      	adds	r3, #1
   858f8:	fbb2 f8f3 	udiv	r8, r2, r3
   858fc:	00bb      	lsls	r3, r7, #2
   858fe:	9300      	str	r3, [sp, #0]
   85900:	eb06 0903 	add.w	r9, r6, r3
   85904:	4453      	add	r3, sl
   85906:	9301      	str	r3, [sp, #4]
   85908:	f1b8 0f00 	cmp.w	r8, #0
   8590c:	d03b      	beq.n	85986 <quorem+0xb2>
   8590e:	2300      	movs	r3, #0
   85910:	46b4      	mov	ip, r6
   85912:	461c      	mov	r4, r3
   85914:	46d6      	mov	lr, sl
   85916:	f85c 2b04 	ldr.w	r2, [ip], #4
   8591a:	f8de 5000 	ldr.w	r5, [lr]
   8591e:	fa1f fb82 	uxth.w	fp, r2
   85922:	fb08 330b 	mla	r3, r8, fp, r3
   85926:	0c12      	lsrs	r2, r2, #16
   85928:	ea4f 4b13 	mov.w	fp, r3, lsr #16
   8592c:	fb08 bb02 	mla	fp, r8, r2, fp
   85930:	b29a      	uxth	r2, r3
   85932:	1aa2      	subs	r2, r4, r2
   85934:	b2ab      	uxth	r3, r5
   85936:	fa1f f48b 	uxth.w	r4, fp
   8593a:	441a      	add	r2, r3
   8593c:	ebc4 4415 	rsb	r4, r4, r5, lsr #16
   85940:	eb04 4422 	add.w	r4, r4, r2, asr #16
   85944:	b292      	uxth	r2, r2
   85946:	ea42 4204 	orr.w	r2, r2, r4, lsl #16
   8594a:	45e1      	cmp	r9, ip
   8594c:	f84e 2b04 	str.w	r2, [lr], #4
   85950:	ea4f 4424 	mov.w	r4, r4, asr #16
   85954:	ea4f 431b 	mov.w	r3, fp, lsr #16
   85958:	d2dd      	bcs.n	85916 <quorem+0x42>
   8595a:	9b00      	ldr	r3, [sp, #0]
   8595c:	f85a 3003 	ldr.w	r3, [sl, r3]
   85960:	b98b      	cbnz	r3, 85986 <quorem+0xb2>
   85962:	9c01      	ldr	r4, [sp, #4]
   85964:	1f23      	subs	r3, r4, #4
   85966:	459a      	cmp	sl, r3
   85968:	d20c      	bcs.n	85984 <quorem+0xb0>
   8596a:	f854 3c04 	ldr.w	r3, [r4, #-4]
   8596e:	b94b      	cbnz	r3, 85984 <quorem+0xb0>
   85970:	f1a4 0308 	sub.w	r3, r4, #8
   85974:	e002      	b.n	8597c <quorem+0xa8>
   85976:	681a      	ldr	r2, [r3, #0]
   85978:	3b04      	subs	r3, #4
   8597a:	b91a      	cbnz	r2, 85984 <quorem+0xb0>
   8597c:	459a      	cmp	sl, r3
   8597e:	f107 37ff 	add.w	r7, r7, #4294967295
   85982:	d3f8      	bcc.n	85976 <quorem+0xa2>
   85984:	6107      	str	r7, [r0, #16]
   85986:	4604      	mov	r4, r0
   85988:	f001 ffce 	bl	87928 <__mcmp>
   8598c:	2800      	cmp	r0, #0
   8598e:	db2d      	blt.n	859ec <quorem+0x118>
   85990:	4655      	mov	r5, sl
   85992:	2300      	movs	r3, #0
   85994:	f108 0801 	add.w	r8, r8, #1
   85998:	f856 1b04 	ldr.w	r1, [r6], #4
   8599c:	6828      	ldr	r0, [r5, #0]
   8599e:	b28a      	uxth	r2, r1
   859a0:	1a9a      	subs	r2, r3, r2
   859a2:	0c0b      	lsrs	r3, r1, #16
   859a4:	b281      	uxth	r1, r0
   859a6:	440a      	add	r2, r1
   859a8:	ebc3 4310 	rsb	r3, r3, r0, lsr #16
   859ac:	eb03 4322 	add.w	r3, r3, r2, asr #16
   859b0:	b292      	uxth	r2, r2
   859b2:	ea42 4203 	orr.w	r2, r2, r3, lsl #16
   859b6:	45b1      	cmp	r9, r6
   859b8:	f845 2b04 	str.w	r2, [r5], #4
   859bc:	ea4f 4323 	mov.w	r3, r3, asr #16
   859c0:	d2ea      	bcs.n	85998 <quorem+0xc4>
   859c2:	f85a 2027 	ldr.w	r2, [sl, r7, lsl #2]
   859c6:	eb0a 0387 	add.w	r3, sl, r7, lsl #2
   859ca:	b97a      	cbnz	r2, 859ec <quorem+0x118>
   859cc:	1f1a      	subs	r2, r3, #4
   859ce:	4592      	cmp	sl, r2
   859d0:	d20b      	bcs.n	859ea <quorem+0x116>
   859d2:	f853 2c04 	ldr.w	r2, [r3, #-4]
   859d6:	b942      	cbnz	r2, 859ea <quorem+0x116>
   859d8:	3b08      	subs	r3, #8
   859da:	e002      	b.n	859e2 <quorem+0x10e>
   859dc:	681a      	ldr	r2, [r3, #0]
   859de:	3b04      	subs	r3, #4
   859e0:	b91a      	cbnz	r2, 859ea <quorem+0x116>
   859e2:	459a      	cmp	sl, r3
   859e4:	f107 37ff 	add.w	r7, r7, #4294967295
   859e8:	d3f8      	bcc.n	859dc <quorem+0x108>
   859ea:	6127      	str	r7, [r4, #16]
   859ec:	4640      	mov	r0, r8
   859ee:	b003      	add	sp, #12
   859f0:	e8bd 8ff0 	ldmia.w	sp!, {r4, r5, r6, r7, r8, r9, sl, fp, pc}
   859f4:	2000      	movs	r0, #0
   859f6:	b003      	add	sp, #12
   859f8:	e8bd 8ff0 	ldmia.w	sp!, {r4, r5, r6, r7, r8, r9, sl, fp, pc}
   859fc:	0000      	movs	r0, r0
	...

00085a00 <_dtoa_r>:
   85a00:	e92d 4ff0 	stmdb	sp!, {r4, r5, r6, r7, r8, r9, sl, fp, lr}
   85a04:	6c05      	ldr	r5, [r0, #64]	; 0x40
   85a06:	b09b      	sub	sp, #108	; 0x6c
   85a08:	4604      	mov	r4, r0
   85a0a:	4692      	mov	sl, r2
   85a0c:	469b      	mov	fp, r3
   85a0e:	9e27      	ldr	r6, [sp, #156]	; 0x9c
   85a10:	b14d      	cbz	r5, 85a26 <_dtoa_r+0x26>
   85a12:	2301      	movs	r3, #1
   85a14:	6c42      	ldr	r2, [r0, #68]	; 0x44
   85a16:	4629      	mov	r1, r5
   85a18:	4093      	lsls	r3, r2
   85a1a:	60ab      	str	r3, [r5, #8]
   85a1c:	606a      	str	r2, [r5, #4]
   85a1e:	f001 fdab 	bl	87578 <_Bfree>
   85a22:	2300      	movs	r3, #0
   85a24:	6423      	str	r3, [r4, #64]	; 0x40
   85a26:	f1bb 0f00 	cmp.w	fp, #0
   85a2a:	465d      	mov	r5, fp
   85a2c:	db35      	blt.n	85a9a <_dtoa_r+0x9a>
   85a2e:	2300      	movs	r3, #0
   85a30:	6033      	str	r3, [r6, #0]
   85a32:	4b9d      	ldr	r3, [pc, #628]	; (85ca8 <_dtoa_r+0x2a8>)
   85a34:	43ab      	bics	r3, r5
   85a36:	d015      	beq.n	85a64 <_dtoa_r+0x64>
   85a38:	2200      	movs	r2, #0
   85a3a:	2300      	movs	r3, #0
   85a3c:	4650      	mov	r0, sl
   85a3e:	4659      	mov	r1, fp
   85a40:	f7fc fe1a 	bl	82678 <__aeabi_dcmpeq>
   85a44:	4680      	mov	r8, r0
   85a46:	2800      	cmp	r0, #0
   85a48:	d02d      	beq.n	85aa6 <_dtoa_r+0xa6>
   85a4a:	2301      	movs	r3, #1
   85a4c:	9a26      	ldr	r2, [sp, #152]	; 0x98
   85a4e:	6013      	str	r3, [r2, #0]
   85a50:	9b28      	ldr	r3, [sp, #160]	; 0xa0
   85a52:	2b00      	cmp	r3, #0
   85a54:	f000 80bd 	beq.w	85bd2 <_dtoa_r+0x1d2>
   85a58:	4894      	ldr	r0, [pc, #592]	; (85cac <_dtoa_r+0x2ac>)
   85a5a:	6018      	str	r0, [r3, #0]
   85a5c:	3801      	subs	r0, #1
   85a5e:	b01b      	add	sp, #108	; 0x6c
   85a60:	e8bd 8ff0 	ldmia.w	sp!, {r4, r5, r6, r7, r8, r9, sl, fp, pc}
   85a64:	f242 730f 	movw	r3, #9999	; 0x270f
   85a68:	9a26      	ldr	r2, [sp, #152]	; 0x98
   85a6a:	6013      	str	r3, [r2, #0]
   85a6c:	f1ba 0f00 	cmp.w	sl, #0
   85a70:	d10d      	bne.n	85a8e <_dtoa_r+0x8e>
   85a72:	f3c5 0513 	ubfx	r5, r5, #0, #20
   85a76:	b955      	cbnz	r5, 85a8e <_dtoa_r+0x8e>
   85a78:	9b28      	ldr	r3, [sp, #160]	; 0xa0
   85a7a:	488d      	ldr	r0, [pc, #564]	; (85cb0 <_dtoa_r+0x2b0>)
   85a7c:	2b00      	cmp	r3, #0
   85a7e:	d0ee      	beq.n	85a5e <_dtoa_r+0x5e>
   85a80:	f100 0308 	add.w	r3, r0, #8
   85a84:	9a28      	ldr	r2, [sp, #160]	; 0xa0
   85a86:	6013      	str	r3, [r2, #0]
   85a88:	b01b      	add	sp, #108	; 0x6c
   85a8a:	e8bd 8ff0 	ldmia.w	sp!, {r4, r5, r6, r7, r8, r9, sl, fp, pc}
   85a8e:	9b28      	ldr	r3, [sp, #160]	; 0xa0
   85a90:	4888      	ldr	r0, [pc, #544]	; (85cb4 <_dtoa_r+0x2b4>)
   85a92:	2b00      	cmp	r3, #0
   85a94:	d0e3      	beq.n	85a5e <_dtoa_r+0x5e>
   85a96:	1cc3      	adds	r3, r0, #3
   85a98:	e7f4      	b.n	85a84 <_dtoa_r+0x84>
   85a9a:	2301      	movs	r3, #1
   85a9c:	f02b 4500 	bic.w	r5, fp, #2147483648	; 0x80000000
   85aa0:	6033      	str	r3, [r6, #0]
   85aa2:	46ab      	mov	fp, r5
   85aa4:	e7c5      	b.n	85a32 <_dtoa_r+0x32>
   85aa6:	aa18      	add	r2, sp, #96	; 0x60
   85aa8:	ab19      	add	r3, sp, #100	; 0x64
   85aaa:	9201      	str	r2, [sp, #4]
   85aac:	9300      	str	r3, [sp, #0]
   85aae:	4652      	mov	r2, sl
   85ab0:	465b      	mov	r3, fp
   85ab2:	4620      	mov	r0, r4
   85ab4:	f001 ffe2 	bl	87a7c <__d2b>
   85ab8:	0d2b      	lsrs	r3, r5, #20
   85aba:	4681      	mov	r9, r0
   85abc:	d071      	beq.n	85ba2 <_dtoa_r+0x1a2>
   85abe:	4650      	mov	r0, sl
   85ac0:	f3cb 0213 	ubfx	r2, fp, #0, #20
   85ac4:	f042 517f 	orr.w	r1, r2, #1069547520	; 0x3fc00000
   85ac8:	9f18      	ldr	r7, [sp, #96]	; 0x60
   85aca:	f2a3 36ff 	subw	r6, r3, #1023	; 0x3ff
   85ace:	f8cd 8050 	str.w	r8, [sp, #80]	; 0x50
   85ad2:	f441 1140 	orr.w	r1, r1, #3145728	; 0x300000
   85ad6:	2200      	movs	r2, #0
   85ad8:	4b77      	ldr	r3, [pc, #476]	; (85cb8 <_dtoa_r+0x2b8>)
   85ada:	f7fc f9b1 	bl	81e40 <__aeabi_dsub>
   85ade:	a36c      	add	r3, pc, #432	; (adr r3, 85c90 <_dtoa_r+0x290>)
   85ae0:	e9d3 2300 	ldrd	r2, r3, [r3]
   85ae4:	f7fc fb60 	bl	821a8 <__aeabi_dmul>
   85ae8:	a36b      	add	r3, pc, #428	; (adr r3, 85c98 <_dtoa_r+0x298>)
   85aea:	e9d3 2300 	ldrd	r2, r3, [r3]
   85aee:	f7fc f9a9 	bl	81e44 <__adddf3>
   85af2:	e9cd 0102 	strd	r0, r1, [sp, #8]
   85af6:	4630      	mov	r0, r6
   85af8:	f7fc faf0 	bl	820dc <__aeabi_i2d>
   85afc:	a368      	add	r3, pc, #416	; (adr r3, 85ca0 <_dtoa_r+0x2a0>)
   85afe:	e9d3 2300 	ldrd	r2, r3, [r3]
   85b02:	f7fc fb51 	bl	821a8 <__aeabi_dmul>
   85b06:	4602      	mov	r2, r0
   85b08:	460b      	mov	r3, r1
   85b0a:	e9dd 0102 	ldrd	r0, r1, [sp, #8]
   85b0e:	f7fc f999 	bl	81e44 <__adddf3>
   85b12:	e9cd 0104 	strd	r0, r1, [sp, #16]
   85b16:	f002 fc79 	bl	8840c <__aeabi_d2iz>
   85b1a:	2200      	movs	r2, #0
   85b1c:	9002      	str	r0, [sp, #8]
   85b1e:	2300      	movs	r3, #0
   85b20:	e9dd 0104 	ldrd	r0, r1, [sp, #16]
   85b24:	f7fc fdb2 	bl	8268c <__aeabi_dcmplt>
   85b28:	2800      	cmp	r0, #0
   85b2a:	f040 816d 	bne.w	85e08 <_dtoa_r+0x408>
   85b2e:	9d02      	ldr	r5, [sp, #8]
   85b30:	2d16      	cmp	r5, #22
   85b32:	f200 8157 	bhi.w	85de4 <_dtoa_r+0x3e4>
   85b36:	4961      	ldr	r1, [pc, #388]	; (85cbc <_dtoa_r+0x2bc>)
   85b38:	4652      	mov	r2, sl
   85b3a:	eb01 01c5 	add.w	r1, r1, r5, lsl #3
   85b3e:	465b      	mov	r3, fp
   85b40:	e9d1 0100 	ldrd	r0, r1, [r1]
   85b44:	f7fc fdc0 	bl	826c8 <__aeabi_dcmpgt>
   85b48:	2800      	cmp	r0, #0
   85b4a:	f000 81be 	beq.w	85eca <_dtoa_r+0x4ca>
   85b4e:	1e6b      	subs	r3, r5, #1
   85b50:	9302      	str	r3, [sp, #8]
   85b52:	2300      	movs	r3, #0
   85b54:	930e      	str	r3, [sp, #56]	; 0x38
   85b56:	1bbf      	subs	r7, r7, r6
   85b58:	1e7b      	subs	r3, r7, #1
   85b5a:	9308      	str	r3, [sp, #32]
   85b5c:	f100 814e 	bmi.w	85dfc <_dtoa_r+0x3fc>
   85b60:	2300      	movs	r3, #0
   85b62:	930a      	str	r3, [sp, #40]	; 0x28
   85b64:	9b02      	ldr	r3, [sp, #8]
   85b66:	2b00      	cmp	r3, #0
   85b68:	f2c0 813f 	blt.w	85dea <_dtoa_r+0x3ea>
   85b6c:	9a08      	ldr	r2, [sp, #32]
   85b6e:	930d      	str	r3, [sp, #52]	; 0x34
   85b70:	4611      	mov	r1, r2
   85b72:	4419      	add	r1, r3
   85b74:	2300      	movs	r3, #0
   85b76:	9108      	str	r1, [sp, #32]
   85b78:	930c      	str	r3, [sp, #48]	; 0x30
   85b7a:	9b24      	ldr	r3, [sp, #144]	; 0x90
   85b7c:	2b09      	cmp	r3, #9
   85b7e:	d82a      	bhi.n	85bd6 <_dtoa_r+0x1d6>
   85b80:	2b05      	cmp	r3, #5
   85b82:	f340 8658 	ble.w	86836 <_dtoa_r+0xe36>
   85b86:	2500      	movs	r5, #0
   85b88:	3b04      	subs	r3, #4
   85b8a:	9324      	str	r3, [sp, #144]	; 0x90
   85b8c:	9b24      	ldr	r3, [sp, #144]	; 0x90
   85b8e:	3b02      	subs	r3, #2
   85b90:	2b03      	cmp	r3, #3
   85b92:	f200 863f 	bhi.w	86814 <_dtoa_r+0xe14>
   85b96:	e8df f013 	tbh	[pc, r3, lsl #1]
   85b9a:	03ce      	.short	0x03ce
   85b9c:	03d902c3 	.word	0x03d902c3
   85ba0:	045b      	.short	0x045b
   85ba2:	9f18      	ldr	r7, [sp, #96]	; 0x60
   85ba4:	9e19      	ldr	r6, [sp, #100]	; 0x64
   85ba6:	443e      	add	r6, r7
   85ba8:	f206 4332 	addw	r3, r6, #1074	; 0x432
   85bac:	2b20      	cmp	r3, #32
   85bae:	f340 8187 	ble.w	85ec0 <_dtoa_r+0x4c0>
   85bb2:	f1c3 0340 	rsb	r3, r3, #64	; 0x40
   85bb6:	f206 4012 	addw	r0, r6, #1042	; 0x412
   85bba:	409d      	lsls	r5, r3
   85bbc:	fa2a f000 	lsr.w	r0, sl, r0
   85bc0:	4328      	orrs	r0, r5
   85bc2:	f7fc fa7b 	bl	820bc <__aeabi_ui2d>
   85bc6:	2301      	movs	r3, #1
   85bc8:	3e01      	subs	r6, #1
   85bca:	9314      	str	r3, [sp, #80]	; 0x50
   85bcc:	f1a1 71f8 	sub.w	r1, r1, #32505856	; 0x1f00000
   85bd0:	e781      	b.n	85ad6 <_dtoa_r+0xd6>
   85bd2:	483b      	ldr	r0, [pc, #236]	; (85cc0 <_dtoa_r+0x2c0>)
   85bd4:	e743      	b.n	85a5e <_dtoa_r+0x5e>
   85bd6:	2100      	movs	r1, #0
   85bd8:	4620      	mov	r0, r4
   85bda:	6461      	str	r1, [r4, #68]	; 0x44
   85bdc:	9125      	str	r1, [sp, #148]	; 0x94
   85bde:	f001 fca5 	bl	8752c <_Balloc>
   85be2:	f04f 33ff 	mov.w	r3, #4294967295
   85be6:	9307      	str	r3, [sp, #28]
   85be8:	930f      	str	r3, [sp, #60]	; 0x3c
   85bea:	2301      	movs	r3, #1
   85bec:	9a25      	ldr	r2, [sp, #148]	; 0x94
   85bee:	9004      	str	r0, [sp, #16]
   85bf0:	6420      	str	r0, [r4, #64]	; 0x40
   85bf2:	9224      	str	r2, [sp, #144]	; 0x90
   85bf4:	930b      	str	r3, [sp, #44]	; 0x2c
   85bf6:	9b19      	ldr	r3, [sp, #100]	; 0x64
   85bf8:	2b00      	cmp	r3, #0
   85bfa:	f2c0 80d3 	blt.w	85da4 <_dtoa_r+0x3a4>
   85bfe:	9a02      	ldr	r2, [sp, #8]
   85c00:	2a0e      	cmp	r2, #14
   85c02:	f300 80cf 	bgt.w	85da4 <_dtoa_r+0x3a4>
   85c06:	4b2d      	ldr	r3, [pc, #180]	; (85cbc <_dtoa_r+0x2bc>)
   85c08:	eb03 03c2 	add.w	r3, r3, r2, lsl #3
   85c0c:	e9d3 2300 	ldrd	r2, r3, [r3]
   85c10:	e9cd 2308 	strd	r2, r3, [sp, #32]
   85c14:	9b25      	ldr	r3, [sp, #148]	; 0x94
   85c16:	2b00      	cmp	r3, #0
   85c18:	f2c0 83b4 	blt.w	86384 <_dtoa_r+0x984>
   85c1c:	e9dd 5608 	ldrd	r5, r6, [sp, #32]
   85c20:	4650      	mov	r0, sl
   85c22:	462a      	mov	r2, r5
   85c24:	4633      	mov	r3, r6
   85c26:	4659      	mov	r1, fp
   85c28:	f7fc fbe8 	bl	823fc <__aeabi_ddiv>
   85c2c:	f002 fbee 	bl	8840c <__aeabi_d2iz>
   85c30:	4680      	mov	r8, r0
   85c32:	f7fc fa53 	bl	820dc <__aeabi_i2d>
   85c36:	462a      	mov	r2, r5
   85c38:	4633      	mov	r3, r6
   85c3a:	f7fc fab5 	bl	821a8 <__aeabi_dmul>
   85c3e:	4602      	mov	r2, r0
   85c40:	460b      	mov	r3, r1
   85c42:	4650      	mov	r0, sl
   85c44:	4659      	mov	r1, fp
   85c46:	f7fc f8fb 	bl	81e40 <__aeabi_dsub>
   85c4a:	9e07      	ldr	r6, [sp, #28]
   85c4c:	9f04      	ldr	r7, [sp, #16]
   85c4e:	f108 0530 	add.w	r5, r8, #48	; 0x30
   85c52:	2e01      	cmp	r6, #1
   85c54:	703d      	strb	r5, [r7, #0]
   85c56:	4602      	mov	r2, r0
   85c58:	460b      	mov	r3, r1
   85c5a:	f107 0501 	add.w	r5, r7, #1
   85c5e:	d064      	beq.n	85d2a <_dtoa_r+0x32a>
   85c60:	2200      	movs	r2, #0
   85c62:	4b18      	ldr	r3, [pc, #96]	; (85cc4 <_dtoa_r+0x2c4>)
   85c64:	f7fc faa0 	bl	821a8 <__aeabi_dmul>
   85c68:	2200      	movs	r2, #0
   85c6a:	2300      	movs	r3, #0
   85c6c:	4606      	mov	r6, r0
   85c6e:	460f      	mov	r7, r1
   85c70:	f7fc fd02 	bl	82678 <__aeabi_dcmpeq>
   85c74:	2800      	cmp	r0, #0
   85c76:	f040 8082 	bne.w	85d7e <_dtoa_r+0x37e>
   85c7a:	f8cd 9028 	str.w	r9, [sp, #40]	; 0x28
   85c7e:	f04f 0a00 	mov.w	sl, #0
   85c82:	e9dd 8908 	ldrd	r8, r9, [sp, #32]
   85c86:	f04f 0b00 	mov.w	fp, #0
   85c8a:	940b      	str	r4, [sp, #44]	; 0x2c
   85c8c:	e029      	b.n	85ce2 <_dtoa_r+0x2e2>
   85c8e:	bf00      	nop
   85c90:	636f4361 	.word	0x636f4361
   85c94:	3fd287a7 	.word	0x3fd287a7
   85c98:	8b60c8b3 	.word	0x8b60c8b3
   85c9c:	3fc68a28 	.word	0x3fc68a28
   85ca0:	509f79fb 	.word	0x509f79fb
   85ca4:	3fd34413 	.word	0x3fd34413
   85ca8:	7ff00000 	.word	0x7ff00000
   85cac:	0008881d 	.word	0x0008881d
   85cb0:	00088860 	.word	0x00088860
   85cb4:	0008886c 	.word	0x0008886c
   85cb8:	3ff80000 	.word	0x3ff80000
   85cbc:	000888a8 	.word	0x000888a8
   85cc0:	0008881c 	.word	0x0008881c
   85cc4:	40240000 	.word	0x40240000
   85cc8:	2200      	movs	r2, #0
   85cca:	4b81      	ldr	r3, [pc, #516]	; (85ed0 <_dtoa_r+0x4d0>)
   85ccc:	f7fc fa6c 	bl	821a8 <__aeabi_dmul>
   85cd0:	4652      	mov	r2, sl
   85cd2:	465b      	mov	r3, fp
   85cd4:	4606      	mov	r6, r0
   85cd6:	460f      	mov	r7, r1
   85cd8:	f7fc fcce 	bl	82678 <__aeabi_dcmpeq>
   85cdc:	2800      	cmp	r0, #0
   85cde:	f040 83ba 	bne.w	86456 <_dtoa_r+0xa56>
   85ce2:	4642      	mov	r2, r8
   85ce4:	464b      	mov	r3, r9
   85ce6:	4630      	mov	r0, r6
   85ce8:	4639      	mov	r1, r7
   85cea:	f7fc fb87 	bl	823fc <__aeabi_ddiv>
   85cee:	f002 fb8d 	bl	8840c <__aeabi_d2iz>
   85cf2:	4604      	mov	r4, r0
   85cf4:	f7fc f9f2 	bl	820dc <__aeabi_i2d>
   85cf8:	4642      	mov	r2, r8
   85cfa:	464b      	mov	r3, r9
   85cfc:	f7fc fa54 	bl	821a8 <__aeabi_dmul>
   85d00:	4602      	mov	r2, r0
   85d02:	460b      	mov	r3, r1
   85d04:	4630      	mov	r0, r6
   85d06:	4639      	mov	r1, r7
   85d08:	f7fc f89a 	bl	81e40 <__aeabi_dsub>
   85d0c:	f104 0630 	add.w	r6, r4, #48	; 0x30
   85d10:	f805 6b01 	strb.w	r6, [r5], #1
   85d14:	9e04      	ldr	r6, [sp, #16]
   85d16:	9f07      	ldr	r7, [sp, #28]
   85d18:	1bae      	subs	r6, r5, r6
   85d1a:	42be      	cmp	r6, r7
   85d1c:	4602      	mov	r2, r0
   85d1e:	460b      	mov	r3, r1
   85d20:	d1d2      	bne.n	85cc8 <_dtoa_r+0x2c8>
   85d22:	46a0      	mov	r8, r4
   85d24:	f8dd 9028 	ldr.w	r9, [sp, #40]	; 0x28
   85d28:	9c0b      	ldr	r4, [sp, #44]	; 0x2c
   85d2a:	4610      	mov	r0, r2
   85d2c:	4619      	mov	r1, r3
   85d2e:	f7fc f889 	bl	81e44 <__adddf3>
   85d32:	4606      	mov	r6, r0
   85d34:	460f      	mov	r7, r1
   85d36:	4602      	mov	r2, r0
   85d38:	460b      	mov	r3, r1
   85d3a:	e9dd 0108 	ldrd	r0, r1, [sp, #32]
   85d3e:	f7fc fca5 	bl	8268c <__aeabi_dcmplt>
   85d42:	b948      	cbnz	r0, 85d58 <_dtoa_r+0x358>
   85d44:	e9dd 0108 	ldrd	r0, r1, [sp, #32]
   85d48:	4632      	mov	r2, r6
   85d4a:	463b      	mov	r3, r7
   85d4c:	f7fc fc94 	bl	82678 <__aeabi_dcmpeq>
   85d50:	b1a8      	cbz	r0, 85d7e <_dtoa_r+0x37e>
   85d52:	f018 0f01 	tst.w	r8, #1
   85d56:	d012      	beq.n	85d7e <_dtoa_r+0x37e>
   85d58:	f815 8c01 	ldrb.w	r8, [r5, #-1]
   85d5c:	1e6b      	subs	r3, r5, #1
   85d5e:	9a04      	ldr	r2, [sp, #16]
   85d60:	e004      	b.n	85d6c <_dtoa_r+0x36c>
   85d62:	429a      	cmp	r2, r3
   85d64:	f000 8402 	beq.w	8656c <_dtoa_r+0xb6c>
   85d68:	f813 8d01 	ldrb.w	r8, [r3, #-1]!
   85d6c:	f1b8 0f39 	cmp.w	r8, #57	; 0x39
   85d70:	f103 0501 	add.w	r5, r3, #1
   85d74:	d0f5      	beq.n	85d62 <_dtoa_r+0x362>
   85d76:	f108 0801 	add.w	r8, r8, #1
   85d7a:	f883 8000 	strb.w	r8, [r3]
   85d7e:	4649      	mov	r1, r9
   85d80:	4620      	mov	r0, r4
   85d82:	f001 fbf9 	bl	87578 <_Bfree>
   85d86:	2200      	movs	r2, #0
   85d88:	9b02      	ldr	r3, [sp, #8]
   85d8a:	702a      	strb	r2, [r5, #0]
   85d8c:	9a26      	ldr	r2, [sp, #152]	; 0x98
   85d8e:	3301      	adds	r3, #1
   85d90:	6013      	str	r3, [r2, #0]
   85d92:	9b28      	ldr	r3, [sp, #160]	; 0xa0
   85d94:	2b00      	cmp	r3, #0
   85d96:	f000 839f 	beq.w	864d8 <_dtoa_r+0xad8>
   85d9a:	9804      	ldr	r0, [sp, #16]
   85d9c:	601d      	str	r5, [r3, #0]
   85d9e:	b01b      	add	sp, #108	; 0x6c
   85da0:	e8bd 8ff0 	ldmia.w	sp!, {r4, r5, r6, r7, r8, r9, sl, fp, pc}
   85da4:	9a0b      	ldr	r2, [sp, #44]	; 0x2c
   85da6:	2a00      	cmp	r2, #0
   85da8:	d03e      	beq.n	85e28 <_dtoa_r+0x428>
   85daa:	9a24      	ldr	r2, [sp, #144]	; 0x90
   85dac:	2a01      	cmp	r2, #1
   85dae:	f340 8311 	ble.w	863d4 <_dtoa_r+0x9d4>
   85db2:	9b07      	ldr	r3, [sp, #28]
   85db4:	9a0c      	ldr	r2, [sp, #48]	; 0x30
   85db6:	1e5f      	subs	r7, r3, #1
   85db8:	42ba      	cmp	r2, r7
   85dba:	f2c0 8390 	blt.w	864de <_dtoa_r+0xade>
   85dbe:	1bd7      	subs	r7, r2, r7
   85dc0:	9b07      	ldr	r3, [sp, #28]
   85dc2:	2b00      	cmp	r3, #0
   85dc4:	f2c0 848c 	blt.w	866e0 <_dtoa_r+0xce0>
   85dc8:	9d0a      	ldr	r5, [sp, #40]	; 0x28
   85dca:	9b07      	ldr	r3, [sp, #28]
   85dcc:	9a0a      	ldr	r2, [sp, #40]	; 0x28
   85dce:	2101      	movs	r1, #1
   85dd0:	441a      	add	r2, r3
   85dd2:	920a      	str	r2, [sp, #40]	; 0x28
   85dd4:	9a08      	ldr	r2, [sp, #32]
   85dd6:	4620      	mov	r0, r4
   85dd8:	441a      	add	r2, r3
   85dda:	9208      	str	r2, [sp, #32]
   85ddc:	f001 fc68 	bl	876b0 <__i2b>
   85de0:	4606      	mov	r6, r0
   85de2:	e023      	b.n	85e2c <_dtoa_r+0x42c>
   85de4:	2301      	movs	r3, #1
   85de6:	930e      	str	r3, [sp, #56]	; 0x38
   85de8:	e6b5      	b.n	85b56 <_dtoa_r+0x156>
   85dea:	2300      	movs	r3, #0
   85dec:	9a0a      	ldr	r2, [sp, #40]	; 0x28
   85dee:	930d      	str	r3, [sp, #52]	; 0x34
   85df0:	9b02      	ldr	r3, [sp, #8]
   85df2:	1ad2      	subs	r2, r2, r3
   85df4:	425b      	negs	r3, r3
   85df6:	920a      	str	r2, [sp, #40]	; 0x28
   85df8:	930c      	str	r3, [sp, #48]	; 0x30
   85dfa:	e6be      	b.n	85b7a <_dtoa_r+0x17a>
   85dfc:	f1c7 0301 	rsb	r3, r7, #1
   85e00:	930a      	str	r3, [sp, #40]	; 0x28
   85e02:	2300      	movs	r3, #0
   85e04:	9308      	str	r3, [sp, #32]
   85e06:	e6ad      	b.n	85b64 <_dtoa_r+0x164>
   85e08:	9d02      	ldr	r5, [sp, #8]
   85e0a:	4628      	mov	r0, r5
   85e0c:	f7fc f966 	bl	820dc <__aeabi_i2d>
   85e10:	4602      	mov	r2, r0
   85e12:	460b      	mov	r3, r1
   85e14:	e9dd 0104 	ldrd	r0, r1, [sp, #16]
   85e18:	f7fc fc2e 	bl	82678 <__aeabi_dcmpeq>
   85e1c:	2800      	cmp	r0, #0
   85e1e:	f47f ae86 	bne.w	85b2e <_dtoa_r+0x12e>
   85e22:	1e6b      	subs	r3, r5, #1
   85e24:	9302      	str	r3, [sp, #8]
   85e26:	e682      	b.n	85b2e <_dtoa_r+0x12e>
   85e28:	ad0a      	add	r5, sp, #40	; 0x28
   85e2a:	cde0      	ldmia	r5, {r5, r6, r7}
   85e2c:	2d00      	cmp	r5, #0
   85e2e:	dd0c      	ble.n	85e4a <_dtoa_r+0x44a>
   85e30:	9908      	ldr	r1, [sp, #32]
   85e32:	2900      	cmp	r1, #0
   85e34:	460b      	mov	r3, r1
   85e36:	dd08      	ble.n	85e4a <_dtoa_r+0x44a>
   85e38:	42a9      	cmp	r1, r5
   85e3a:	bfa8      	it	ge
   85e3c:	462b      	movge	r3, r5
   85e3e:	9a0a      	ldr	r2, [sp, #40]	; 0x28
   85e40:	1aed      	subs	r5, r5, r3
   85e42:	1ad2      	subs	r2, r2, r3
   85e44:	1acb      	subs	r3, r1, r3
   85e46:	920a      	str	r2, [sp, #40]	; 0x28
   85e48:	9308      	str	r3, [sp, #32]
   85e4a:	9b0c      	ldr	r3, [sp, #48]	; 0x30
   85e4c:	b1d3      	cbz	r3, 85e84 <_dtoa_r+0x484>
   85e4e:	9b0b      	ldr	r3, [sp, #44]	; 0x2c
   85e50:	2b00      	cmp	r3, #0
   85e52:	f000 82b8 	beq.w	863c6 <_dtoa_r+0x9c6>
   85e56:	2f00      	cmp	r7, #0
   85e58:	dd10      	ble.n	85e7c <_dtoa_r+0x47c>
   85e5a:	4631      	mov	r1, r6
   85e5c:	463a      	mov	r2, r7
   85e5e:	4620      	mov	r0, r4
   85e60:	f001 fcc2 	bl	877e8 <__pow5mult>
   85e64:	464a      	mov	r2, r9
   85e66:	4601      	mov	r1, r0
   85e68:	4606      	mov	r6, r0
   85e6a:	4620      	mov	r0, r4
   85e6c:	f001 fc2a 	bl	876c4 <__multiply>
   85e70:	4603      	mov	r3, r0
   85e72:	4649      	mov	r1, r9
   85e74:	4620      	mov	r0, r4
   85e76:	4699      	mov	r9, r3
   85e78:	f001 fb7e 	bl	87578 <_Bfree>
   85e7c:	9b0c      	ldr	r3, [sp, #48]	; 0x30
   85e7e:	1bda      	subs	r2, r3, r7
   85e80:	f040 82a2 	bne.w	863c8 <_dtoa_r+0x9c8>
   85e84:	2101      	movs	r1, #1
   85e86:	4620      	mov	r0, r4
   85e88:	f001 fc12 	bl	876b0 <__i2b>
   85e8c:	9b0d      	ldr	r3, [sp, #52]	; 0x34
   85e8e:	4680      	mov	r8, r0
   85e90:	2b00      	cmp	r3, #0
   85e92:	dd1f      	ble.n	85ed4 <_dtoa_r+0x4d4>
   85e94:	4601      	mov	r1, r0
   85e96:	461a      	mov	r2, r3
   85e98:	4620      	mov	r0, r4
   85e9a:	f001 fca5 	bl	877e8 <__pow5mult>
   85e9e:	9b24      	ldr	r3, [sp, #144]	; 0x90
   85ea0:	4680      	mov	r8, r0
   85ea2:	2b01      	cmp	r3, #1
   85ea4:	f340 8255 	ble.w	86352 <_dtoa_r+0x952>
   85ea8:	2300      	movs	r3, #0
   85eaa:	930c      	str	r3, [sp, #48]	; 0x30
   85eac:	f8d8 3010 	ldr.w	r3, [r8, #16]
   85eb0:	eb08 0383 	add.w	r3, r8, r3, lsl #2
   85eb4:	6918      	ldr	r0, [r3, #16]
   85eb6:	f001 fbab 	bl	87610 <__hi0bits>
   85eba:	f1c0 0020 	rsb	r0, r0, #32
   85ebe:	e013      	b.n	85ee8 <_dtoa_r+0x4e8>
   85ec0:	f1c3 0520 	rsb	r5, r3, #32
   85ec4:	fa0a f005 	lsl.w	r0, sl, r5
   85ec8:	e67b      	b.n	85bc2 <_dtoa_r+0x1c2>
   85eca:	900e      	str	r0, [sp, #56]	; 0x38
   85ecc:	e643      	b.n	85b56 <_dtoa_r+0x156>
   85ece:	bf00      	nop
   85ed0:	40240000 	.word	0x40240000
   85ed4:	9b24      	ldr	r3, [sp, #144]	; 0x90
   85ed6:	2b01      	cmp	r3, #1
   85ed8:	f340 8285 	ble.w	863e6 <_dtoa_r+0x9e6>
   85edc:	2300      	movs	r3, #0
   85ede:	930c      	str	r3, [sp, #48]	; 0x30
   85ee0:	9b0d      	ldr	r3, [sp, #52]	; 0x34
   85ee2:	2001      	movs	r0, #1
   85ee4:	2b00      	cmp	r3, #0
   85ee6:	d1e1      	bne.n	85eac <_dtoa_r+0x4ac>
   85ee8:	9a08      	ldr	r2, [sp, #32]
   85eea:	4410      	add	r0, r2
   85eec:	f010 001f 	ands.w	r0, r0, #31
   85ef0:	f000 80a1 	beq.w	86036 <_dtoa_r+0x636>
   85ef4:	f1c0 0320 	rsb	r3, r0, #32
   85ef8:	2b04      	cmp	r3, #4
   85efa:	f340 8486 	ble.w	8680a <_dtoa_r+0xe0a>
   85efe:	9b0a      	ldr	r3, [sp, #40]	; 0x28
   85f00:	f1c0 001c 	rsb	r0, r0, #28
   85f04:	4403      	add	r3, r0
   85f06:	930a      	str	r3, [sp, #40]	; 0x28
   85f08:	4613      	mov	r3, r2
   85f0a:	4403      	add	r3, r0
   85f0c:	4405      	add	r5, r0
   85f0e:	9308      	str	r3, [sp, #32]
   85f10:	9b0a      	ldr	r3, [sp, #40]	; 0x28
   85f12:	2b00      	cmp	r3, #0
   85f14:	dd05      	ble.n	85f22 <_dtoa_r+0x522>
   85f16:	4649      	mov	r1, r9
   85f18:	461a      	mov	r2, r3
   85f1a:	4620      	mov	r0, r4
   85f1c:	f001 fcb4 	bl	87888 <__lshift>
   85f20:	4681      	mov	r9, r0
   85f22:	9b08      	ldr	r3, [sp, #32]
   85f24:	2b00      	cmp	r3, #0
   85f26:	dd05      	ble.n	85f34 <_dtoa_r+0x534>
   85f28:	4641      	mov	r1, r8
   85f2a:	461a      	mov	r2, r3
   85f2c:	4620      	mov	r0, r4
   85f2e:	f001 fcab 	bl	87888 <__lshift>
   85f32:	4680      	mov	r8, r0
   85f34:	9b0e      	ldr	r3, [sp, #56]	; 0x38
   85f36:	2b00      	cmp	r3, #0
   85f38:	f040 8086 	bne.w	86048 <_dtoa_r+0x648>
   85f3c:	9b07      	ldr	r3, [sp, #28]
   85f3e:	2b00      	cmp	r3, #0
   85f40:	f340 8264 	ble.w	8640c <_dtoa_r+0xa0c>
   85f44:	9b0b      	ldr	r3, [sp, #44]	; 0x2c
   85f46:	2b00      	cmp	r3, #0
   85f48:	f000 8098 	beq.w	8607c <_dtoa_r+0x67c>
   85f4c:	2d00      	cmp	r5, #0
   85f4e:	dd05      	ble.n	85f5c <_dtoa_r+0x55c>
   85f50:	4631      	mov	r1, r6
   85f52:	462a      	mov	r2, r5
   85f54:	4620      	mov	r0, r4
   85f56:	f001 fc97 	bl	87888 <__lshift>
   85f5a:	4606      	mov	r6, r0
   85f5c:	9b0c      	ldr	r3, [sp, #48]	; 0x30
   85f5e:	2b00      	cmp	r3, #0
   85f60:	f040 8336 	bne.w	865d0 <_dtoa_r+0xbd0>
   85f64:	9608      	str	r6, [sp, #32]
   85f66:	9b07      	ldr	r3, [sp, #28]
   85f68:	9a04      	ldr	r2, [sp, #16]
   85f6a:	3b01      	subs	r3, #1
   85f6c:	18d3      	adds	r3, r2, r3
   85f6e:	930b      	str	r3, [sp, #44]	; 0x2c
   85f70:	4617      	mov	r7, r2
   85f72:	f00a 0301 	and.w	r3, sl, #1
   85f76:	46c2      	mov	sl, r8
   85f78:	f8dd b020 	ldr.w	fp, [sp, #32]
   85f7c:	930c      	str	r3, [sp, #48]	; 0x30
   85f7e:	4651      	mov	r1, sl
   85f80:	4648      	mov	r0, r9
   85f82:	f7ff fca7 	bl	858d4 <quorem>
   85f86:	4631      	mov	r1, r6
   85f88:	4605      	mov	r5, r0
   85f8a:	4648      	mov	r0, r9
   85f8c:	f001 fccc 	bl	87928 <__mcmp>
   85f90:	465a      	mov	r2, fp
   85f92:	9007      	str	r0, [sp, #28]
   85f94:	4651      	mov	r1, sl
   85f96:	4620      	mov	r0, r4
   85f98:	f001 fce2 	bl	87960 <__mdiff>
   85f9c:	68c2      	ldr	r2, [r0, #12]
   85f9e:	4680      	mov	r8, r0
   85fa0:	f105 0330 	add.w	r3, r5, #48	; 0x30
   85fa4:	2a00      	cmp	r2, #0
   85fa6:	f040 8229 	bne.w	863fc <_dtoa_r+0x9fc>
   85faa:	4601      	mov	r1, r0
   85fac:	4648      	mov	r0, r9
   85fae:	930a      	str	r3, [sp, #40]	; 0x28
   85fb0:	f001 fcba 	bl	87928 <__mcmp>
   85fb4:	4641      	mov	r1, r8
   85fb6:	9008      	str	r0, [sp, #32]
   85fb8:	4620      	mov	r0, r4
   85fba:	f001 fadd 	bl	87578 <_Bfree>
   85fbe:	9a08      	ldr	r2, [sp, #32]
   85fc0:	9b0a      	ldr	r3, [sp, #40]	; 0x28
   85fc2:	b932      	cbnz	r2, 85fd2 <_dtoa_r+0x5d2>
   85fc4:	9924      	ldr	r1, [sp, #144]	; 0x90
   85fc6:	b921      	cbnz	r1, 85fd2 <_dtoa_r+0x5d2>
   85fc8:	9a0c      	ldr	r2, [sp, #48]	; 0x30
   85fca:	2a00      	cmp	r2, #0
   85fcc:	f000 83ee 	beq.w	867ac <_dtoa_r+0xdac>
   85fd0:	9a24      	ldr	r2, [sp, #144]	; 0x90
   85fd2:	9907      	ldr	r1, [sp, #28]
   85fd4:	2900      	cmp	r1, #0
   85fd6:	f2c0 829f 	blt.w	86518 <_dtoa_r+0xb18>
   85fda:	d105      	bne.n	85fe8 <_dtoa_r+0x5e8>
   85fdc:	9924      	ldr	r1, [sp, #144]	; 0x90
   85fde:	b919      	cbnz	r1, 85fe8 <_dtoa_r+0x5e8>
   85fe0:	990c      	ldr	r1, [sp, #48]	; 0x30
   85fe2:	2900      	cmp	r1, #0
   85fe4:	f000 8298 	beq.w	86518 <_dtoa_r+0xb18>
   85fe8:	2a00      	cmp	r2, #0
   85fea:	f300 8305 	bgt.w	865f8 <_dtoa_r+0xbf8>
   85fee:	9a0b      	ldr	r2, [sp, #44]	; 0x2c
   85ff0:	f107 0801 	add.w	r8, r7, #1
   85ff4:	4297      	cmp	r7, r2
   85ff6:	703b      	strb	r3, [r7, #0]
   85ff8:	4645      	mov	r5, r8
   85ffa:	f000 830b 	beq.w	86614 <_dtoa_r+0xc14>
   85ffe:	4649      	mov	r1, r9
   86000:	2300      	movs	r3, #0
   86002:	220a      	movs	r2, #10
   86004:	4620      	mov	r0, r4
   86006:	f001 fac1 	bl	8758c <__multadd>
   8600a:	455e      	cmp	r6, fp
   8600c:	4681      	mov	r9, r0
   8600e:	4631      	mov	r1, r6
   86010:	f04f 0300 	mov.w	r3, #0
   86014:	f04f 020a 	mov.w	r2, #10
   86018:	4620      	mov	r0, r4
   8601a:	f000 81e9 	beq.w	863f0 <_dtoa_r+0x9f0>
   8601e:	f001 fab5 	bl	8758c <__multadd>
   86022:	4659      	mov	r1, fp
   86024:	4606      	mov	r6, r0
   86026:	2300      	movs	r3, #0
   86028:	220a      	movs	r2, #10
   8602a:	4620      	mov	r0, r4
   8602c:	f001 faae 	bl	8758c <__multadd>
   86030:	4647      	mov	r7, r8
   86032:	4683      	mov	fp, r0
   86034:	e7a3      	b.n	85f7e <_dtoa_r+0x57e>
   86036:	201c      	movs	r0, #28
   86038:	9b0a      	ldr	r3, [sp, #40]	; 0x28
   8603a:	4405      	add	r5, r0
   8603c:	4403      	add	r3, r0
   8603e:	930a      	str	r3, [sp, #40]	; 0x28
   86040:	9b08      	ldr	r3, [sp, #32]
   86042:	4403      	add	r3, r0
   86044:	9308      	str	r3, [sp, #32]
   86046:	e763      	b.n	85f10 <_dtoa_r+0x510>
   86048:	4641      	mov	r1, r8
   8604a:	4648      	mov	r0, r9
   8604c:	f001 fc6c 	bl	87928 <__mcmp>
   86050:	2800      	cmp	r0, #0
   86052:	f6bf af73 	bge.w	85f3c <_dtoa_r+0x53c>
   86056:	9f02      	ldr	r7, [sp, #8]
   86058:	4649      	mov	r1, r9
   8605a:	2300      	movs	r3, #0
   8605c:	220a      	movs	r2, #10
   8605e:	4620      	mov	r0, r4
   86060:	3f01      	subs	r7, #1
   86062:	9702      	str	r7, [sp, #8]
   86064:	f001 fa92 	bl	8758c <__multadd>
   86068:	9b0b      	ldr	r3, [sp, #44]	; 0x2c
   8606a:	4681      	mov	r9, r0
   8606c:	2b00      	cmp	r3, #0
   8606e:	f040 83b5 	bne.w	867dc <_dtoa_r+0xddc>
   86072:	9b0f      	ldr	r3, [sp, #60]	; 0x3c
   86074:	2b00      	cmp	r3, #0
   86076:	f340 83be 	ble.w	867f6 <_dtoa_r+0xdf6>
   8607a:	9307      	str	r3, [sp, #28]
   8607c:	f8dd a010 	ldr.w	sl, [sp, #16]
   86080:	9f07      	ldr	r7, [sp, #28]
   86082:	4655      	mov	r5, sl
   86084:	e006      	b.n	86094 <_dtoa_r+0x694>
   86086:	4649      	mov	r1, r9
   86088:	2300      	movs	r3, #0
   8608a:	220a      	movs	r2, #10
   8608c:	4620      	mov	r0, r4
   8608e:	f001 fa7d 	bl	8758c <__multadd>
   86092:	4681      	mov	r9, r0
   86094:	4641      	mov	r1, r8
   86096:	4648      	mov	r0, r9
   86098:	f7ff fc1c 	bl	858d4 <quorem>
   8609c:	3030      	adds	r0, #48	; 0x30
   8609e:	f805 0b01 	strb.w	r0, [r5], #1
   860a2:	eba5 030a 	sub.w	r3, r5, sl
   860a6:	42bb      	cmp	r3, r7
   860a8:	dbed      	blt.n	86086 <_dtoa_r+0x686>
   860aa:	9b04      	ldr	r3, [sp, #16]
   860ac:	9a07      	ldr	r2, [sp, #28]
   860ae:	4682      	mov	sl, r0
   860b0:	2a01      	cmp	r2, #1
   860b2:	bfac      	ite	ge
   860b4:	189b      	addge	r3, r3, r2
   860b6:	3301      	addlt	r3, #1
   860b8:	f04f 0b00 	mov.w	fp, #0
   860bc:	461d      	mov	r5, r3
   860be:	4649      	mov	r1, r9
   860c0:	2201      	movs	r2, #1
   860c2:	4620      	mov	r0, r4
   860c4:	f001 fbe0 	bl	87888 <__lshift>
   860c8:	4641      	mov	r1, r8
   860ca:	4681      	mov	r9, r0
   860cc:	f001 fc2c 	bl	87928 <__mcmp>
   860d0:	2800      	cmp	r0, #0
   860d2:	f340 823f 	ble.w	86554 <_dtoa_r+0xb54>
   860d6:	f815 2c01 	ldrb.w	r2, [r5, #-1]
   860da:	1e6b      	subs	r3, r5, #1
   860dc:	9904      	ldr	r1, [sp, #16]
   860de:	e004      	b.n	860ea <_dtoa_r+0x6ea>
   860e0:	428b      	cmp	r3, r1
   860e2:	f000 81ae 	beq.w	86442 <_dtoa_r+0xa42>
   860e6:	f813 2d01 	ldrb.w	r2, [r3, #-1]!
   860ea:	2a39      	cmp	r2, #57	; 0x39
   860ec:	f103 0501 	add.w	r5, r3, #1
   860f0:	d0f6      	beq.n	860e0 <_dtoa_r+0x6e0>
   860f2:	3201      	adds	r2, #1
   860f4:	701a      	strb	r2, [r3, #0]
   860f6:	4641      	mov	r1, r8
   860f8:	4620      	mov	r0, r4
   860fa:	f001 fa3d 	bl	87578 <_Bfree>
   860fe:	2e00      	cmp	r6, #0
   86100:	f43f ae3d 	beq.w	85d7e <_dtoa_r+0x37e>
   86104:	f1bb 0f00 	cmp.w	fp, #0
   86108:	d005      	beq.n	86116 <_dtoa_r+0x716>
   8610a:	45b3      	cmp	fp, r6
   8610c:	d003      	beq.n	86116 <_dtoa_r+0x716>
   8610e:	4659      	mov	r1, fp
   86110:	4620      	mov	r0, r4
   86112:	f001 fa31 	bl	87578 <_Bfree>
   86116:	4631      	mov	r1, r6
   86118:	4620      	mov	r0, r4
   8611a:	f001 fa2d 	bl	87578 <_Bfree>
   8611e:	e62e      	b.n	85d7e <_dtoa_r+0x37e>
   86120:	2300      	movs	r3, #0
   86122:	930b      	str	r3, [sp, #44]	; 0x2c
   86124:	9b02      	ldr	r3, [sp, #8]
   86126:	9a25      	ldr	r2, [sp, #148]	; 0x94
   86128:	4413      	add	r3, r2
   8612a:	930f      	str	r3, [sp, #60]	; 0x3c
   8612c:	3301      	adds	r3, #1
   8612e:	2b01      	cmp	r3, #1
   86130:	461f      	mov	r7, r3
   86132:	461e      	mov	r6, r3
   86134:	bfb8      	it	lt
   86136:	2701      	movlt	r7, #1
   86138:	9307      	str	r3, [sp, #28]
   8613a:	2100      	movs	r1, #0
   8613c:	2f17      	cmp	r7, #23
   8613e:	6461      	str	r1, [r4, #68]	; 0x44
   86140:	d90a      	bls.n	86158 <_dtoa_r+0x758>
   86142:	2201      	movs	r2, #1
   86144:	2304      	movs	r3, #4
   86146:	005b      	lsls	r3, r3, #1
   86148:	f103 0014 	add.w	r0, r3, #20
   8614c:	4287      	cmp	r7, r0
   8614e:	4611      	mov	r1, r2
   86150:	f102 0201 	add.w	r2, r2, #1
   86154:	d2f7      	bcs.n	86146 <_dtoa_r+0x746>
   86156:	6461      	str	r1, [r4, #68]	; 0x44
   86158:	4620      	mov	r0, r4
   8615a:	f001 f9e7 	bl	8752c <_Balloc>
   8615e:	2e0e      	cmp	r6, #14
   86160:	9004      	str	r0, [sp, #16]
   86162:	6420      	str	r0, [r4, #64]	; 0x40
   86164:	f63f ad47 	bhi.w	85bf6 <_dtoa_r+0x1f6>
   86168:	2d00      	cmp	r5, #0
   8616a:	f43f ad44 	beq.w	85bf6 <_dtoa_r+0x1f6>
   8616e:	9902      	ldr	r1, [sp, #8]
   86170:	e9cd ab10 	strd	sl, fp, [sp, #64]	; 0x40
   86174:	2900      	cmp	r1, #0
   86176:	f340 8203 	ble.w	86580 <_dtoa_r+0xb80>
   8617a:	4bb9      	ldr	r3, [pc, #740]	; (86460 <_dtoa_r+0xa60>)
   8617c:	f001 020f 	and.w	r2, r1, #15
   86180:	110d      	asrs	r5, r1, #4
   86182:	eb03 03c2 	add.w	r3, r3, r2, lsl #3
   86186:	06e9      	lsls	r1, r5, #27
   86188:	e9d3 6700 	ldrd	r6, r7, [r3]
   8618c:	f140 81af 	bpl.w	864ee <_dtoa_r+0xaee>
   86190:	4bb4      	ldr	r3, [pc, #720]	; (86464 <_dtoa_r+0xa64>)
   86192:	4650      	mov	r0, sl
   86194:	e9d3 2308 	ldrd	r2, r3, [r3, #32]
   86198:	4659      	mov	r1, fp
   8619a:	f7fc f92f 	bl	823fc <__aeabi_ddiv>
   8619e:	f04f 0a03 	mov.w	sl, #3
   861a2:	e9cd 0112 	strd	r0, r1, [sp, #72]	; 0x48
   861a6:	f005 050f 	and.w	r5, r5, #15
   861aa:	b18d      	cbz	r5, 861d0 <_dtoa_r+0x7d0>
   861ac:	f8df 82b4 	ldr.w	r8, [pc, #692]	; 86464 <_dtoa_r+0xa64>
   861b0:	07ea      	lsls	r2, r5, #31
   861b2:	d509      	bpl.n	861c8 <_dtoa_r+0x7c8>
   861b4:	e9d8 2300 	ldrd	r2, r3, [r8]
   861b8:	4630      	mov	r0, r6
   861ba:	4639      	mov	r1, r7
   861bc:	f7fb fff4 	bl	821a8 <__aeabi_dmul>
   861c0:	4606      	mov	r6, r0
   861c2:	460f      	mov	r7, r1
   861c4:	f10a 0a01 	add.w	sl, sl, #1
   861c8:	106d      	asrs	r5, r5, #1
   861ca:	f108 0808 	add.w	r8, r8, #8
   861ce:	d1ef      	bne.n	861b0 <_dtoa_r+0x7b0>
   861d0:	463b      	mov	r3, r7
   861d2:	e9dd 0112 	ldrd	r0, r1, [sp, #72]	; 0x48
   861d6:	4632      	mov	r2, r6
   861d8:	f7fc f910 	bl	823fc <__aeabi_ddiv>
   861dc:	4607      	mov	r7, r0
   861de:	4688      	mov	r8, r1
   861e0:	9b0e      	ldr	r3, [sp, #56]	; 0x38
   861e2:	b143      	cbz	r3, 861f6 <_dtoa_r+0x7f6>
   861e4:	2200      	movs	r2, #0
   861e6:	4ba0      	ldr	r3, [pc, #640]	; (86468 <_dtoa_r+0xa68>)
   861e8:	4638      	mov	r0, r7
   861ea:	4641      	mov	r1, r8
   861ec:	f7fc fa4e 	bl	8268c <__aeabi_dcmplt>
   861f0:	2800      	cmp	r0, #0
   861f2:	f040 8287 	bne.w	86704 <_dtoa_r+0xd04>
   861f6:	4650      	mov	r0, sl
   861f8:	f7fb ff70 	bl	820dc <__aeabi_i2d>
   861fc:	463a      	mov	r2, r7
   861fe:	4643      	mov	r3, r8
   86200:	f7fb ffd2 	bl	821a8 <__aeabi_dmul>
   86204:	4b99      	ldr	r3, [pc, #612]	; (8646c <_dtoa_r+0xa6c>)
   86206:	2200      	movs	r2, #0
   86208:	f7fb fe1c 	bl	81e44 <__adddf3>
   8620c:	9b07      	ldr	r3, [sp, #28]
   8620e:	4605      	mov	r5, r0
   86210:	f1a1 7650 	sub.w	r6, r1, #54525952	; 0x3400000
   86214:	2b00      	cmp	r3, #0
   86216:	f000 813f 	beq.w	86498 <_dtoa_r+0xa98>
   8621a:	9b02      	ldr	r3, [sp, #8]
   8621c:	9315      	str	r3, [sp, #84]	; 0x54
   8621e:	9b07      	ldr	r3, [sp, #28]
   86220:	9312      	str	r3, [sp, #72]	; 0x48
   86222:	9b0b      	ldr	r3, [sp, #44]	; 0x2c
   86224:	2b00      	cmp	r3, #0
   86226:	f000 81fb 	beq.w	86620 <_dtoa_r+0xc20>
   8622a:	9a12      	ldr	r2, [sp, #72]	; 0x48
   8622c:	4b8c      	ldr	r3, [pc, #560]	; (86460 <_dtoa_r+0xa60>)
   8622e:	2000      	movs	r0, #0
   86230:	eb03 03c2 	add.w	r3, r3, r2, lsl #3
   86234:	e953 2302 	ldrd	r2, r3, [r3, #-8]
   86238:	498d      	ldr	r1, [pc, #564]	; (86470 <_dtoa_r+0xa70>)
   8623a:	f7fc f8df 	bl	823fc <__aeabi_ddiv>
   8623e:	462a      	mov	r2, r5
   86240:	4633      	mov	r3, r6
   86242:	f7fb fdfd 	bl	81e40 <__aeabi_dsub>
   86246:	4682      	mov	sl, r0
   86248:	468b      	mov	fp, r1
   8624a:	4638      	mov	r0, r7
   8624c:	4641      	mov	r1, r8
   8624e:	f002 f8dd 	bl	8840c <__aeabi_d2iz>
   86252:	4605      	mov	r5, r0
   86254:	f7fb ff42 	bl	820dc <__aeabi_i2d>
   86258:	4602      	mov	r2, r0
   8625a:	460b      	mov	r3, r1
   8625c:	4638      	mov	r0, r7
   8625e:	4641      	mov	r1, r8
   86260:	f7fb fdee 	bl	81e40 <__aeabi_dsub>
   86264:	3530      	adds	r5, #48	; 0x30
   86266:	fa5f f885 	uxtb.w	r8, r5
   8626a:	9d04      	ldr	r5, [sp, #16]
   8626c:	4606      	mov	r6, r0
   8626e:	460f      	mov	r7, r1
   86270:	f885 8000 	strb.w	r8, [r5]
   86274:	4602      	mov	r2, r0
   86276:	460b      	mov	r3, r1
   86278:	4650      	mov	r0, sl
   8627a:	4659      	mov	r1, fp
   8627c:	3501      	adds	r5, #1
   8627e:	f7fc fa23 	bl	826c8 <__aeabi_dcmpgt>
   86282:	2800      	cmp	r0, #0
   86284:	d154      	bne.n	86330 <_dtoa_r+0x930>
   86286:	4632      	mov	r2, r6
   86288:	463b      	mov	r3, r7
   8628a:	2000      	movs	r0, #0
   8628c:	4976      	ldr	r1, [pc, #472]	; (86468 <_dtoa_r+0xa68>)
   8628e:	f7fb fdd7 	bl	81e40 <__aeabi_dsub>
   86292:	4602      	mov	r2, r0
   86294:	460b      	mov	r3, r1
   86296:	4650      	mov	r0, sl
   86298:	4659      	mov	r1, fp
   8629a:	f7fc fa15 	bl	826c8 <__aeabi_dcmpgt>
   8629e:	2800      	cmp	r0, #0
   862a0:	f040 8270 	bne.w	86784 <_dtoa_r+0xd84>
   862a4:	9a12      	ldr	r2, [sp, #72]	; 0x48
   862a6:	2a01      	cmp	r2, #1
   862a8:	f000 8112 	beq.w	864d0 <_dtoa_r+0xad0>
   862ac:	9b12      	ldr	r3, [sp, #72]	; 0x48
   862ae:	9a04      	ldr	r2, [sp, #16]
   862b0:	f8cd 9048 	str.w	r9, [sp, #72]	; 0x48
   862b4:	4413      	add	r3, r2
   862b6:	4699      	mov	r9, r3
   862b8:	e00f      	b.n	862da <_dtoa_r+0x8da>
   862ba:	4632      	mov	r2, r6
   862bc:	463b      	mov	r3, r7
   862be:	2000      	movs	r0, #0
   862c0:	4969      	ldr	r1, [pc, #420]	; (86468 <_dtoa_r+0xa68>)
   862c2:	f7fb fdbd 	bl	81e40 <__aeabi_dsub>
   862c6:	4652      	mov	r2, sl
   862c8:	465b      	mov	r3, fp
   862ca:	f7fc f9df 	bl	8268c <__aeabi_dcmplt>
   862ce:	2800      	cmp	r0, #0
   862d0:	f040 8256 	bne.w	86780 <_dtoa_r+0xd80>
   862d4:	454d      	cmp	r5, r9
   862d6:	f000 80f9 	beq.w	864cc <_dtoa_r+0xacc>
   862da:	4650      	mov	r0, sl
   862dc:	4659      	mov	r1, fp
   862de:	2200      	movs	r2, #0
   862e0:	4b64      	ldr	r3, [pc, #400]	; (86474 <_dtoa_r+0xa74>)
   862e2:	f7fb ff61 	bl	821a8 <__aeabi_dmul>
   862e6:	2200      	movs	r2, #0
   862e8:	4b62      	ldr	r3, [pc, #392]	; (86474 <_dtoa_r+0xa74>)
   862ea:	4682      	mov	sl, r0
   862ec:	468b      	mov	fp, r1
   862ee:	4630      	mov	r0, r6
   862f0:	4639      	mov	r1, r7
   862f2:	f7fb ff59 	bl	821a8 <__aeabi_dmul>
   862f6:	460f      	mov	r7, r1
   862f8:	4606      	mov	r6, r0
   862fa:	f002 f887 	bl	8840c <__aeabi_d2iz>
   862fe:	4680      	mov	r8, r0
   86300:	f7fb feec 	bl	820dc <__aeabi_i2d>
   86304:	4602      	mov	r2, r0
   86306:	460b      	mov	r3, r1
   86308:	4630      	mov	r0, r6
   8630a:	4639      	mov	r1, r7
   8630c:	f7fb fd98 	bl	81e40 <__aeabi_dsub>
   86310:	f108 0830 	add.w	r8, r8, #48	; 0x30
   86314:	fa5f f888 	uxtb.w	r8, r8
   86318:	f805 8b01 	strb.w	r8, [r5], #1
   8631c:	4652      	mov	r2, sl
   8631e:	465b      	mov	r3, fp
   86320:	4606      	mov	r6, r0
   86322:	460f      	mov	r7, r1
   86324:	f7fc f9b2 	bl	8268c <__aeabi_dcmplt>
   86328:	2800      	cmp	r0, #0
   8632a:	d0c6      	beq.n	862ba <_dtoa_r+0x8ba>
   8632c:	f8dd 9048 	ldr.w	r9, [sp, #72]	; 0x48
   86330:	9b15      	ldr	r3, [sp, #84]	; 0x54
   86332:	9302      	str	r3, [sp, #8]
   86334:	e523      	b.n	85d7e <_dtoa_r+0x37e>
   86336:	2300      	movs	r3, #0
   86338:	930b      	str	r3, [sp, #44]	; 0x2c
   8633a:	9b25      	ldr	r3, [sp, #148]	; 0x94
   8633c:	2b00      	cmp	r3, #0
   8633e:	f340 80dd 	ble.w	864fc <_dtoa_r+0xafc>
   86342:	461f      	mov	r7, r3
   86344:	461e      	mov	r6, r3
   86346:	930f      	str	r3, [sp, #60]	; 0x3c
   86348:	9307      	str	r3, [sp, #28]
   8634a:	e6f6      	b.n	8613a <_dtoa_r+0x73a>
   8634c:	2301      	movs	r3, #1
   8634e:	930b      	str	r3, [sp, #44]	; 0x2c
   86350:	e7f3      	b.n	8633a <_dtoa_r+0x93a>
   86352:	f1ba 0f00 	cmp.w	sl, #0
   86356:	f47f ada7 	bne.w	85ea8 <_dtoa_r+0x4a8>
   8635a:	f3cb 0313 	ubfx	r3, fp, #0, #20
   8635e:	2b00      	cmp	r3, #0
   86360:	f47f adbc 	bne.w	85edc <_dtoa_r+0x4dc>
   86364:	f02b 4700 	bic.w	r7, fp, #2147483648	; 0x80000000
   86368:	0d3f      	lsrs	r7, r7, #20
   8636a:	053f      	lsls	r7, r7, #20
   8636c:	2f00      	cmp	r7, #0
   8636e:	f000 820d 	beq.w	8678c <_dtoa_r+0xd8c>
   86372:	9b0a      	ldr	r3, [sp, #40]	; 0x28
   86374:	3301      	adds	r3, #1
   86376:	930a      	str	r3, [sp, #40]	; 0x28
   86378:	9b08      	ldr	r3, [sp, #32]
   8637a:	3301      	adds	r3, #1
   8637c:	9308      	str	r3, [sp, #32]
   8637e:	2301      	movs	r3, #1
   86380:	930c      	str	r3, [sp, #48]	; 0x30
   86382:	e5ad      	b.n	85ee0 <_dtoa_r+0x4e0>
   86384:	9b07      	ldr	r3, [sp, #28]
   86386:	2b00      	cmp	r3, #0
   86388:	f73f ac48 	bgt.w	85c1c <_dtoa_r+0x21c>
   8638c:	f040 8222 	bne.w	867d4 <_dtoa_r+0xdd4>
   86390:	e9dd 0108 	ldrd	r0, r1, [sp, #32]
   86394:	2200      	movs	r2, #0
   86396:	4b38      	ldr	r3, [pc, #224]	; (86478 <_dtoa_r+0xa78>)
   86398:	f7fb ff06 	bl	821a8 <__aeabi_dmul>
   8639c:	4652      	mov	r2, sl
   8639e:	465b      	mov	r3, fp
   863a0:	f7fc f988 	bl	826b4 <__aeabi_dcmpge>
   863a4:	f8dd 801c 	ldr.w	r8, [sp, #28]
   863a8:	4646      	mov	r6, r8
   863aa:	2800      	cmp	r0, #0
   863ac:	d041      	beq.n	86432 <_dtoa_r+0xa32>
   863ae:	9b25      	ldr	r3, [sp, #148]	; 0x94
   863b0:	9d04      	ldr	r5, [sp, #16]
   863b2:	43db      	mvns	r3, r3
   863b4:	9302      	str	r3, [sp, #8]
   863b6:	4641      	mov	r1, r8
   863b8:	4620      	mov	r0, r4
   863ba:	f001 f8dd 	bl	87578 <_Bfree>
   863be:	2e00      	cmp	r6, #0
   863c0:	f43f acdd 	beq.w	85d7e <_dtoa_r+0x37e>
   863c4:	e6a7      	b.n	86116 <_dtoa_r+0x716>
   863c6:	9a0c      	ldr	r2, [sp, #48]	; 0x30
   863c8:	4649      	mov	r1, r9
   863ca:	4620      	mov	r0, r4
   863cc:	f001 fa0c 	bl	877e8 <__pow5mult>
   863d0:	4681      	mov	r9, r0
   863d2:	e557      	b.n	85e84 <_dtoa_r+0x484>
   863d4:	9a14      	ldr	r2, [sp, #80]	; 0x50
   863d6:	2a00      	cmp	r2, #0
   863d8:	f000 8188 	beq.w	866ec <_dtoa_r+0xcec>
   863dc:	f203 4333 	addw	r3, r3, #1075	; 0x433
   863e0:	9f0c      	ldr	r7, [sp, #48]	; 0x30
   863e2:	9d0a      	ldr	r5, [sp, #40]	; 0x28
   863e4:	e4f2      	b.n	85dcc <_dtoa_r+0x3cc>
   863e6:	f1ba 0f00 	cmp.w	sl, #0
   863ea:	f47f ad77 	bne.w	85edc <_dtoa_r+0x4dc>
   863ee:	e7b4      	b.n	8635a <_dtoa_r+0x95a>
   863f0:	f001 f8cc 	bl	8758c <__multadd>
   863f4:	4647      	mov	r7, r8
   863f6:	4606      	mov	r6, r0
   863f8:	4683      	mov	fp, r0
   863fa:	e5c0      	b.n	85f7e <_dtoa_r+0x57e>
   863fc:	4601      	mov	r1, r0
   863fe:	4620      	mov	r0, r4
   86400:	9308      	str	r3, [sp, #32]
   86402:	f001 f8b9 	bl	87578 <_Bfree>
   86406:	2201      	movs	r2, #1
   86408:	9b08      	ldr	r3, [sp, #32]
   8640a:	e5e2      	b.n	85fd2 <_dtoa_r+0x5d2>
   8640c:	9b24      	ldr	r3, [sp, #144]	; 0x90
   8640e:	2b02      	cmp	r3, #2
   86410:	f77f ad98 	ble.w	85f44 <_dtoa_r+0x544>
   86414:	9b07      	ldr	r3, [sp, #28]
   86416:	2b00      	cmp	r3, #0
   86418:	d1c9      	bne.n	863ae <_dtoa_r+0x9ae>
   8641a:	4641      	mov	r1, r8
   8641c:	2205      	movs	r2, #5
   8641e:	4620      	mov	r0, r4
   86420:	f001 f8b4 	bl	8758c <__multadd>
   86424:	4601      	mov	r1, r0
   86426:	4680      	mov	r8, r0
   86428:	4648      	mov	r0, r9
   8642a:	f001 fa7d 	bl	87928 <__mcmp>
   8642e:	2800      	cmp	r0, #0
   86430:	ddbd      	ble.n	863ae <_dtoa_r+0x9ae>
   86432:	2331      	movs	r3, #49	; 0x31
   86434:	9a02      	ldr	r2, [sp, #8]
   86436:	9904      	ldr	r1, [sp, #16]
   86438:	3201      	adds	r2, #1
   8643a:	9202      	str	r2, [sp, #8]
   8643c:	700b      	strb	r3, [r1, #0]
   8643e:	1c4d      	adds	r5, r1, #1
   86440:	e7b9      	b.n	863b6 <_dtoa_r+0x9b6>
   86442:	2331      	movs	r3, #49	; 0x31
   86444:	9a02      	ldr	r2, [sp, #8]
   86446:	3201      	adds	r2, #1
   86448:	9202      	str	r2, [sp, #8]
   8644a:	9a04      	ldr	r2, [sp, #16]
   8644c:	7013      	strb	r3, [r2, #0]
   8644e:	e652      	b.n	860f6 <_dtoa_r+0x6f6>
   86450:	2301      	movs	r3, #1
   86452:	930b      	str	r3, [sp, #44]	; 0x2c
   86454:	e666      	b.n	86124 <_dtoa_r+0x724>
   86456:	f8dd 9028 	ldr.w	r9, [sp, #40]	; 0x28
   8645a:	9c0b      	ldr	r4, [sp, #44]	; 0x2c
   8645c:	e48f      	b.n	85d7e <_dtoa_r+0x37e>
   8645e:	bf00      	nop
   86460:	000888a8 	.word	0x000888a8
   86464:	00088880 	.word	0x00088880
   86468:	3ff00000 	.word	0x3ff00000
   8646c:	401c0000 	.word	0x401c0000
   86470:	3fe00000 	.word	0x3fe00000
   86474:	40240000 	.word	0x40240000
   86478:	40140000 	.word	0x40140000
   8647c:	4650      	mov	r0, sl
   8647e:	f7fb fe2d 	bl	820dc <__aeabi_i2d>
   86482:	463a      	mov	r2, r7
   86484:	4643      	mov	r3, r8
   86486:	f7fb fe8f 	bl	821a8 <__aeabi_dmul>
   8648a:	2200      	movs	r2, #0
   8648c:	4bc1      	ldr	r3, [pc, #772]	; (86794 <_dtoa_r+0xd94>)
   8648e:	f7fb fcd9 	bl	81e44 <__adddf3>
   86492:	4605      	mov	r5, r0
   86494:	f1a1 7650 	sub.w	r6, r1, #54525952	; 0x3400000
   86498:	4641      	mov	r1, r8
   8649a:	2200      	movs	r2, #0
   8649c:	4bbe      	ldr	r3, [pc, #760]	; (86798 <_dtoa_r+0xd98>)
   8649e:	4638      	mov	r0, r7
   864a0:	f7fb fcce 	bl	81e40 <__aeabi_dsub>
   864a4:	462a      	mov	r2, r5
   864a6:	4633      	mov	r3, r6
   864a8:	4682      	mov	sl, r0
   864aa:	468b      	mov	fp, r1
   864ac:	f7fc f90c 	bl	826c8 <__aeabi_dcmpgt>
   864b0:	4680      	mov	r8, r0
   864b2:	2800      	cmp	r0, #0
   864b4:	f040 8110 	bne.w	866d8 <_dtoa_r+0xcd8>
   864b8:	462a      	mov	r2, r5
   864ba:	f106 4300 	add.w	r3, r6, #2147483648	; 0x80000000
   864be:	4650      	mov	r0, sl
   864c0:	4659      	mov	r1, fp
   864c2:	f7fc f8e3 	bl	8268c <__aeabi_dcmplt>
   864c6:	b118      	cbz	r0, 864d0 <_dtoa_r+0xad0>
   864c8:	4646      	mov	r6, r8
   864ca:	e770      	b.n	863ae <_dtoa_r+0x9ae>
   864cc:	f8dd 9048 	ldr.w	r9, [sp, #72]	; 0x48
   864d0:	e9dd ab10 	ldrd	sl, fp, [sp, #64]	; 0x40
   864d4:	f7ff bb8f 	b.w	85bf6 <_dtoa_r+0x1f6>
   864d8:	9804      	ldr	r0, [sp, #16]
   864da:	f7ff bac0 	b.w	85a5e <_dtoa_r+0x5e>
   864de:	9b0c      	ldr	r3, [sp, #48]	; 0x30
   864e0:	9a0d      	ldr	r2, [sp, #52]	; 0x34
   864e2:	1afb      	subs	r3, r7, r3
   864e4:	441a      	add	r2, r3
   864e6:	970c      	str	r7, [sp, #48]	; 0x30
   864e8:	920d      	str	r2, [sp, #52]	; 0x34
   864ea:	2700      	movs	r7, #0
   864ec:	e468      	b.n	85dc0 <_dtoa_r+0x3c0>
   864ee:	e9dd 2310 	ldrd	r2, r3, [sp, #64]	; 0x40
   864f2:	f04f 0a02 	mov.w	sl, #2
   864f6:	e9cd 2312 	strd	r2, r3, [sp, #72]	; 0x48
   864fa:	e656      	b.n	861aa <_dtoa_r+0x7aa>
   864fc:	2100      	movs	r1, #0
   864fe:	2301      	movs	r3, #1
   86500:	4620      	mov	r0, r4
   86502:	6461      	str	r1, [r4, #68]	; 0x44
   86504:	9325      	str	r3, [sp, #148]	; 0x94
   86506:	f001 f811 	bl	8752c <_Balloc>
   8650a:	9b25      	ldr	r3, [sp, #148]	; 0x94
   8650c:	9004      	str	r0, [sp, #16]
   8650e:	9307      	str	r3, [sp, #28]
   86510:	9b25      	ldr	r3, [sp, #148]	; 0x94
   86512:	6420      	str	r0, [r4, #64]	; 0x40
   86514:	930f      	str	r3, [sp, #60]	; 0x3c
   86516:	e627      	b.n	86168 <_dtoa_r+0x768>
   86518:	2a00      	cmp	r2, #0
   8651a:	46d0      	mov	r8, sl
   8651c:	f8cd b020 	str.w	fp, [sp, #32]
   86520:	469a      	mov	sl, r3
   86522:	dd11      	ble.n	86548 <_dtoa_r+0xb48>
   86524:	4649      	mov	r1, r9
   86526:	2201      	movs	r2, #1
   86528:	4620      	mov	r0, r4
   8652a:	f001 f9ad 	bl	87888 <__lshift>
   8652e:	4641      	mov	r1, r8
   86530:	4681      	mov	r9, r0
   86532:	f001 f9f9 	bl	87928 <__mcmp>
   86536:	2800      	cmp	r0, #0
   86538:	f340 8145 	ble.w	867c6 <_dtoa_r+0xdc6>
   8653c:	f1ba 0f39 	cmp.w	sl, #57	; 0x39
   86540:	f000 8105 	beq.w	8674e <_dtoa_r+0xd4e>
   86544:	f105 0a31 	add.w	sl, r5, #49	; 0x31
   86548:	46b3      	mov	fp, r6
   8654a:	f887 a000 	strb.w	sl, [r7]
   8654e:	1c7d      	adds	r5, r7, #1
   86550:	9e08      	ldr	r6, [sp, #32]
   86552:	e5d0      	b.n	860f6 <_dtoa_r+0x6f6>
   86554:	d104      	bne.n	86560 <_dtoa_r+0xb60>
   86556:	f01a 0f01 	tst.w	sl, #1
   8655a:	d001      	beq.n	86560 <_dtoa_r+0xb60>
   8655c:	e5bb      	b.n	860d6 <_dtoa_r+0x6d6>
   8655e:	4615      	mov	r5, r2
   86560:	f815 3c01 	ldrb.w	r3, [r5, #-1]
   86564:	1e6a      	subs	r2, r5, #1
   86566:	2b30      	cmp	r3, #48	; 0x30
   86568:	d0f9      	beq.n	8655e <_dtoa_r+0xb5e>
   8656a:	e5c4      	b.n	860f6 <_dtoa_r+0x6f6>
   8656c:	2230      	movs	r2, #48	; 0x30
   8656e:	9904      	ldr	r1, [sp, #16]
   86570:	700a      	strb	r2, [r1, #0]
   86572:	9a02      	ldr	r2, [sp, #8]
   86574:	f815 8c01 	ldrb.w	r8, [r5, #-1]
   86578:	3201      	adds	r2, #1
   8657a:	9202      	str	r2, [sp, #8]
   8657c:	f7ff bbfb 	b.w	85d76 <_dtoa_r+0x376>
   86580:	f000 80bb 	beq.w	866fa <_dtoa_r+0xcfa>
   86584:	e9dd 0110 	ldrd	r0, r1, [sp, #64]	; 0x40
   86588:	9b02      	ldr	r3, [sp, #8]
   8658a:	f04f 0a02 	mov.w	sl, #2
   8658e:	425d      	negs	r5, r3
   86590:	4b82      	ldr	r3, [pc, #520]	; (8679c <_dtoa_r+0xd9c>)
   86592:	f005 020f 	and.w	r2, r5, #15
   86596:	eb03 03c2 	add.w	r3, r3, r2, lsl #3
   8659a:	e9d3 2300 	ldrd	r2, r3, [r3]
   8659e:	f7fb fe03 	bl	821a8 <__aeabi_dmul>
   865a2:	112d      	asrs	r5, r5, #4
   865a4:	4607      	mov	r7, r0
   865a6:	4688      	mov	r8, r1
   865a8:	f43f ae1a 	beq.w	861e0 <_dtoa_r+0x7e0>
   865ac:	4e7c      	ldr	r6, [pc, #496]	; (867a0 <_dtoa_r+0xda0>)
   865ae:	07eb      	lsls	r3, r5, #31
   865b0:	d509      	bpl.n	865c6 <_dtoa_r+0xbc6>
   865b2:	e9d6 2300 	ldrd	r2, r3, [r6]
   865b6:	4638      	mov	r0, r7
   865b8:	4641      	mov	r1, r8
   865ba:	f7fb fdf5 	bl	821a8 <__aeabi_dmul>
   865be:	4607      	mov	r7, r0
   865c0:	4688      	mov	r8, r1
   865c2:	f10a 0a01 	add.w	sl, sl, #1
   865c6:	106d      	asrs	r5, r5, #1
   865c8:	f106 0608 	add.w	r6, r6, #8
   865cc:	d1ef      	bne.n	865ae <_dtoa_r+0xbae>
   865ce:	e607      	b.n	861e0 <_dtoa_r+0x7e0>
   865d0:	6871      	ldr	r1, [r6, #4]
   865d2:	4620      	mov	r0, r4
   865d4:	f000 ffaa 	bl	8752c <_Balloc>
   865d8:	4605      	mov	r5, r0
   865da:	6933      	ldr	r3, [r6, #16]
   865dc:	f106 010c 	add.w	r1, r6, #12
   865e0:	3302      	adds	r3, #2
   865e2:	009a      	lsls	r2, r3, #2
   865e4:	300c      	adds	r0, #12
   865e6:	f000 fec7 	bl	87378 <memcpy>
   865ea:	4629      	mov	r1, r5
   865ec:	2201      	movs	r2, #1
   865ee:	4620      	mov	r0, r4
   865f0:	f001 f94a 	bl	87888 <__lshift>
   865f4:	9008      	str	r0, [sp, #32]
   865f6:	e4b6      	b.n	85f66 <_dtoa_r+0x566>
   865f8:	2b39      	cmp	r3, #57	; 0x39
   865fa:	f8cd b020 	str.w	fp, [sp, #32]
   865fe:	46d0      	mov	r8, sl
   86600:	f000 80a5 	beq.w	8674e <_dtoa_r+0xd4e>
   86604:	f103 0a01 	add.w	sl, r3, #1
   86608:	46b3      	mov	fp, r6
   8660a:	f887 a000 	strb.w	sl, [r7]
   8660e:	1c7d      	adds	r5, r7, #1
   86610:	9e08      	ldr	r6, [sp, #32]
   86612:	e570      	b.n	860f6 <_dtoa_r+0x6f6>
   86614:	465a      	mov	r2, fp
   86616:	46d0      	mov	r8, sl
   86618:	46b3      	mov	fp, r6
   8661a:	469a      	mov	sl, r3
   8661c:	4616      	mov	r6, r2
   8661e:	e54e      	b.n	860be <_dtoa_r+0x6be>
   86620:	9812      	ldr	r0, [sp, #72]	; 0x48
   86622:	495e      	ldr	r1, [pc, #376]	; (8679c <_dtoa_r+0xd9c>)
   86624:	462a      	mov	r2, r5
   86626:	eb01 01c0 	add.w	r1, r1, r0, lsl #3
   8662a:	4633      	mov	r3, r6
   8662c:	e951 0102 	ldrd	r0, r1, [r1, #-8]
   86630:	f7fb fdba 	bl	821a8 <__aeabi_dmul>
   86634:	e9cd 0116 	strd	r0, r1, [sp, #88]	; 0x58
   86638:	4638      	mov	r0, r7
   8663a:	4641      	mov	r1, r8
   8663c:	f001 fee6 	bl	8840c <__aeabi_d2iz>
   86640:	4605      	mov	r5, r0
   86642:	f7fb fd4b 	bl	820dc <__aeabi_i2d>
   86646:	4602      	mov	r2, r0
   86648:	460b      	mov	r3, r1
   8664a:	4638      	mov	r0, r7
   8664c:	4641      	mov	r1, r8
   8664e:	f7fb fbf7 	bl	81e40 <__aeabi_dsub>
   86652:	4606      	mov	r6, r0
   86654:	9812      	ldr	r0, [sp, #72]	; 0x48
   86656:	9a04      	ldr	r2, [sp, #16]
   86658:	3530      	adds	r5, #48	; 0x30
   8665a:	2801      	cmp	r0, #1
   8665c:	7015      	strb	r5, [r2, #0]
   8665e:	460f      	mov	r7, r1
   86660:	f102 0501 	add.w	r5, r2, #1
   86664:	d026      	beq.n	866b4 <_dtoa_r+0xcb4>
   86666:	9b12      	ldr	r3, [sp, #72]	; 0x48
   86668:	9a04      	ldr	r2, [sp, #16]
   8666a:	f8cd 9048 	str.w	r9, [sp, #72]	; 0x48
   8666e:	4413      	add	r3, r2
   86670:	f04f 0a00 	mov.w	sl, #0
   86674:	4699      	mov	r9, r3
   86676:	f8df b130 	ldr.w	fp, [pc, #304]	; 867a8 <_dtoa_r+0xda8>
   8667a:	4652      	mov	r2, sl
   8667c:	465b      	mov	r3, fp
   8667e:	4630      	mov	r0, r6
   86680:	4639      	mov	r1, r7
   86682:	f7fb fd91 	bl	821a8 <__aeabi_dmul>
   86686:	460f      	mov	r7, r1
   86688:	4606      	mov	r6, r0
   8668a:	f001 febf 	bl	8840c <__aeabi_d2iz>
   8668e:	4680      	mov	r8, r0
   86690:	f7fb fd24 	bl	820dc <__aeabi_i2d>
   86694:	4602      	mov	r2, r0
   86696:	460b      	mov	r3, r1
   86698:	4630      	mov	r0, r6
   8669a:	4639      	mov	r1, r7
   8669c:	f7fb fbd0 	bl	81e40 <__aeabi_dsub>
   866a0:	f108 0830 	add.w	r8, r8, #48	; 0x30
   866a4:	f805 8b01 	strb.w	r8, [r5], #1
   866a8:	454d      	cmp	r5, r9
   866aa:	4606      	mov	r6, r0
   866ac:	460f      	mov	r7, r1
   866ae:	d1e4      	bne.n	8667a <_dtoa_r+0xc7a>
   866b0:	f8dd 9048 	ldr.w	r9, [sp, #72]	; 0x48
   866b4:	2200      	movs	r2, #0
   866b6:	e9dd 0116 	ldrd	r0, r1, [sp, #88]	; 0x58
   866ba:	4b3a      	ldr	r3, [pc, #232]	; (867a4 <_dtoa_r+0xda4>)
   866bc:	f7fb fbc2 	bl	81e44 <__adddf3>
   866c0:	4632      	mov	r2, r6
   866c2:	463b      	mov	r3, r7
   866c4:	f7fb ffe2 	bl	8268c <__aeabi_dcmplt>
   866c8:	2800      	cmp	r0, #0
   866ca:	d046      	beq.n	8675a <_dtoa_r+0xd5a>
   866cc:	9b15      	ldr	r3, [sp, #84]	; 0x54
   866ce:	9302      	str	r3, [sp, #8]
   866d0:	f815 8c01 	ldrb.w	r8, [r5, #-1]
   866d4:	f7ff bb42 	b.w	85d5c <_dtoa_r+0x35c>
   866d8:	f04f 0800 	mov.w	r8, #0
   866dc:	4646      	mov	r6, r8
   866de:	e6a8      	b.n	86432 <_dtoa_r+0xa32>
   866e0:	9b0a      	ldr	r3, [sp, #40]	; 0x28
   866e2:	9a07      	ldr	r2, [sp, #28]
   866e4:	1a9d      	subs	r5, r3, r2
   866e6:	2300      	movs	r3, #0
   866e8:	f7ff bb70 	b.w	85dcc <_dtoa_r+0x3cc>
   866ec:	9b18      	ldr	r3, [sp, #96]	; 0x60
   866ee:	9f0c      	ldr	r7, [sp, #48]	; 0x30
   866f0:	f1c3 0336 	rsb	r3, r3, #54	; 0x36
   866f4:	9d0a      	ldr	r5, [sp, #40]	; 0x28
   866f6:	f7ff bb69 	b.w	85dcc <_dtoa_r+0x3cc>
   866fa:	e9dd 7810 	ldrd	r7, r8, [sp, #64]	; 0x40
   866fe:	f04f 0a02 	mov.w	sl, #2
   86702:	e56d      	b.n	861e0 <_dtoa_r+0x7e0>
   86704:	9b07      	ldr	r3, [sp, #28]
   86706:	2b00      	cmp	r3, #0
   86708:	f43f aeb8 	beq.w	8647c <_dtoa_r+0xa7c>
   8670c:	9b0f      	ldr	r3, [sp, #60]	; 0x3c
   8670e:	2b00      	cmp	r3, #0
   86710:	f77f aede 	ble.w	864d0 <_dtoa_r+0xad0>
   86714:	2200      	movs	r2, #0
   86716:	4b24      	ldr	r3, [pc, #144]	; (867a8 <_dtoa_r+0xda8>)
   86718:	4638      	mov	r0, r7
   8671a:	4641      	mov	r1, r8
   8671c:	f7fb fd44 	bl	821a8 <__aeabi_dmul>
   86720:	4607      	mov	r7, r0
   86722:	4688      	mov	r8, r1
   86724:	f10a 0001 	add.w	r0, sl, #1
   86728:	f7fb fcd8 	bl	820dc <__aeabi_i2d>
   8672c:	463a      	mov	r2, r7
   8672e:	4643      	mov	r3, r8
   86730:	f7fb fd3a 	bl	821a8 <__aeabi_dmul>
   86734:	2200      	movs	r2, #0
   86736:	4b17      	ldr	r3, [pc, #92]	; (86794 <_dtoa_r+0xd94>)
   86738:	f7fb fb84 	bl	81e44 <__adddf3>
   8673c:	9a02      	ldr	r2, [sp, #8]
   8673e:	9b0f      	ldr	r3, [sp, #60]	; 0x3c
   86740:	3a01      	subs	r2, #1
   86742:	4605      	mov	r5, r0
   86744:	9215      	str	r2, [sp, #84]	; 0x54
   86746:	f1a1 7650 	sub.w	r6, r1, #54525952	; 0x3400000
   8674a:	9312      	str	r3, [sp, #72]	; 0x48
   8674c:	e569      	b.n	86222 <_dtoa_r+0x822>
   8674e:	2239      	movs	r2, #57	; 0x39
   86750:	46b3      	mov	fp, r6
   86752:	703a      	strb	r2, [r7, #0]
   86754:	9e08      	ldr	r6, [sp, #32]
   86756:	1c7d      	adds	r5, r7, #1
   86758:	e4bf      	b.n	860da <_dtoa_r+0x6da>
   8675a:	e9dd 2316 	ldrd	r2, r3, [sp, #88]	; 0x58
   8675e:	2000      	movs	r0, #0
   86760:	4910      	ldr	r1, [pc, #64]	; (867a4 <_dtoa_r+0xda4>)
   86762:	f7fb fb6d 	bl	81e40 <__aeabi_dsub>
   86766:	4632      	mov	r2, r6
   86768:	463b      	mov	r3, r7
   8676a:	f7fb ffad 	bl	826c8 <__aeabi_dcmpgt>
   8676e:	b908      	cbnz	r0, 86774 <_dtoa_r+0xd74>
   86770:	e6ae      	b.n	864d0 <_dtoa_r+0xad0>
   86772:	4615      	mov	r5, r2
   86774:	f815 3c01 	ldrb.w	r3, [r5, #-1]
   86778:	1e6a      	subs	r2, r5, #1
   8677a:	2b30      	cmp	r3, #48	; 0x30
   8677c:	d0f9      	beq.n	86772 <_dtoa_r+0xd72>
   8677e:	e5d7      	b.n	86330 <_dtoa_r+0x930>
   86780:	f8dd 9048 	ldr.w	r9, [sp, #72]	; 0x48
   86784:	9b15      	ldr	r3, [sp, #84]	; 0x54
   86786:	9302      	str	r3, [sp, #8]
   86788:	f7ff bae8 	b.w	85d5c <_dtoa_r+0x35c>
   8678c:	970c      	str	r7, [sp, #48]	; 0x30
   8678e:	f7ff bba7 	b.w	85ee0 <_dtoa_r+0x4e0>
   86792:	bf00      	nop
   86794:	401c0000 	.word	0x401c0000
   86798:	40140000 	.word	0x40140000
   8679c:	000888a8 	.word	0x000888a8
   867a0:	00088880 	.word	0x00088880
   867a4:	3fe00000 	.word	0x3fe00000
   867a8:	40240000 	.word	0x40240000
   867ac:	2b39      	cmp	r3, #57	; 0x39
   867ae:	f8cd b020 	str.w	fp, [sp, #32]
   867b2:	46d0      	mov	r8, sl
   867b4:	f8dd b01c 	ldr.w	fp, [sp, #28]
   867b8:	469a      	mov	sl, r3
   867ba:	d0c8      	beq.n	8674e <_dtoa_r+0xd4e>
   867bc:	f1bb 0f00 	cmp.w	fp, #0
   867c0:	f73f aec0 	bgt.w	86544 <_dtoa_r+0xb44>
   867c4:	e6c0      	b.n	86548 <_dtoa_r+0xb48>
   867c6:	f47f aebf 	bne.w	86548 <_dtoa_r+0xb48>
   867ca:	f01a 0f01 	tst.w	sl, #1
   867ce:	f43f aebb 	beq.w	86548 <_dtoa_r+0xb48>
   867d2:	e6b3      	b.n	8653c <_dtoa_r+0xb3c>
   867d4:	f04f 0800 	mov.w	r8, #0
   867d8:	4646      	mov	r6, r8
   867da:	e5e8      	b.n	863ae <_dtoa_r+0x9ae>
   867dc:	4631      	mov	r1, r6
   867de:	2300      	movs	r3, #0
   867e0:	220a      	movs	r2, #10
   867e2:	4620      	mov	r0, r4
   867e4:	f000 fed2 	bl	8758c <__multadd>
   867e8:	9b0f      	ldr	r3, [sp, #60]	; 0x3c
   867ea:	4606      	mov	r6, r0
   867ec:	2b00      	cmp	r3, #0
   867ee:	dd07      	ble.n	86800 <_dtoa_r+0xe00>
   867f0:	9307      	str	r3, [sp, #28]
   867f2:	f7ff bbab 	b.w	85f4c <_dtoa_r+0x54c>
   867f6:	9b24      	ldr	r3, [sp, #144]	; 0x90
   867f8:	2b02      	cmp	r3, #2
   867fa:	dc1f      	bgt.n	8683c <_dtoa_r+0xe3c>
   867fc:	9b0f      	ldr	r3, [sp, #60]	; 0x3c
   867fe:	e43c      	b.n	8607a <_dtoa_r+0x67a>
   86800:	9b24      	ldr	r3, [sp, #144]	; 0x90
   86802:	2b02      	cmp	r3, #2
   86804:	dc1a      	bgt.n	8683c <_dtoa_r+0xe3c>
   86806:	9b0f      	ldr	r3, [sp, #60]	; 0x3c
   86808:	e7f2      	b.n	867f0 <_dtoa_r+0xdf0>
   8680a:	f43f ab81 	beq.w	85f10 <_dtoa_r+0x510>
   8680e:	f1c0 003c 	rsb	r0, r0, #60	; 0x3c
   86812:	e411      	b.n	86038 <_dtoa_r+0x638>
   86814:	2500      	movs	r5, #0
   86816:	4620      	mov	r0, r4
   86818:	6465      	str	r5, [r4, #68]	; 0x44
   8681a:	4629      	mov	r1, r5
   8681c:	f000 fe86 	bl	8752c <_Balloc>
   86820:	f04f 33ff 	mov.w	r3, #4294967295
   86824:	9307      	str	r3, [sp, #28]
   86826:	930f      	str	r3, [sp, #60]	; 0x3c
   86828:	2301      	movs	r3, #1
   8682a:	9004      	str	r0, [sp, #16]
   8682c:	9525      	str	r5, [sp, #148]	; 0x94
   8682e:	6420      	str	r0, [r4, #64]	; 0x40
   86830:	930b      	str	r3, [sp, #44]	; 0x2c
   86832:	f7ff b9e0 	b.w	85bf6 <_dtoa_r+0x1f6>
   86836:	2501      	movs	r5, #1
   86838:	f7ff b9a8 	b.w	85b8c <_dtoa_r+0x18c>
   8683c:	9b0f      	ldr	r3, [sp, #60]	; 0x3c
   8683e:	9307      	str	r3, [sp, #28]
   86840:	e5e8      	b.n	86414 <_dtoa_r+0xa14>
   86842:	bf00      	nop

00086844 <__sflush_r>:
   86844:	f9b1 300c 	ldrsh.w	r3, [r1, #12]
   86848:	e92d 41f0 	stmdb	sp!, {r4, r5, r6, r7, r8, lr}
   8684c:	b29a      	uxth	r2, r3
   8684e:	460d      	mov	r5, r1
   86850:	0711      	lsls	r1, r2, #28
   86852:	4680      	mov	r8, r0
   86854:	d43a      	bmi.n	868cc <__sflush_r+0x88>
   86856:	686a      	ldr	r2, [r5, #4]
   86858:	f443 6300 	orr.w	r3, r3, #2048	; 0x800
   8685c:	2a00      	cmp	r2, #0
   8685e:	81ab      	strh	r3, [r5, #12]
   86860:	dd70      	ble.n	86944 <__sflush_r+0x100>
   86862:	6aac      	ldr	r4, [r5, #40]	; 0x28
   86864:	2c00      	cmp	r4, #0
   86866:	d04a      	beq.n	868fe <__sflush_r+0xba>
   86868:	2200      	movs	r2, #0
   8686a:	b29b      	uxth	r3, r3
   8686c:	f8d8 6000 	ldr.w	r6, [r8]
   86870:	f8c8 2000 	str.w	r2, [r8]
   86874:	f413 5280 	ands.w	r2, r3, #4096	; 0x1000
   86878:	d068      	beq.n	8694c <__sflush_r+0x108>
   8687a:	6d2a      	ldr	r2, [r5, #80]	; 0x50
   8687c:	075f      	lsls	r7, r3, #29
   8687e:	d505      	bpl.n	8688c <__sflush_r+0x48>
   86880:	6869      	ldr	r1, [r5, #4]
   86882:	6b2b      	ldr	r3, [r5, #48]	; 0x30
   86884:	1a52      	subs	r2, r2, r1
   86886:	b10b      	cbz	r3, 8688c <__sflush_r+0x48>
   86888:	6beb      	ldr	r3, [r5, #60]	; 0x3c
   8688a:	1ad2      	subs	r2, r2, r3
   8688c:	2300      	movs	r3, #0
   8688e:	69e9      	ldr	r1, [r5, #28]
   86890:	4640      	mov	r0, r8
   86892:	47a0      	blx	r4
   86894:	1c44      	adds	r4, r0, #1
   86896:	d03d      	beq.n	86914 <__sflush_r+0xd0>
   86898:	2100      	movs	r1, #0
   8689a:	f9b5 300c 	ldrsh.w	r3, [r5, #12]
   8689e:	692a      	ldr	r2, [r5, #16]
   868a0:	f423 6300 	bic.w	r3, r3, #2048	; 0x800
   868a4:	81ab      	strh	r3, [r5, #12]
   868a6:	04db      	lsls	r3, r3, #19
   868a8:	6069      	str	r1, [r5, #4]
   868aa:	602a      	str	r2, [r5, #0]
   868ac:	d448      	bmi.n	86940 <__sflush_r+0xfc>
   868ae:	6b29      	ldr	r1, [r5, #48]	; 0x30
   868b0:	f8c8 6000 	str.w	r6, [r8]
   868b4:	b319      	cbz	r1, 868fe <__sflush_r+0xba>
   868b6:	f105 0340 	add.w	r3, r5, #64	; 0x40
   868ba:	4299      	cmp	r1, r3
   868bc:	d002      	beq.n	868c4 <__sflush_r+0x80>
   868be:	4640      	mov	r0, r8
   868c0:	f000 f9da 	bl	86c78 <_free_r>
   868c4:	2000      	movs	r0, #0
   868c6:	6328      	str	r0, [r5, #48]	; 0x30
   868c8:	e8bd 81f0 	ldmia.w	sp!, {r4, r5, r6, r7, r8, pc}
   868cc:	692e      	ldr	r6, [r5, #16]
   868ce:	b1b6      	cbz	r6, 868fe <__sflush_r+0xba>
   868d0:	0791      	lsls	r1, r2, #30
   868d2:	bf18      	it	ne
   868d4:	2300      	movne	r3, #0
   868d6:	682c      	ldr	r4, [r5, #0]
   868d8:	bf08      	it	eq
   868da:	696b      	ldreq	r3, [r5, #20]
   868dc:	602e      	str	r6, [r5, #0]
   868de:	1ba4      	subs	r4, r4, r6
   868e0:	60ab      	str	r3, [r5, #8]
   868e2:	e00a      	b.n	868fa <__sflush_r+0xb6>
   868e4:	4623      	mov	r3, r4
   868e6:	4632      	mov	r2, r6
   868e8:	6a6f      	ldr	r7, [r5, #36]	; 0x24
   868ea:	69e9      	ldr	r1, [r5, #28]
   868ec:	4640      	mov	r0, r8
   868ee:	47b8      	blx	r7
   868f0:	2800      	cmp	r0, #0
   868f2:	eba4 0400 	sub.w	r4, r4, r0
   868f6:	4406      	add	r6, r0
   868f8:	dd04      	ble.n	86904 <__sflush_r+0xc0>
   868fa:	2c00      	cmp	r4, #0
   868fc:	dcf2      	bgt.n	868e4 <__sflush_r+0xa0>
   868fe:	2000      	movs	r0, #0
   86900:	e8bd 81f0 	ldmia.w	sp!, {r4, r5, r6, r7, r8, pc}
   86904:	89ab      	ldrh	r3, [r5, #12]
   86906:	f04f 30ff 	mov.w	r0, #4294967295
   8690a:	f043 0340 	orr.w	r3, r3, #64	; 0x40
   8690e:	81ab      	strh	r3, [r5, #12]
   86910:	e8bd 81f0 	ldmia.w	sp!, {r4, r5, r6, r7, r8, pc}
   86914:	f8d8 4000 	ldr.w	r4, [r8]
   86918:	2c1d      	cmp	r4, #29
   8691a:	d8f3      	bhi.n	86904 <__sflush_r+0xc0>
   8691c:	4b16      	ldr	r3, [pc, #88]	; (86978 <__sflush_r+0x134>)
   8691e:	40e3      	lsrs	r3, r4
   86920:	43db      	mvns	r3, r3
   86922:	f013 0301 	ands.w	r3, r3, #1
   86926:	d1ed      	bne.n	86904 <__sflush_r+0xc0>
   86928:	f9b5 200c 	ldrsh.w	r2, [r5, #12]
   8692c:	6929      	ldr	r1, [r5, #16]
   8692e:	f422 6200 	bic.w	r2, r2, #2048	; 0x800
   86932:	81aa      	strh	r2, [r5, #12]
   86934:	04d2      	lsls	r2, r2, #19
   86936:	606b      	str	r3, [r5, #4]
   86938:	6029      	str	r1, [r5, #0]
   8693a:	d5b8      	bpl.n	868ae <__sflush_r+0x6a>
   8693c:	2c00      	cmp	r4, #0
   8693e:	d1b6      	bne.n	868ae <__sflush_r+0x6a>
   86940:	6528      	str	r0, [r5, #80]	; 0x50
   86942:	e7b4      	b.n	868ae <__sflush_r+0x6a>
   86944:	6bea      	ldr	r2, [r5, #60]	; 0x3c
   86946:	2a00      	cmp	r2, #0
   86948:	dc8b      	bgt.n	86862 <__sflush_r+0x1e>
   8694a:	e7d8      	b.n	868fe <__sflush_r+0xba>
   8694c:	2301      	movs	r3, #1
   8694e:	69e9      	ldr	r1, [r5, #28]
   86950:	4640      	mov	r0, r8
   86952:	47a0      	blx	r4
   86954:	1c43      	adds	r3, r0, #1
   86956:	4602      	mov	r2, r0
   86958:	d002      	beq.n	86960 <__sflush_r+0x11c>
   8695a:	89ab      	ldrh	r3, [r5, #12]
   8695c:	6aac      	ldr	r4, [r5, #40]	; 0x28
   8695e:	e78d      	b.n	8687c <__sflush_r+0x38>
   86960:	f8d8 3000 	ldr.w	r3, [r8]
   86964:	2b00      	cmp	r3, #0
   86966:	d0f8      	beq.n	8695a <__sflush_r+0x116>
   86968:	2b1d      	cmp	r3, #29
   8696a:	d001      	beq.n	86970 <__sflush_r+0x12c>
   8696c:	2b16      	cmp	r3, #22
   8696e:	d1c9      	bne.n	86904 <__sflush_r+0xc0>
   86970:	f8c8 6000 	str.w	r6, [r8]
   86974:	e7c3      	b.n	868fe <__sflush_r+0xba>
   86976:	bf00      	nop
   86978:	20400001 	.word	0x20400001

0008697c <_fflush_r>:
   8697c:	b538      	push	{r3, r4, r5, lr}
   8697e:	460d      	mov	r5, r1
   86980:	4604      	mov	r4, r0
   86982:	b108      	cbz	r0, 86988 <_fflush_r+0xc>
   86984:	6b83      	ldr	r3, [r0, #56]	; 0x38
   86986:	b1bb      	cbz	r3, 869b8 <_fflush_r+0x3c>
   86988:	f9b5 000c 	ldrsh.w	r0, [r5, #12]
   8698c:	b188      	cbz	r0, 869b2 <_fflush_r+0x36>
   8698e:	6e6b      	ldr	r3, [r5, #100]	; 0x64
   86990:	07db      	lsls	r3, r3, #31
   86992:	d401      	bmi.n	86998 <_fflush_r+0x1c>
   86994:	0581      	lsls	r1, r0, #22
   86996:	d517      	bpl.n	869c8 <_fflush_r+0x4c>
   86998:	4620      	mov	r0, r4
   8699a:	4629      	mov	r1, r5
   8699c:	f7ff ff52 	bl	86844 <__sflush_r>
   869a0:	6e6b      	ldr	r3, [r5, #100]	; 0x64
   869a2:	4604      	mov	r4, r0
   869a4:	07da      	lsls	r2, r3, #31
   869a6:	d402      	bmi.n	869ae <_fflush_r+0x32>
   869a8:	89ab      	ldrh	r3, [r5, #12]
   869aa:	059b      	lsls	r3, r3, #22
   869ac:	d507      	bpl.n	869be <_fflush_r+0x42>
   869ae:	4620      	mov	r0, r4
   869b0:	bd38      	pop	{r3, r4, r5, pc}
   869b2:	4604      	mov	r4, r0
   869b4:	4620      	mov	r0, r4
   869b6:	bd38      	pop	{r3, r4, r5, pc}
   869b8:	f000 f838 	bl	86a2c <__sinit>
   869bc:	e7e4      	b.n	86988 <_fflush_r+0xc>
   869be:	6da8      	ldr	r0, [r5, #88]	; 0x58
   869c0:	f000 fc04 	bl	871cc <__retarget_lock_release_recursive>
   869c4:	4620      	mov	r0, r4
   869c6:	bd38      	pop	{r3, r4, r5, pc}
   869c8:	6da8      	ldr	r0, [r5, #88]	; 0x58
   869ca:	f000 fbfd 	bl	871c8 <__retarget_lock_acquire_recursive>
   869ce:	e7e3      	b.n	86998 <_fflush_r+0x1c>

000869d0 <_cleanup_r>:
   869d0:	4901      	ldr	r1, [pc, #4]	; (869d8 <_cleanup_r+0x8>)
   869d2:	f000 bbb1 	b.w	87138 <_fwalk_reent>
   869d6:	bf00      	nop
   869d8:	000882a5 	.word	0x000882a5

000869dc <std.isra.0>:
   869dc:	2300      	movs	r3, #0
   869de:	b510      	push	{r4, lr}
   869e0:	4604      	mov	r4, r0
   869e2:	8181      	strh	r1, [r0, #12]
   869e4:	81c2      	strh	r2, [r0, #14]
   869e6:	6003      	str	r3, [r0, #0]
   869e8:	6043      	str	r3, [r0, #4]
   869ea:	6083      	str	r3, [r0, #8]
   869ec:	6643      	str	r3, [r0, #100]	; 0x64
   869ee:	6103      	str	r3, [r0, #16]
   869f0:	6143      	str	r3, [r0, #20]
   869f2:	6183      	str	r3, [r0, #24]
   869f4:	4619      	mov	r1, r3
   869f6:	2208      	movs	r2, #8
   869f8:	305c      	adds	r0, #92	; 0x5c
   869fa:	f7fc fc1f 	bl	8323c <memset>
   869fe:	4807      	ldr	r0, [pc, #28]	; (86a1c <std.isra.0+0x40>)
   86a00:	4907      	ldr	r1, [pc, #28]	; (86a20 <std.isra.0+0x44>)
   86a02:	4a08      	ldr	r2, [pc, #32]	; (86a24 <std.isra.0+0x48>)
   86a04:	4b08      	ldr	r3, [pc, #32]	; (86a28 <std.isra.0+0x4c>)
   86a06:	6220      	str	r0, [r4, #32]
   86a08:	61e4      	str	r4, [r4, #28]
   86a0a:	6261      	str	r1, [r4, #36]	; 0x24
   86a0c:	62a2      	str	r2, [r4, #40]	; 0x28
   86a0e:	62e3      	str	r3, [r4, #44]	; 0x2c
   86a10:	f104 0058 	add.w	r0, r4, #88	; 0x58
   86a14:	e8bd 4010 	ldmia.w	sp!, {r4, lr}
   86a18:	f000 bbd2 	b.w	871c0 <__retarget_lock_init_recursive>
   86a1c:	00087e91 	.word	0x00087e91
   86a20:	00087eb5 	.word	0x00087eb5
   86a24:	00087ef1 	.word	0x00087ef1
   86a28:	00087f11 	.word	0x00087f11

00086a2c <__sinit>:
   86a2c:	b510      	push	{r4, lr}
   86a2e:	4604      	mov	r4, r0
   86a30:	4814      	ldr	r0, [pc, #80]	; (86a84 <__sinit+0x58>)
   86a32:	f000 fbc9 	bl	871c8 <__retarget_lock_acquire_recursive>
   86a36:	6ba2      	ldr	r2, [r4, #56]	; 0x38
   86a38:	b9fa      	cbnz	r2, 86a7a <__sinit+0x4e>
   86a3a:	2003      	movs	r0, #3
   86a3c:	4912      	ldr	r1, [pc, #72]	; (86a88 <__sinit+0x5c>)
   86a3e:	f504 733b 	add.w	r3, r4, #748	; 0x2ec
   86a42:	f8c4 32e8 	str.w	r3, [r4, #744]	; 0x2e8
   86a46:	f8c4 22e0 	str.w	r2, [r4, #736]	; 0x2e0
   86a4a:	f8c4 02e4 	str.w	r0, [r4, #740]	; 0x2e4
   86a4e:	63e1      	str	r1, [r4, #60]	; 0x3c
   86a50:	6860      	ldr	r0, [r4, #4]
   86a52:	2104      	movs	r1, #4
   86a54:	f7ff ffc2 	bl	869dc <std.isra.0>
   86a58:	68a0      	ldr	r0, [r4, #8]
   86a5a:	2201      	movs	r2, #1
   86a5c:	2109      	movs	r1, #9
   86a5e:	f7ff ffbd 	bl	869dc <std.isra.0>
   86a62:	68e0      	ldr	r0, [r4, #12]
   86a64:	2202      	movs	r2, #2
   86a66:	2112      	movs	r1, #18
   86a68:	f7ff ffb8 	bl	869dc <std.isra.0>
   86a6c:	2301      	movs	r3, #1
   86a6e:	4805      	ldr	r0, [pc, #20]	; (86a84 <__sinit+0x58>)
   86a70:	63a3      	str	r3, [r4, #56]	; 0x38
   86a72:	e8bd 4010 	ldmia.w	sp!, {r4, lr}
   86a76:	f000 bba9 	b.w	871cc <__retarget_lock_release_recursive>
   86a7a:	4802      	ldr	r0, [pc, #8]	; (86a84 <__sinit+0x58>)
   86a7c:	e8bd 4010 	ldmia.w	sp!, {r4, lr}
   86a80:	f000 bba4 	b.w	871cc <__retarget_lock_release_recursive>
   86a84:	20072768 	.word	0x20072768
   86a88:	000869d1 	.word	0x000869d1

00086a8c <__sfp_lock_acquire>:
   86a8c:	4801      	ldr	r0, [pc, #4]	; (86a94 <__sfp_lock_acquire+0x8>)
   86a8e:	f000 bb9b 	b.w	871c8 <__retarget_lock_acquire_recursive>
   86a92:	bf00      	nop
   86a94:	2007277c 	.word	0x2007277c

00086a98 <__sfp_lock_release>:
   86a98:	4801      	ldr	r0, [pc, #4]	; (86aa0 <__sfp_lock_release+0x8>)
   86a9a:	f000 bb97 	b.w	871cc <__retarget_lock_release_recursive>
   86a9e:	bf00      	nop
   86aa0:	2007277c 	.word	0x2007277c

00086aa4 <__libc_fini_array>:
   86aa4:	b538      	push	{r3, r4, r5, lr}
   86aa6:	4c0a      	ldr	r4, [pc, #40]	; (86ad0 <__libc_fini_array+0x2c>)
   86aa8:	4d0a      	ldr	r5, [pc, #40]	; (86ad4 <__libc_fini_array+0x30>)
   86aaa:	1b64      	subs	r4, r4, r5
   86aac:	10a4      	asrs	r4, r4, #2
   86aae:	d00a      	beq.n	86ac6 <__libc_fini_array+0x22>
   86ab0:	f104 4380 	add.w	r3, r4, #1073741824	; 0x40000000
   86ab4:	3b01      	subs	r3, #1
   86ab6:	eb05 0583 	add.w	r5, r5, r3, lsl #2
   86aba:	3c01      	subs	r4, #1
   86abc:	f855 3904 	ldr.w	r3, [r5], #-4
   86ac0:	4798      	blx	r3
   86ac2:	2c00      	cmp	r4, #0
   86ac4:	d1f9      	bne.n	86aba <__libc_fini_array+0x16>
   86ac6:	e8bd 4038 	ldmia.w	sp!, {r3, r4, r5, lr}
   86aca:	f001 bfe3 	b.w	88a94 <_fini>
   86ace:	bf00      	nop
   86ad0:	00088aa4 	.word	0x00088aa4
   86ad4:	00088aa0 	.word	0x00088aa0

00086ad8 <__fputwc>:
   86ad8:	e92d 43f0 	stmdb	sp!, {r4, r5, r6, r7, r8, r9, lr}
   86adc:	b083      	sub	sp, #12
   86ade:	4607      	mov	r7, r0
   86ae0:	4688      	mov	r8, r1
   86ae2:	4614      	mov	r4, r2
   86ae4:	f000 fb50 	bl	87188 <__locale_mb_cur_max>
   86ae8:	2801      	cmp	r0, #1
   86aea:	d033      	beq.n	86b54 <__fputwc+0x7c>
   86aec:	4642      	mov	r2, r8
   86aee:	f104 035c 	add.w	r3, r4, #92	; 0x5c
   86af2:	a901      	add	r1, sp, #4
   86af4:	4638      	mov	r0, r7
   86af6:	f001 fae5 	bl	880c4 <_wcrtomb_r>
   86afa:	1c42      	adds	r2, r0, #1
   86afc:	4606      	mov	r6, r0
   86afe:	d022      	beq.n	86b46 <__fputwc+0x6e>
   86b00:	b390      	cbz	r0, 86b68 <__fputwc+0x90>
   86b02:	f89d 1004 	ldrb.w	r1, [sp, #4]
   86b06:	2500      	movs	r5, #0
   86b08:	f10d 0904 	add.w	r9, sp, #4
   86b0c:	e008      	b.n	86b20 <__fputwc+0x48>
   86b0e:	6823      	ldr	r3, [r4, #0]
   86b10:	1c5a      	adds	r2, r3, #1
   86b12:	6022      	str	r2, [r4, #0]
   86b14:	7019      	strb	r1, [r3, #0]
   86b16:	3501      	adds	r5, #1
   86b18:	42b5      	cmp	r5, r6
   86b1a:	d225      	bcs.n	86b68 <__fputwc+0x90>
   86b1c:	f815 1009 	ldrb.w	r1, [r5, r9]
   86b20:	68a3      	ldr	r3, [r4, #8]
   86b22:	3b01      	subs	r3, #1
   86b24:	2b00      	cmp	r3, #0
   86b26:	60a3      	str	r3, [r4, #8]
   86b28:	daf1      	bge.n	86b0e <__fputwc+0x36>
   86b2a:	69a2      	ldr	r2, [r4, #24]
   86b2c:	4293      	cmp	r3, r2
   86b2e:	db01      	blt.n	86b34 <__fputwc+0x5c>
   86b30:	290a      	cmp	r1, #10
   86b32:	d1ec      	bne.n	86b0e <__fputwc+0x36>
   86b34:	4622      	mov	r2, r4
   86b36:	4638      	mov	r0, r7
   86b38:	f001 fa6c 	bl	88014 <__swbuf_r>
   86b3c:	1c43      	adds	r3, r0, #1
   86b3e:	d1ea      	bne.n	86b16 <__fputwc+0x3e>
   86b40:	b003      	add	sp, #12
   86b42:	e8bd 83f0 	ldmia.w	sp!, {r4, r5, r6, r7, r8, r9, pc}
   86b46:	89a3      	ldrh	r3, [r4, #12]
   86b48:	f043 0340 	orr.w	r3, r3, #64	; 0x40
   86b4c:	81a3      	strh	r3, [r4, #12]
   86b4e:	b003      	add	sp, #12
   86b50:	e8bd 83f0 	ldmia.w	sp!, {r4, r5, r6, r7, r8, r9, pc}
   86b54:	f108 33ff 	add.w	r3, r8, #4294967295
   86b58:	2bfe      	cmp	r3, #254	; 0xfe
   86b5a:	d8c7      	bhi.n	86aec <__fputwc+0x14>
   86b5c:	fa5f f188 	uxtb.w	r1, r8
   86b60:	4606      	mov	r6, r0
   86b62:	f88d 1004 	strb.w	r1, [sp, #4]
   86b66:	e7ce      	b.n	86b06 <__fputwc+0x2e>
   86b68:	4640      	mov	r0, r8
   86b6a:	b003      	add	sp, #12
   86b6c:	e8bd 83f0 	ldmia.w	sp!, {r4, r5, r6, r7, r8, r9, pc}

00086b70 <_fputwc_r>:
   86b70:	b530      	push	{r4, r5, lr}
   86b72:	6e53      	ldr	r3, [r2, #100]	; 0x64
   86b74:	4614      	mov	r4, r2
   86b76:	f013 0f01 	tst.w	r3, #1
   86b7a:	f9b2 300c 	ldrsh.w	r3, [r2, #12]
   86b7e:	b083      	sub	sp, #12
   86b80:	4605      	mov	r5, r0
   86b82:	b29a      	uxth	r2, r3
   86b84:	d101      	bne.n	86b8a <_fputwc_r+0x1a>
   86b86:	0590      	lsls	r0, r2, #22
   86b88:	d51c      	bpl.n	86bc4 <_fputwc_r+0x54>
   86b8a:	0490      	lsls	r0, r2, #18
   86b8c:	d406      	bmi.n	86b9c <_fputwc_r+0x2c>
   86b8e:	6e62      	ldr	r2, [r4, #100]	; 0x64
   86b90:	f443 5300 	orr.w	r3, r3, #8192	; 0x2000
   86b94:	f442 5200 	orr.w	r2, r2, #8192	; 0x2000
   86b98:	81a3      	strh	r3, [r4, #12]
   86b9a:	6662      	str	r2, [r4, #100]	; 0x64
   86b9c:	4628      	mov	r0, r5
   86b9e:	4622      	mov	r2, r4
   86ba0:	f7ff ff9a 	bl	86ad8 <__fputwc>
   86ba4:	6e63      	ldr	r3, [r4, #100]	; 0x64
   86ba6:	4605      	mov	r5, r0
   86ba8:	07da      	lsls	r2, r3, #31
   86baa:	d402      	bmi.n	86bb2 <_fputwc_r+0x42>
   86bac:	89a3      	ldrh	r3, [r4, #12]
   86bae:	059b      	lsls	r3, r3, #22
   86bb0:	d502      	bpl.n	86bb8 <_fputwc_r+0x48>
   86bb2:	4628      	mov	r0, r5
   86bb4:	b003      	add	sp, #12
   86bb6:	bd30      	pop	{r4, r5, pc}
   86bb8:	6da0      	ldr	r0, [r4, #88]	; 0x58
   86bba:	f000 fb07 	bl	871cc <__retarget_lock_release_recursive>
   86bbe:	4628      	mov	r0, r5
   86bc0:	b003      	add	sp, #12
   86bc2:	bd30      	pop	{r4, r5, pc}
   86bc4:	6da0      	ldr	r0, [r4, #88]	; 0x58
   86bc6:	9101      	str	r1, [sp, #4]
   86bc8:	f000 fafe 	bl	871c8 <__retarget_lock_acquire_recursive>
   86bcc:	f9b4 300c 	ldrsh.w	r3, [r4, #12]
   86bd0:	9901      	ldr	r1, [sp, #4]
   86bd2:	b29a      	uxth	r2, r3
   86bd4:	e7d9      	b.n	86b8a <_fputwc_r+0x1a>
   86bd6:	bf00      	nop

00086bd8 <_malloc_trim_r>:
   86bd8:	b5f8      	push	{r3, r4, r5, r6, r7, lr}
   86bda:	460c      	mov	r4, r1
   86bdc:	4f23      	ldr	r7, [pc, #140]	; (86c6c <_malloc_trim_r+0x94>)
   86bde:	4606      	mov	r6, r0
   86be0:	f7fc fb7a 	bl	832d8 <__malloc_lock>
   86be4:	68bb      	ldr	r3, [r7, #8]
   86be6:	f5c4 617e 	rsb	r1, r4, #4064	; 0xfe0
   86bea:	685d      	ldr	r5, [r3, #4]
   86bec:	310f      	adds	r1, #15
   86bee:	f025 0503 	bic.w	r5, r5, #3
   86bf2:	4429      	add	r1, r5
   86bf4:	f421 617f 	bic.w	r1, r1, #4080	; 0xff0
   86bf8:	f021 010f 	bic.w	r1, r1, #15
   86bfc:	f5a1 5480 	sub.w	r4, r1, #4096	; 0x1000
   86c00:	f5b4 5f80 	cmp.w	r4, #4096	; 0x1000
   86c04:	db07      	blt.n	86c16 <_malloc_trim_r+0x3e>
   86c06:	2100      	movs	r1, #0
   86c08:	4630      	mov	r0, r6
   86c0a:	f7fc fb71 	bl	832f0 <_sbrk_r>
   86c0e:	68bb      	ldr	r3, [r7, #8]
   86c10:	442b      	add	r3, r5
   86c12:	4298      	cmp	r0, r3
   86c14:	d004      	beq.n	86c20 <_malloc_trim_r+0x48>
   86c16:	4630      	mov	r0, r6
   86c18:	f7fc fb64 	bl	832e4 <__malloc_unlock>
   86c1c:	2000      	movs	r0, #0
   86c1e:	bdf8      	pop	{r3, r4, r5, r6, r7, pc}
   86c20:	4261      	negs	r1, r4
   86c22:	4630      	mov	r0, r6
   86c24:	f7fc fb64 	bl	832f0 <_sbrk_r>
   86c28:	3001      	adds	r0, #1
   86c2a:	d00d      	beq.n	86c48 <_malloc_trim_r+0x70>
   86c2c:	4b10      	ldr	r3, [pc, #64]	; (86c70 <_malloc_trim_r+0x98>)
   86c2e:	68ba      	ldr	r2, [r7, #8]
   86c30:	6819      	ldr	r1, [r3, #0]
   86c32:	1b2d      	subs	r5, r5, r4
   86c34:	f045 0501 	orr.w	r5, r5, #1
   86c38:	4630      	mov	r0, r6
   86c3a:	1b09      	subs	r1, r1, r4
   86c3c:	6055      	str	r5, [r2, #4]
   86c3e:	6019      	str	r1, [r3, #0]
   86c40:	f7fc fb50 	bl	832e4 <__malloc_unlock>
   86c44:	2001      	movs	r0, #1
   86c46:	bdf8      	pop	{r3, r4, r5, r6, r7, pc}
   86c48:	2100      	movs	r1, #0
   86c4a:	4630      	mov	r0, r6
   86c4c:	f7fc fb50 	bl	832f0 <_sbrk_r>
   86c50:	68ba      	ldr	r2, [r7, #8]
   86c52:	1a83      	subs	r3, r0, r2
   86c54:	2b0f      	cmp	r3, #15
   86c56:	ddde      	ble.n	86c16 <_malloc_trim_r+0x3e>
   86c58:	4c06      	ldr	r4, [pc, #24]	; (86c74 <_malloc_trim_r+0x9c>)
   86c5a:	4905      	ldr	r1, [pc, #20]	; (86c70 <_malloc_trim_r+0x98>)
   86c5c:	6824      	ldr	r4, [r4, #0]
   86c5e:	f043 0301 	orr.w	r3, r3, #1
   86c62:	1b00      	subs	r0, r0, r4
   86c64:	6053      	str	r3, [r2, #4]
   86c66:	6008      	str	r0, [r1, #0]
   86c68:	e7d5      	b.n	86c16 <_malloc_trim_r+0x3e>
   86c6a:	bf00      	nop
   86c6c:	20070568 	.word	0x20070568
   86c70:	20070d08 	.word	0x20070d08
   86c74:	20070970 	.word	0x20070970

00086c78 <_free_r>:
   86c78:	2900      	cmp	r1, #0
   86c7a:	d044      	beq.n	86d06 <_free_r+0x8e>
   86c7c:	e92d 41f0 	stmdb	sp!, {r4, r5, r6, r7, r8, lr}
   86c80:	460d      	mov	r5, r1
   86c82:	4680      	mov	r8, r0
   86c84:	f7fc fb28 	bl	832d8 <__malloc_lock>
   86c88:	f855 7c04 	ldr.w	r7, [r5, #-4]
   86c8c:	4969      	ldr	r1, [pc, #420]	; (86e34 <_free_r+0x1bc>)
   86c8e:	f1a5 0408 	sub.w	r4, r5, #8
   86c92:	f027 0301 	bic.w	r3, r7, #1
   86c96:	18e2      	adds	r2, r4, r3
   86c98:	688e      	ldr	r6, [r1, #8]
   86c9a:	6850      	ldr	r0, [r2, #4]
   86c9c:	42b2      	cmp	r2, r6
   86c9e:	f020 0003 	bic.w	r0, r0, #3
   86ca2:	d05e      	beq.n	86d62 <_free_r+0xea>
   86ca4:	07fe      	lsls	r6, r7, #31
   86ca6:	6050      	str	r0, [r2, #4]
   86ca8:	d40b      	bmi.n	86cc2 <_free_r+0x4a>
   86caa:	f855 7c08 	ldr.w	r7, [r5, #-8]
   86cae:	f101 0e08 	add.w	lr, r1, #8
   86cb2:	1be4      	subs	r4, r4, r7
   86cb4:	68a5      	ldr	r5, [r4, #8]
   86cb6:	443b      	add	r3, r7
   86cb8:	4575      	cmp	r5, lr
   86cba:	d06d      	beq.n	86d98 <_free_r+0x120>
   86cbc:	68e7      	ldr	r7, [r4, #12]
   86cbe:	60ef      	str	r7, [r5, #12]
   86cc0:	60bd      	str	r5, [r7, #8]
   86cc2:	1815      	adds	r5, r2, r0
   86cc4:	686d      	ldr	r5, [r5, #4]
   86cc6:	07ed      	lsls	r5, r5, #31
   86cc8:	d53e      	bpl.n	86d48 <_free_r+0xd0>
   86cca:	f043 0201 	orr.w	r2, r3, #1
   86cce:	6062      	str	r2, [r4, #4]
   86cd0:	50e3      	str	r3, [r4, r3]
   86cd2:	f5b3 7f00 	cmp.w	r3, #512	; 0x200
   86cd6:	d217      	bcs.n	86d08 <_free_r+0x90>
   86cd8:	2201      	movs	r2, #1
   86cda:	08db      	lsrs	r3, r3, #3
   86cdc:	1098      	asrs	r0, r3, #2
   86cde:	684d      	ldr	r5, [r1, #4]
   86ce0:	4413      	add	r3, r2
   86ce2:	f851 7033 	ldr.w	r7, [r1, r3, lsl #3]
   86ce6:	4082      	lsls	r2, r0
   86ce8:	eb01 00c3 	add.w	r0, r1, r3, lsl #3
   86cec:	432a      	orrs	r2, r5
   86cee:	3808      	subs	r0, #8
   86cf0:	60e0      	str	r0, [r4, #12]
   86cf2:	60a7      	str	r7, [r4, #8]
   86cf4:	604a      	str	r2, [r1, #4]
   86cf6:	f841 4033 	str.w	r4, [r1, r3, lsl #3]
   86cfa:	60fc      	str	r4, [r7, #12]
   86cfc:	4640      	mov	r0, r8
   86cfe:	e8bd 41f0 	ldmia.w	sp!, {r4, r5, r6, r7, r8, lr}
   86d02:	f7fc baef 	b.w	832e4 <__malloc_unlock>
   86d06:	4770      	bx	lr
   86d08:	0a5a      	lsrs	r2, r3, #9
   86d0a:	2a04      	cmp	r2, #4
   86d0c:	d852      	bhi.n	86db4 <_free_r+0x13c>
   86d0e:	099a      	lsrs	r2, r3, #6
   86d10:	f102 0739 	add.w	r7, r2, #57	; 0x39
   86d14:	00ff      	lsls	r7, r7, #3
   86d16:	f102 0538 	add.w	r5, r2, #56	; 0x38
   86d1a:	19c8      	adds	r0, r1, r7
   86d1c:	59ca      	ldr	r2, [r1, r7]
   86d1e:	3808      	subs	r0, #8
   86d20:	4290      	cmp	r0, r2
   86d22:	d04f      	beq.n	86dc4 <_free_r+0x14c>
   86d24:	6851      	ldr	r1, [r2, #4]
   86d26:	f021 0103 	bic.w	r1, r1, #3
   86d2a:	428b      	cmp	r3, r1
   86d2c:	d232      	bcs.n	86d94 <_free_r+0x11c>
   86d2e:	6892      	ldr	r2, [r2, #8]
   86d30:	4290      	cmp	r0, r2
   86d32:	d1f7      	bne.n	86d24 <_free_r+0xac>
   86d34:	68c3      	ldr	r3, [r0, #12]
   86d36:	60a0      	str	r0, [r4, #8]
   86d38:	60e3      	str	r3, [r4, #12]
   86d3a:	609c      	str	r4, [r3, #8]
   86d3c:	60c4      	str	r4, [r0, #12]
   86d3e:	4640      	mov	r0, r8
   86d40:	e8bd 41f0 	ldmia.w	sp!, {r4, r5, r6, r7, r8, lr}
   86d44:	f7fc bace 	b.w	832e4 <__malloc_unlock>
   86d48:	6895      	ldr	r5, [r2, #8]
   86d4a:	4f3b      	ldr	r7, [pc, #236]	; (86e38 <_free_r+0x1c0>)
   86d4c:	4403      	add	r3, r0
   86d4e:	42bd      	cmp	r5, r7
   86d50:	d040      	beq.n	86dd4 <_free_r+0x15c>
   86d52:	68d0      	ldr	r0, [r2, #12]
   86d54:	f043 0201 	orr.w	r2, r3, #1
   86d58:	60e8      	str	r0, [r5, #12]
   86d5a:	6085      	str	r5, [r0, #8]
   86d5c:	6062      	str	r2, [r4, #4]
   86d5e:	50e3      	str	r3, [r4, r3]
   86d60:	e7b7      	b.n	86cd2 <_free_r+0x5a>
   86d62:	07ff      	lsls	r7, r7, #31
   86d64:	4403      	add	r3, r0
   86d66:	d407      	bmi.n	86d78 <_free_r+0x100>
   86d68:	f855 5c08 	ldr.w	r5, [r5, #-8]
   86d6c:	1b64      	subs	r4, r4, r5
   86d6e:	68e2      	ldr	r2, [r4, #12]
   86d70:	68a0      	ldr	r0, [r4, #8]
   86d72:	442b      	add	r3, r5
   86d74:	60c2      	str	r2, [r0, #12]
   86d76:	6090      	str	r0, [r2, #8]
   86d78:	4a30      	ldr	r2, [pc, #192]	; (86e3c <_free_r+0x1c4>)
   86d7a:	f043 0001 	orr.w	r0, r3, #1
   86d7e:	6812      	ldr	r2, [r2, #0]
   86d80:	6060      	str	r0, [r4, #4]
   86d82:	4293      	cmp	r3, r2
   86d84:	608c      	str	r4, [r1, #8]
   86d86:	d3b9      	bcc.n	86cfc <_free_r+0x84>
   86d88:	4b2d      	ldr	r3, [pc, #180]	; (86e40 <_free_r+0x1c8>)
   86d8a:	4640      	mov	r0, r8
   86d8c:	6819      	ldr	r1, [r3, #0]
   86d8e:	f7ff ff23 	bl	86bd8 <_malloc_trim_r>
   86d92:	e7b3      	b.n	86cfc <_free_r+0x84>
   86d94:	4610      	mov	r0, r2
   86d96:	e7cd      	b.n	86d34 <_free_r+0xbc>
   86d98:	1811      	adds	r1, r2, r0
   86d9a:	6849      	ldr	r1, [r1, #4]
   86d9c:	07c9      	lsls	r1, r1, #31
   86d9e:	d444      	bmi.n	86e2a <_free_r+0x1b2>
   86da0:	6891      	ldr	r1, [r2, #8]
   86da2:	4403      	add	r3, r0
   86da4:	68d2      	ldr	r2, [r2, #12]
   86da6:	f043 0001 	orr.w	r0, r3, #1
   86daa:	60ca      	str	r2, [r1, #12]
   86dac:	6091      	str	r1, [r2, #8]
   86dae:	6060      	str	r0, [r4, #4]
   86db0:	50e3      	str	r3, [r4, r3]
   86db2:	e7a3      	b.n	86cfc <_free_r+0x84>
   86db4:	2a14      	cmp	r2, #20
   86db6:	d816      	bhi.n	86de6 <_free_r+0x16e>
   86db8:	f102 075c 	add.w	r7, r2, #92	; 0x5c
   86dbc:	00ff      	lsls	r7, r7, #3
   86dbe:	f102 055b 	add.w	r5, r2, #91	; 0x5b
   86dc2:	e7aa      	b.n	86d1a <_free_r+0xa2>
   86dc4:	2301      	movs	r3, #1
   86dc6:	10aa      	asrs	r2, r5, #2
   86dc8:	684d      	ldr	r5, [r1, #4]
   86dca:	4093      	lsls	r3, r2
   86dcc:	432b      	orrs	r3, r5
   86dce:	604b      	str	r3, [r1, #4]
   86dd0:	4603      	mov	r3, r0
   86dd2:	e7b0      	b.n	86d36 <_free_r+0xbe>
   86dd4:	f043 0201 	orr.w	r2, r3, #1
   86dd8:	614c      	str	r4, [r1, #20]
   86dda:	610c      	str	r4, [r1, #16]
   86ddc:	60e5      	str	r5, [r4, #12]
   86dde:	60a5      	str	r5, [r4, #8]
   86de0:	6062      	str	r2, [r4, #4]
   86de2:	50e3      	str	r3, [r4, r3]
   86de4:	e78a      	b.n	86cfc <_free_r+0x84>
   86de6:	2a54      	cmp	r2, #84	; 0x54
   86de8:	d806      	bhi.n	86df8 <_free_r+0x180>
   86dea:	0b1a      	lsrs	r2, r3, #12
   86dec:	f102 076f 	add.w	r7, r2, #111	; 0x6f
   86df0:	00ff      	lsls	r7, r7, #3
   86df2:	f102 056e 	add.w	r5, r2, #110	; 0x6e
   86df6:	e790      	b.n	86d1a <_free_r+0xa2>
   86df8:	f5b2 7faa 	cmp.w	r2, #340	; 0x154
   86dfc:	d806      	bhi.n	86e0c <_free_r+0x194>
   86dfe:	0bda      	lsrs	r2, r3, #15
   86e00:	f102 0778 	add.w	r7, r2, #120	; 0x78
   86e04:	00ff      	lsls	r7, r7, #3
   86e06:	f102 0577 	add.w	r5, r2, #119	; 0x77
   86e0a:	e786      	b.n	86d1a <_free_r+0xa2>
   86e0c:	f240 5054 	movw	r0, #1364	; 0x554
   86e10:	4282      	cmp	r2, r0
   86e12:	d806      	bhi.n	86e22 <_free_r+0x1aa>
   86e14:	0c9a      	lsrs	r2, r3, #18
   86e16:	f102 077d 	add.w	r7, r2, #125	; 0x7d
   86e1a:	00ff      	lsls	r7, r7, #3
   86e1c:	f102 057c 	add.w	r5, r2, #124	; 0x7c
   86e20:	e77b      	b.n	86d1a <_free_r+0xa2>
   86e22:	f44f 777e 	mov.w	r7, #1016	; 0x3f8
   86e26:	257e      	movs	r5, #126	; 0x7e
   86e28:	e777      	b.n	86d1a <_free_r+0xa2>
   86e2a:	f043 0101 	orr.w	r1, r3, #1
   86e2e:	6061      	str	r1, [r4, #4]
   86e30:	6013      	str	r3, [r2, #0]
   86e32:	e763      	b.n	86cfc <_free_r+0x84>
   86e34:	20070568 	.word	0x20070568
   86e38:	20070570 	.word	0x20070570
   86e3c:	20070974 	.word	0x20070974
   86e40:	20070d38 	.word	0x20070d38

00086e44 <__sfvwrite_r>:
   86e44:	6893      	ldr	r3, [r2, #8]
   86e46:	2b00      	cmp	r3, #0
   86e48:	d071      	beq.n	86f2e <__sfvwrite_r+0xea>
   86e4a:	e92d 4ff0 	stmdb	sp!, {r4, r5, r6, r7, r8, r9, sl, fp, lr}
   86e4e:	898b      	ldrh	r3, [r1, #12]
   86e50:	b083      	sub	sp, #12
   86e52:	460c      	mov	r4, r1
   86e54:	0719      	lsls	r1, r3, #28
   86e56:	9000      	str	r0, [sp, #0]
   86e58:	4616      	mov	r6, r2
   86e5a:	d525      	bpl.n	86ea8 <__sfvwrite_r+0x64>
   86e5c:	6922      	ldr	r2, [r4, #16]
   86e5e:	b31a      	cbz	r2, 86ea8 <__sfvwrite_r+0x64>
   86e60:	f013 0002 	ands.w	r0, r3, #2
   86e64:	6835      	ldr	r5, [r6, #0]
   86e66:	d02b      	beq.n	86ec0 <__sfvwrite_r+0x7c>
   86e68:	f04f 0900 	mov.w	r9, #0
   86e6c:	46b0      	mov	r8, r6
   86e6e:	464f      	mov	r7, r9
   86e70:	f8df a2c0 	ldr.w	sl, [pc, #704]	; 87134 <__sfvwrite_r+0x2f0>
   86e74:	2f00      	cmp	r7, #0
   86e76:	d055      	beq.n	86f24 <__sfvwrite_r+0xe0>
   86e78:	4557      	cmp	r7, sl
   86e7a:	463b      	mov	r3, r7
   86e7c:	464a      	mov	r2, r9
   86e7e:	bf28      	it	cs
   86e80:	4653      	movcs	r3, sl
   86e82:	69e1      	ldr	r1, [r4, #28]
   86e84:	9800      	ldr	r0, [sp, #0]
   86e86:	6a66      	ldr	r6, [r4, #36]	; 0x24
   86e88:	47b0      	blx	r6
   86e8a:	2800      	cmp	r0, #0
   86e8c:	dd56      	ble.n	86f3c <__sfvwrite_r+0xf8>
   86e8e:	f8d8 3008 	ldr.w	r3, [r8, #8]
   86e92:	4481      	add	r9, r0
   86e94:	1a1b      	subs	r3, r3, r0
   86e96:	1a3f      	subs	r7, r7, r0
   86e98:	f8c8 3008 	str.w	r3, [r8, #8]
   86e9c:	2b00      	cmp	r3, #0
   86e9e:	d1e9      	bne.n	86e74 <__sfvwrite_r+0x30>
   86ea0:	2000      	movs	r0, #0
   86ea2:	b003      	add	sp, #12
   86ea4:	e8bd 8ff0 	ldmia.w	sp!, {r4, r5, r6, r7, r8, r9, sl, fp, pc}
   86ea8:	4621      	mov	r1, r4
   86eaa:	9800      	ldr	r0, [sp, #0]
   86eac:	f7fe fc9e 	bl	857ec <__swsetup_r>
   86eb0:	2800      	cmp	r0, #0
   86eb2:	f040 8135 	bne.w	87120 <__sfvwrite_r+0x2dc>
   86eb6:	89a3      	ldrh	r3, [r4, #12]
   86eb8:	6835      	ldr	r5, [r6, #0]
   86eba:	f013 0002 	ands.w	r0, r3, #2
   86ebe:	d1d3      	bne.n	86e68 <__sfvwrite_r+0x24>
   86ec0:	f013 0901 	ands.w	r9, r3, #1
   86ec4:	d144      	bne.n	86f50 <__sfvwrite_r+0x10c>
   86ec6:	464f      	mov	r7, r9
   86ec8:	9601      	str	r6, [sp, #4]
   86eca:	b337      	cbz	r7, 86f1a <__sfvwrite_r+0xd6>
   86ecc:	059a      	lsls	r2, r3, #22
   86ece:	f8d4 8008 	ldr.w	r8, [r4, #8]
   86ed2:	f140 8085 	bpl.w	86fe0 <__sfvwrite_r+0x19c>
   86ed6:	4547      	cmp	r7, r8
   86ed8:	46c3      	mov	fp, r8
   86eda:	f0c0 80ad 	bcc.w	87038 <__sfvwrite_r+0x1f4>
   86ede:	f413 6f90 	tst.w	r3, #1152	; 0x480
   86ee2:	f040 80ae 	bne.w	87042 <__sfvwrite_r+0x1fe>
   86ee6:	46ba      	mov	sl, r7
   86ee8:	6820      	ldr	r0, [r4, #0]
   86eea:	465a      	mov	r2, fp
   86eec:	4649      	mov	r1, r9
   86eee:	f000 fab9 	bl	87464 <memmove>
   86ef2:	68a2      	ldr	r2, [r4, #8]
   86ef4:	6823      	ldr	r3, [r4, #0]
   86ef6:	eba2 0208 	sub.w	r2, r2, r8
   86efa:	445b      	add	r3, fp
   86efc:	60a2      	str	r2, [r4, #8]
   86efe:	6023      	str	r3, [r4, #0]
   86f00:	9a01      	ldr	r2, [sp, #4]
   86f02:	44d1      	add	r9, sl
   86f04:	6893      	ldr	r3, [r2, #8]
   86f06:	eba7 070a 	sub.w	r7, r7, sl
   86f0a:	eba3 030a 	sub.w	r3, r3, sl
   86f0e:	6093      	str	r3, [r2, #8]
   86f10:	2b00      	cmp	r3, #0
   86f12:	d0c5      	beq.n	86ea0 <__sfvwrite_r+0x5c>
   86f14:	89a3      	ldrh	r3, [r4, #12]
   86f16:	2f00      	cmp	r7, #0
   86f18:	d1d8      	bne.n	86ecc <__sfvwrite_r+0x88>
   86f1a:	f8d5 9000 	ldr.w	r9, [r5]
   86f1e:	686f      	ldr	r7, [r5, #4]
   86f20:	3508      	adds	r5, #8
   86f22:	e7d2      	b.n	86eca <__sfvwrite_r+0x86>
   86f24:	f8d5 9000 	ldr.w	r9, [r5]
   86f28:	686f      	ldr	r7, [r5, #4]
   86f2a:	3508      	adds	r5, #8
   86f2c:	e7a2      	b.n	86e74 <__sfvwrite_r+0x30>
   86f2e:	2000      	movs	r0, #0
   86f30:	4770      	bx	lr
   86f32:	4621      	mov	r1, r4
   86f34:	9800      	ldr	r0, [sp, #0]
   86f36:	f7ff fd21 	bl	8697c <_fflush_r>
   86f3a:	b378      	cbz	r0, 86f9c <__sfvwrite_r+0x158>
   86f3c:	f9b4 300c 	ldrsh.w	r3, [r4, #12]
   86f40:	f04f 30ff 	mov.w	r0, #4294967295
   86f44:	f043 0340 	orr.w	r3, r3, #64	; 0x40
   86f48:	81a3      	strh	r3, [r4, #12]
   86f4a:	b003      	add	sp, #12
   86f4c:	e8bd 8ff0 	ldmia.w	sp!, {r4, r5, r6, r7, r8, r9, sl, fp, pc}
   86f50:	4681      	mov	r9, r0
   86f52:	4633      	mov	r3, r6
   86f54:	464e      	mov	r6, r9
   86f56:	46a8      	mov	r8, r5
   86f58:	469a      	mov	sl, r3
   86f5a:	464d      	mov	r5, r9
   86f5c:	b356      	cbz	r6, 86fb4 <__sfvwrite_r+0x170>
   86f5e:	2800      	cmp	r0, #0
   86f60:	d032      	beq.n	86fc8 <__sfvwrite_r+0x184>
   86f62:	45b1      	cmp	r9, r6
   86f64:	46cb      	mov	fp, r9
   86f66:	bf28      	it	cs
   86f68:	46b3      	movcs	fp, r6
   86f6a:	6820      	ldr	r0, [r4, #0]
   86f6c:	6923      	ldr	r3, [r4, #16]
   86f6e:	465f      	mov	r7, fp
   86f70:	4298      	cmp	r0, r3
   86f72:	6962      	ldr	r2, [r4, #20]
   86f74:	d904      	bls.n	86f80 <__sfvwrite_r+0x13c>
   86f76:	68a3      	ldr	r3, [r4, #8]
   86f78:	4413      	add	r3, r2
   86f7a:	459b      	cmp	fp, r3
   86f7c:	f300 80a8 	bgt.w	870d0 <__sfvwrite_r+0x28c>
   86f80:	4593      	cmp	fp, r2
   86f82:	db4d      	blt.n	87020 <__sfvwrite_r+0x1dc>
   86f84:	4613      	mov	r3, r2
   86f86:	6a67      	ldr	r7, [r4, #36]	; 0x24
   86f88:	462a      	mov	r2, r5
   86f8a:	69e1      	ldr	r1, [r4, #28]
   86f8c:	9800      	ldr	r0, [sp, #0]
   86f8e:	47b8      	blx	r7
   86f90:	1e07      	subs	r7, r0, #0
   86f92:	ddd3      	ble.n	86f3c <__sfvwrite_r+0xf8>
   86f94:	ebb9 0907 	subs.w	r9, r9, r7
   86f98:	d0cb      	beq.n	86f32 <__sfvwrite_r+0xee>
   86f9a:	2001      	movs	r0, #1
   86f9c:	f8da 3008 	ldr.w	r3, [sl, #8]
   86fa0:	443d      	add	r5, r7
   86fa2:	1bdb      	subs	r3, r3, r7
   86fa4:	1bf6      	subs	r6, r6, r7
   86fa6:	f8ca 3008 	str.w	r3, [sl, #8]
   86faa:	2b00      	cmp	r3, #0
   86fac:	f43f af78 	beq.w	86ea0 <__sfvwrite_r+0x5c>
   86fb0:	2e00      	cmp	r6, #0
   86fb2:	d1d4      	bne.n	86f5e <__sfvwrite_r+0x11a>
   86fb4:	f108 0308 	add.w	r3, r8, #8
   86fb8:	f853 6c04 	ldr.w	r6, [r3, #-4]
   86fbc:	4698      	mov	r8, r3
   86fbe:	f853 5c08 	ldr.w	r5, [r3, #-8]
   86fc2:	3308      	adds	r3, #8
   86fc4:	2e00      	cmp	r6, #0
   86fc6:	d0f7      	beq.n	86fb8 <__sfvwrite_r+0x174>
   86fc8:	4632      	mov	r2, r6
   86fca:	210a      	movs	r1, #10
   86fcc:	4628      	mov	r0, r5
   86fce:	f000 f98d 	bl	872ec <memchr>
   86fd2:	2800      	cmp	r0, #0
   86fd4:	f000 80a1 	beq.w	8711a <__sfvwrite_r+0x2d6>
   86fd8:	3001      	adds	r0, #1
   86fda:	eba0 0905 	sub.w	r9, r0, r5
   86fde:	e7c0      	b.n	86f62 <__sfvwrite_r+0x11e>
   86fe0:	6820      	ldr	r0, [r4, #0]
   86fe2:	6923      	ldr	r3, [r4, #16]
   86fe4:	4298      	cmp	r0, r3
   86fe6:	d802      	bhi.n	86fee <__sfvwrite_r+0x1aa>
   86fe8:	6963      	ldr	r3, [r4, #20]
   86fea:	429f      	cmp	r7, r3
   86fec:	d25d      	bcs.n	870aa <__sfvwrite_r+0x266>
   86fee:	45b8      	cmp	r8, r7
   86ff0:	bf28      	it	cs
   86ff2:	46b8      	movcs	r8, r7
   86ff4:	4649      	mov	r1, r9
   86ff6:	4642      	mov	r2, r8
   86ff8:	f000 fa34 	bl	87464 <memmove>
   86ffc:	68a3      	ldr	r3, [r4, #8]
   86ffe:	6822      	ldr	r2, [r4, #0]
   87000:	eba3 0308 	sub.w	r3, r3, r8
   87004:	4442      	add	r2, r8
   87006:	60a3      	str	r3, [r4, #8]
   87008:	6022      	str	r2, [r4, #0]
   8700a:	b10b      	cbz	r3, 87010 <__sfvwrite_r+0x1cc>
   8700c:	46c2      	mov	sl, r8
   8700e:	e777      	b.n	86f00 <__sfvwrite_r+0xbc>
   87010:	4621      	mov	r1, r4
   87012:	9800      	ldr	r0, [sp, #0]
   87014:	f7ff fcb2 	bl	8697c <_fflush_r>
   87018:	2800      	cmp	r0, #0
   8701a:	d18f      	bne.n	86f3c <__sfvwrite_r+0xf8>
   8701c:	46c2      	mov	sl, r8
   8701e:	e76f      	b.n	86f00 <__sfvwrite_r+0xbc>
   87020:	465a      	mov	r2, fp
   87022:	4629      	mov	r1, r5
   87024:	f000 fa1e 	bl	87464 <memmove>
   87028:	68a2      	ldr	r2, [r4, #8]
   8702a:	6823      	ldr	r3, [r4, #0]
   8702c:	eba2 020b 	sub.w	r2, r2, fp
   87030:	445b      	add	r3, fp
   87032:	60a2      	str	r2, [r4, #8]
   87034:	6023      	str	r3, [r4, #0]
   87036:	e7ad      	b.n	86f94 <__sfvwrite_r+0x150>
   87038:	46b8      	mov	r8, r7
   8703a:	46ba      	mov	sl, r7
   8703c:	46bb      	mov	fp, r7
   8703e:	6820      	ldr	r0, [r4, #0]
   87040:	e753      	b.n	86eea <__sfvwrite_r+0xa6>
   87042:	6962      	ldr	r2, [r4, #20]
   87044:	6820      	ldr	r0, [r4, #0]
   87046:	6921      	ldr	r1, [r4, #16]
   87048:	eb02 0842 	add.w	r8, r2, r2, lsl #1
   8704c:	eba0 0a01 	sub.w	sl, r0, r1
   87050:	eb08 78d8 	add.w	r8, r8, r8, lsr #31
   87054:	f10a 0001 	add.w	r0, sl, #1
   87058:	ea4f 0868 	mov.w	r8, r8, asr #1
   8705c:	4438      	add	r0, r7
   8705e:	4540      	cmp	r0, r8
   87060:	4642      	mov	r2, r8
   87062:	bf84      	itt	hi
   87064:	4680      	movhi	r8, r0
   87066:	4642      	movhi	r2, r8
   87068:	055b      	lsls	r3, r3, #21
   8706a:	d544      	bpl.n	870f6 <__sfvwrite_r+0x2b2>
   8706c:	4611      	mov	r1, r2
   8706e:	9800      	ldr	r0, [sp, #0]
   87070:	f7fb fe42 	bl	82cf8 <_malloc_r>
   87074:	4683      	mov	fp, r0
   87076:	2800      	cmp	r0, #0
   87078:	d055      	beq.n	87126 <__sfvwrite_r+0x2e2>
   8707a:	4652      	mov	r2, sl
   8707c:	6921      	ldr	r1, [r4, #16]
   8707e:	f000 f97b 	bl	87378 <memcpy>
   87082:	89a3      	ldrh	r3, [r4, #12]
   87084:	f423 6390 	bic.w	r3, r3, #1152	; 0x480
   87088:	f043 0380 	orr.w	r3, r3, #128	; 0x80
   8708c:	81a3      	strh	r3, [r4, #12]
   8708e:	eb0b 000a 	add.w	r0, fp, sl
   87092:	eba8 030a 	sub.w	r3, r8, sl
   87096:	f8c4 b010 	str.w	fp, [r4, #16]
   8709a:	f8c4 8014 	str.w	r8, [r4, #20]
   8709e:	6020      	str	r0, [r4, #0]
   870a0:	60a3      	str	r3, [r4, #8]
   870a2:	46b8      	mov	r8, r7
   870a4:	46ba      	mov	sl, r7
   870a6:	46bb      	mov	fp, r7
   870a8:	e71f      	b.n	86eea <__sfvwrite_r+0xa6>
   870aa:	f06f 4200 	mvn.w	r2, #2147483648	; 0x80000000
   870ae:	42ba      	cmp	r2, r7
   870b0:	bf28      	it	cs
   870b2:	463a      	movcs	r2, r7
   870b4:	fb92 f2f3 	sdiv	r2, r2, r3
   870b8:	69e1      	ldr	r1, [r4, #28]
   870ba:	fb03 f302 	mul.w	r3, r3, r2
   870be:	9800      	ldr	r0, [sp, #0]
   870c0:	464a      	mov	r2, r9
   870c2:	6a66      	ldr	r6, [r4, #36]	; 0x24
   870c4:	47b0      	blx	r6
   870c6:	f1b0 0a00 	subs.w	sl, r0, #0
   870ca:	f73f af19 	bgt.w	86f00 <__sfvwrite_r+0xbc>
   870ce:	e735      	b.n	86f3c <__sfvwrite_r+0xf8>
   870d0:	461a      	mov	r2, r3
   870d2:	4629      	mov	r1, r5
   870d4:	9301      	str	r3, [sp, #4]
   870d6:	f000 f9c5 	bl	87464 <memmove>
   870da:	6822      	ldr	r2, [r4, #0]
   870dc:	9b01      	ldr	r3, [sp, #4]
   870de:	4621      	mov	r1, r4
   870e0:	441a      	add	r2, r3
   870e2:	6022      	str	r2, [r4, #0]
   870e4:	9800      	ldr	r0, [sp, #0]
   870e6:	f7ff fc49 	bl	8697c <_fflush_r>
   870ea:	9b01      	ldr	r3, [sp, #4]
   870ec:	2800      	cmp	r0, #0
   870ee:	f47f af25 	bne.w	86f3c <__sfvwrite_r+0xf8>
   870f2:	461f      	mov	r7, r3
   870f4:	e74e      	b.n	86f94 <__sfvwrite_r+0x150>
   870f6:	9800      	ldr	r0, [sp, #0]
   870f8:	f000 fd14 	bl	87b24 <_realloc_r>
   870fc:	4683      	mov	fp, r0
   870fe:	2800      	cmp	r0, #0
   87100:	d1c5      	bne.n	8708e <__sfvwrite_r+0x24a>
   87102:	9d00      	ldr	r5, [sp, #0]
   87104:	6921      	ldr	r1, [r4, #16]
   87106:	4628      	mov	r0, r5
   87108:	f7ff fdb6 	bl	86c78 <_free_r>
   8710c:	220c      	movs	r2, #12
   8710e:	f9b4 300c 	ldrsh.w	r3, [r4, #12]
   87112:	602a      	str	r2, [r5, #0]
   87114:	f023 0380 	bic.w	r3, r3, #128	; 0x80
   87118:	e712      	b.n	86f40 <__sfvwrite_r+0xfc>
   8711a:	f106 0901 	add.w	r9, r6, #1
   8711e:	e720      	b.n	86f62 <__sfvwrite_r+0x11e>
   87120:	f04f 30ff 	mov.w	r0, #4294967295
   87124:	e6bd      	b.n	86ea2 <__sfvwrite_r+0x5e>
   87126:	220c      	movs	r2, #12
   87128:	9900      	ldr	r1, [sp, #0]
   8712a:	f9b4 300c 	ldrsh.w	r3, [r4, #12]
   8712e:	600a      	str	r2, [r1, #0]
   87130:	e706      	b.n	86f40 <__sfvwrite_r+0xfc>
   87132:	bf00      	nop
   87134:	7ffffc00 	.word	0x7ffffc00

00087138 <_fwalk_reent>:
   87138:	e92d 43f8 	stmdb	sp!, {r3, r4, r5, r6, r7, r8, r9, lr}
   8713c:	f510 7638 	adds.w	r6, r0, #736	; 0x2e0
   87140:	d01e      	beq.n	87180 <_fwalk_reent+0x48>
   87142:	4688      	mov	r8, r1
   87144:	4607      	mov	r7, r0
   87146:	f04f 0900 	mov.w	r9, #0
   8714a:	6875      	ldr	r5, [r6, #4]
   8714c:	68b4      	ldr	r4, [r6, #8]
   8714e:	3d01      	subs	r5, #1
   87150:	d410      	bmi.n	87174 <_fwalk_reent+0x3c>
   87152:	89a3      	ldrh	r3, [r4, #12]
   87154:	3d01      	subs	r5, #1
   87156:	2b01      	cmp	r3, #1
   87158:	d908      	bls.n	8716c <_fwalk_reent+0x34>
   8715a:	f9b4 300e 	ldrsh.w	r3, [r4, #14]
   8715e:	3301      	adds	r3, #1
   87160:	d004      	beq.n	8716c <_fwalk_reent+0x34>
   87162:	4621      	mov	r1, r4
   87164:	4638      	mov	r0, r7
   87166:	47c0      	blx	r8
   87168:	ea49 0900 	orr.w	r9, r9, r0
   8716c:	1c6b      	adds	r3, r5, #1
   8716e:	f104 0468 	add.w	r4, r4, #104	; 0x68
   87172:	d1ee      	bne.n	87152 <_fwalk_reent+0x1a>
   87174:	6836      	ldr	r6, [r6, #0]
   87176:	2e00      	cmp	r6, #0
   87178:	d1e7      	bne.n	8714a <_fwalk_reent+0x12>
   8717a:	4648      	mov	r0, r9
   8717c:	e8bd 83f8 	ldmia.w	sp!, {r3, r4, r5, r6, r7, r8, r9, pc}
   87180:	46b1      	mov	r9, r6
   87182:	4648      	mov	r0, r9
   87184:	e8bd 83f8 	ldmia.w	sp!, {r3, r4, r5, r6, r7, r8, r9, pc}

00087188 <__locale_mb_cur_max>:
   87188:	4b04      	ldr	r3, [pc, #16]	; (8719c <__locale_mb_cur_max+0x14>)
   8718a:	4a05      	ldr	r2, [pc, #20]	; (871a0 <__locale_mb_cur_max+0x18>)
   8718c:	681b      	ldr	r3, [r3, #0]
   8718e:	6b5b      	ldr	r3, [r3, #52]	; 0x34
   87190:	2b00      	cmp	r3, #0
   87192:	bf08      	it	eq
   87194:	4613      	moveq	r3, r2
   87196:	f893 0128 	ldrb.w	r0, [r3, #296]	; 0x128
   8719a:	4770      	bx	lr
   8719c:	20070138 	.word	0x20070138
   871a0:	2007097c 	.word	0x2007097c

000871a4 <_localeconv_r>:
   871a4:	4a04      	ldr	r2, [pc, #16]	; (871b8 <_localeconv_r+0x14>)
   871a6:	4b05      	ldr	r3, [pc, #20]	; (871bc <_localeconv_r+0x18>)
   871a8:	6812      	ldr	r2, [r2, #0]
   871aa:	6b50      	ldr	r0, [r2, #52]	; 0x34
   871ac:	2800      	cmp	r0, #0
   871ae:	bf08      	it	eq
   871b0:	4618      	moveq	r0, r3
   871b2:	30f0      	adds	r0, #240	; 0xf0
   871b4:	4770      	bx	lr
   871b6:	bf00      	nop
   871b8:	20070138 	.word	0x20070138
   871bc:	2007097c 	.word	0x2007097c

000871c0 <__retarget_lock_init_recursive>:
   871c0:	4770      	bx	lr
   871c2:	bf00      	nop

000871c4 <__retarget_lock_close_recursive>:
   871c4:	4770      	bx	lr
   871c6:	bf00      	nop

000871c8 <__retarget_lock_acquire_recursive>:
   871c8:	4770      	bx	lr
   871ca:	bf00      	nop

000871cc <__retarget_lock_release_recursive>:
   871cc:	4770      	bx	lr
   871ce:	bf00      	nop

000871d0 <__swhatbuf_r>:
   871d0:	b570      	push	{r4, r5, r6, lr}
   871d2:	460c      	mov	r4, r1
   871d4:	f9b1 100e 	ldrsh.w	r1, [r1, #14]
   871d8:	b090      	sub	sp, #64	; 0x40
   871da:	2900      	cmp	r1, #0
   871dc:	4615      	mov	r5, r2
   871de:	461e      	mov	r6, r3
   871e0:	db14      	blt.n	8720c <__swhatbuf_r+0x3c>
   871e2:	aa01      	add	r2, sp, #4
   871e4:	f001 f8c0 	bl	88368 <_fstat_r>
   871e8:	2800      	cmp	r0, #0
   871ea:	db0f      	blt.n	8720c <__swhatbuf_r+0x3c>
   871ec:	9a02      	ldr	r2, [sp, #8]
   871ee:	f44f 6380 	mov.w	r3, #1024	; 0x400
   871f2:	f402 4270 	and.w	r2, r2, #61440	; 0xf000
   871f6:	f5a2 5200 	sub.w	r2, r2, #8192	; 0x2000
   871fa:	fab2 f282 	clz	r2, r2
   871fe:	f44f 6000 	mov.w	r0, #2048	; 0x800
   87202:	0952      	lsrs	r2, r2, #5
   87204:	6032      	str	r2, [r6, #0]
   87206:	602b      	str	r3, [r5, #0]
   87208:	b010      	add	sp, #64	; 0x40
   8720a:	bd70      	pop	{r4, r5, r6, pc}
   8720c:	2300      	movs	r3, #0
   8720e:	89a2      	ldrh	r2, [r4, #12]
   87210:	6033      	str	r3, [r6, #0]
   87212:	f012 0080 	ands.w	r0, r2, #128	; 0x80
   87216:	d004      	beq.n	87222 <__swhatbuf_r+0x52>
   87218:	2240      	movs	r2, #64	; 0x40
   8721a:	4618      	mov	r0, r3
   8721c:	602a      	str	r2, [r5, #0]
   8721e:	b010      	add	sp, #64	; 0x40
   87220:	bd70      	pop	{r4, r5, r6, pc}
   87222:	f44f 6380 	mov.w	r3, #1024	; 0x400
   87226:	602b      	str	r3, [r5, #0]
   87228:	b010      	add	sp, #64	; 0x40
   8722a:	bd70      	pop	{r4, r5, r6, pc}

0008722c <__smakebuf_r>:
   8722c:	898a      	ldrh	r2, [r1, #12]
   8722e:	460b      	mov	r3, r1
   87230:	0792      	lsls	r2, r2, #30
   87232:	d506      	bpl.n	87242 <__smakebuf_r+0x16>
   87234:	2101      	movs	r1, #1
   87236:	f103 0243 	add.w	r2, r3, #67	; 0x43
   8723a:	6159      	str	r1, [r3, #20]
   8723c:	601a      	str	r2, [r3, #0]
   8723e:	611a      	str	r2, [r3, #16]
   87240:	4770      	bx	lr
   87242:	b5f0      	push	{r4, r5, r6, r7, lr}
   87244:	b083      	sub	sp, #12
   87246:	ab01      	add	r3, sp, #4
   87248:	466a      	mov	r2, sp
   8724a:	460c      	mov	r4, r1
   8724c:	4606      	mov	r6, r0
   8724e:	f7ff ffbf 	bl	871d0 <__swhatbuf_r>
   87252:	9900      	ldr	r1, [sp, #0]
   87254:	4605      	mov	r5, r0
   87256:	4630      	mov	r0, r6
   87258:	f7fb fd4e 	bl	82cf8 <_malloc_r>
   8725c:	f9b4 300c 	ldrsh.w	r3, [r4, #12]
   87260:	b1d8      	cbz	r0, 8729a <__smakebuf_r+0x6e>
   87262:	e89d 0006 	ldmia.w	sp, {r1, r2}
   87266:	4f15      	ldr	r7, [pc, #84]	; (872bc <__smakebuf_r+0x90>)
   87268:	f043 0380 	orr.w	r3, r3, #128	; 0x80
   8726c:	63f7      	str	r7, [r6, #60]	; 0x3c
   8726e:	81a3      	strh	r3, [r4, #12]
   87270:	6020      	str	r0, [r4, #0]
   87272:	6120      	str	r0, [r4, #16]
   87274:	6161      	str	r1, [r4, #20]
   87276:	b91a      	cbnz	r2, 87280 <__smakebuf_r+0x54>
   87278:	432b      	orrs	r3, r5
   8727a:	81a3      	strh	r3, [r4, #12]
   8727c:	b003      	add	sp, #12
   8727e:	bdf0      	pop	{r4, r5, r6, r7, pc}
   87280:	4630      	mov	r0, r6
   87282:	f9b4 100e 	ldrsh.w	r1, [r4, #14]
   87286:	f001 f883 	bl	88390 <_isatty_r>
   8728a:	b1a0      	cbz	r0, 872b6 <__smakebuf_r+0x8a>
   8728c:	89a3      	ldrh	r3, [r4, #12]
   8728e:	f023 0303 	bic.w	r3, r3, #3
   87292:	f043 0301 	orr.w	r3, r3, #1
   87296:	b21b      	sxth	r3, r3
   87298:	e7ee      	b.n	87278 <__smakebuf_r+0x4c>
   8729a:	059a      	lsls	r2, r3, #22
   8729c:	d4ee      	bmi.n	8727c <__smakebuf_r+0x50>
   8729e:	2101      	movs	r1, #1
   872a0:	f023 0303 	bic.w	r3, r3, #3
   872a4:	f104 0243 	add.w	r2, r4, #67	; 0x43
   872a8:	f043 0302 	orr.w	r3, r3, #2
   872ac:	81a3      	strh	r3, [r4, #12]
   872ae:	6161      	str	r1, [r4, #20]
   872b0:	6022      	str	r2, [r4, #0]
   872b2:	6122      	str	r2, [r4, #16]
   872b4:	e7e2      	b.n	8727c <__smakebuf_r+0x50>
   872b6:	f9b4 300c 	ldrsh.w	r3, [r4, #12]
   872ba:	e7dd      	b.n	87278 <__smakebuf_r+0x4c>
   872bc:	000869d1 	.word	0x000869d1

000872c0 <__ascii_mbtowc>:
   872c0:	b082      	sub	sp, #8
   872c2:	b149      	cbz	r1, 872d8 <__ascii_mbtowc+0x18>
   872c4:	b15a      	cbz	r2, 872de <__ascii_mbtowc+0x1e>
   872c6:	b16b      	cbz	r3, 872e4 <__ascii_mbtowc+0x24>
   872c8:	7813      	ldrb	r3, [r2, #0]
   872ca:	600b      	str	r3, [r1, #0]
   872cc:	7812      	ldrb	r2, [r2, #0]
   872ce:	1c10      	adds	r0, r2, #0
   872d0:	bf18      	it	ne
   872d2:	2001      	movne	r0, #1
   872d4:	b002      	add	sp, #8
   872d6:	4770      	bx	lr
   872d8:	a901      	add	r1, sp, #4
   872da:	2a00      	cmp	r2, #0
   872dc:	d1f3      	bne.n	872c6 <__ascii_mbtowc+0x6>
   872de:	4610      	mov	r0, r2
   872e0:	b002      	add	sp, #8
   872e2:	4770      	bx	lr
   872e4:	f06f 0001 	mvn.w	r0, #1
   872e8:	e7f4      	b.n	872d4 <__ascii_mbtowc+0x14>
   872ea:	bf00      	nop

000872ec <memchr>:
   872ec:	0783      	lsls	r3, r0, #30
   872ee:	b470      	push	{r4, r5, r6}
   872f0:	b2cd      	uxtb	r5, r1
   872f2:	d03d      	beq.n	87370 <memchr+0x84>
   872f4:	1e54      	subs	r4, r2, #1
   872f6:	b30a      	cbz	r2, 8733c <memchr+0x50>
   872f8:	7803      	ldrb	r3, [r0, #0]
   872fa:	42ab      	cmp	r3, r5
   872fc:	d01f      	beq.n	8733e <memchr+0x52>
   872fe:	1c43      	adds	r3, r0, #1
   87300:	e005      	b.n	8730e <memchr+0x22>
   87302:	f114 34ff 	adds.w	r4, r4, #4294967295
   87306:	d319      	bcc.n	8733c <memchr+0x50>
   87308:	7802      	ldrb	r2, [r0, #0]
   8730a:	42aa      	cmp	r2, r5
   8730c:	d017      	beq.n	8733e <memchr+0x52>
   8730e:	f013 0f03 	tst.w	r3, #3
   87312:	4618      	mov	r0, r3
   87314:	f103 0301 	add.w	r3, r3, #1
   87318:	d1f3      	bne.n	87302 <memchr+0x16>
   8731a:	2c03      	cmp	r4, #3
   8731c:	d811      	bhi.n	87342 <memchr+0x56>
   8731e:	b34c      	cbz	r4, 87374 <memchr+0x88>
   87320:	7803      	ldrb	r3, [r0, #0]
   87322:	42ab      	cmp	r3, r5
   87324:	d00b      	beq.n	8733e <memchr+0x52>
   87326:	4404      	add	r4, r0
   87328:	1c43      	adds	r3, r0, #1
   8732a:	e002      	b.n	87332 <memchr+0x46>
   8732c:	7802      	ldrb	r2, [r0, #0]
   8732e:	42aa      	cmp	r2, r5
   87330:	d005      	beq.n	8733e <memchr+0x52>
   87332:	429c      	cmp	r4, r3
   87334:	4618      	mov	r0, r3
   87336:	f103 0301 	add.w	r3, r3, #1
   8733a:	d1f7      	bne.n	8732c <memchr+0x40>
   8733c:	2000      	movs	r0, #0
   8733e:	bc70      	pop	{r4, r5, r6}
   87340:	4770      	bx	lr
   87342:	0209      	lsls	r1, r1, #8
   87344:	b289      	uxth	r1, r1
   87346:	4329      	orrs	r1, r5
   87348:	ea41 4101 	orr.w	r1, r1, r1, lsl #16
   8734c:	6803      	ldr	r3, [r0, #0]
   8734e:	4606      	mov	r6, r0
   87350:	404b      	eors	r3, r1
   87352:	f1a3 3201 	sub.w	r2, r3, #16843009	; 0x1010101
   87356:	ea22 0303 	bic.w	r3, r2, r3
   8735a:	f013 3f80 	tst.w	r3, #2155905152	; 0x80808080
   8735e:	f100 0004 	add.w	r0, r0, #4
   87362:	d103      	bne.n	8736c <memchr+0x80>
   87364:	3c04      	subs	r4, #4
   87366:	2c03      	cmp	r4, #3
   87368:	d8f0      	bhi.n	8734c <memchr+0x60>
   8736a:	e7d8      	b.n	8731e <memchr+0x32>
   8736c:	4630      	mov	r0, r6
   8736e:	e7d7      	b.n	87320 <memchr+0x34>
   87370:	4614      	mov	r4, r2
   87372:	e7d2      	b.n	8731a <memchr+0x2e>
   87374:	4620      	mov	r0, r4
   87376:	e7e2      	b.n	8733e <memchr+0x52>

00087378 <memcpy>:
   87378:	4684      	mov	ip, r0
   8737a:	ea41 0300 	orr.w	r3, r1, r0
   8737e:	f013 0303 	ands.w	r3, r3, #3
   87382:	d149      	bne.n	87418 <memcpy+0xa0>
   87384:	3a40      	subs	r2, #64	; 0x40
   87386:	d323      	bcc.n	873d0 <memcpy+0x58>
   87388:	680b      	ldr	r3, [r1, #0]
   8738a:	6003      	str	r3, [r0, #0]
   8738c:	684b      	ldr	r3, [r1, #4]
   8738e:	6043      	str	r3, [r0, #4]
   87390:	688b      	ldr	r3, [r1, #8]
   87392:	6083      	str	r3, [r0, #8]
   87394:	68cb      	ldr	r3, [r1, #12]
   87396:	60c3      	str	r3, [r0, #12]
   87398:	690b      	ldr	r3, [r1, #16]
   8739a:	6103      	str	r3, [r0, #16]
   8739c:	694b      	ldr	r3, [r1, #20]
   8739e:	6143      	str	r3, [r0, #20]
   873a0:	698b      	ldr	r3, [r1, #24]
   873a2:	6183      	str	r3, [r0, #24]
   873a4:	69cb      	ldr	r3, [r1, #28]
   873a6:	61c3      	str	r3, [r0, #28]
   873a8:	6a0b      	ldr	r3, [r1, #32]
   873aa:	6203      	str	r3, [r0, #32]
   873ac:	6a4b      	ldr	r3, [r1, #36]	; 0x24
   873ae:	6243      	str	r3, [r0, #36]	; 0x24
   873b0:	6a8b      	ldr	r3, [r1, #40]	; 0x28
   873b2:	6283      	str	r3, [r0, #40]	; 0x28
   873b4:	6acb      	ldr	r3, [r1, #44]	; 0x2c
   873b6:	62c3      	str	r3, [r0, #44]	; 0x2c
   873b8:	6b0b      	ldr	r3, [r1, #48]	; 0x30
   873ba:	6303      	str	r3, [r0, #48]	; 0x30
   873bc:	6b4b      	ldr	r3, [r1, #52]	; 0x34
   873be:	6343      	str	r3, [r0, #52]	; 0x34
   873c0:	6b8b      	ldr	r3, [r1, #56]	; 0x38
   873c2:	6383      	str	r3, [r0, #56]	; 0x38
   873c4:	6bcb      	ldr	r3, [r1, #60]	; 0x3c
   873c6:	63c3      	str	r3, [r0, #60]	; 0x3c
   873c8:	3040      	adds	r0, #64	; 0x40
   873ca:	3140      	adds	r1, #64	; 0x40
   873cc:	3a40      	subs	r2, #64	; 0x40
   873ce:	d2db      	bcs.n	87388 <memcpy+0x10>
   873d0:	3230      	adds	r2, #48	; 0x30
   873d2:	d30b      	bcc.n	873ec <memcpy+0x74>
   873d4:	680b      	ldr	r3, [r1, #0]
   873d6:	6003      	str	r3, [r0, #0]
   873d8:	684b      	ldr	r3, [r1, #4]
   873da:	6043      	str	r3, [r0, #4]
   873dc:	688b      	ldr	r3, [r1, #8]
   873de:	6083      	str	r3, [r0, #8]
   873e0:	68cb      	ldr	r3, [r1, #12]
   873e2:	60c3      	str	r3, [r0, #12]
   873e4:	3010      	adds	r0, #16
   873e6:	3110      	adds	r1, #16
   873e8:	3a10      	subs	r2, #16
   873ea:	d2f3      	bcs.n	873d4 <memcpy+0x5c>
   873ec:	320c      	adds	r2, #12
   873ee:	d305      	bcc.n	873fc <memcpy+0x84>
   873f0:	f851 3b04 	ldr.w	r3, [r1], #4
   873f4:	f840 3b04 	str.w	r3, [r0], #4
   873f8:	3a04      	subs	r2, #4
   873fa:	d2f9      	bcs.n	873f0 <memcpy+0x78>
   873fc:	3204      	adds	r2, #4
   873fe:	d008      	beq.n	87412 <memcpy+0x9a>
   87400:	07d2      	lsls	r2, r2, #31
   87402:	bf1c      	itt	ne
   87404:	f811 3b01 	ldrbne.w	r3, [r1], #1
   87408:	f800 3b01 	strbne.w	r3, [r0], #1
   8740c:	d301      	bcc.n	87412 <memcpy+0x9a>
   8740e:	880b      	ldrh	r3, [r1, #0]
   87410:	8003      	strh	r3, [r0, #0]
   87412:	4660      	mov	r0, ip
   87414:	4770      	bx	lr
   87416:	bf00      	nop
   87418:	2a08      	cmp	r2, #8
   8741a:	d313      	bcc.n	87444 <memcpy+0xcc>
   8741c:	078b      	lsls	r3, r1, #30
   8741e:	d0b1      	beq.n	87384 <memcpy+0xc>
   87420:	f010 0303 	ands.w	r3, r0, #3
   87424:	d0ae      	beq.n	87384 <memcpy+0xc>
   87426:	f1c3 0304 	rsb	r3, r3, #4
   8742a:	1ad2      	subs	r2, r2, r3
   8742c:	07db      	lsls	r3, r3, #31
   8742e:	bf1c      	itt	ne
   87430:	f811 3b01 	ldrbne.w	r3, [r1], #1
   87434:	f800 3b01 	strbne.w	r3, [r0], #1
   87438:	d3a4      	bcc.n	87384 <memcpy+0xc>
   8743a:	f831 3b02 	ldrh.w	r3, [r1], #2
   8743e:	f820 3b02 	strh.w	r3, [r0], #2
   87442:	e79f      	b.n	87384 <memcpy+0xc>
   87444:	3a04      	subs	r2, #4
   87446:	d3d9      	bcc.n	873fc <memcpy+0x84>
   87448:	3a01      	subs	r2, #1
   8744a:	f811 3b01 	ldrb.w	r3, [r1], #1
   8744e:	f800 3b01 	strb.w	r3, [r0], #1
   87452:	d2f9      	bcs.n	87448 <memcpy+0xd0>
   87454:	780b      	ldrb	r3, [r1, #0]
   87456:	7003      	strb	r3, [r0, #0]
   87458:	784b      	ldrb	r3, [r1, #1]
   8745a:	7043      	strb	r3, [r0, #1]
   8745c:	788b      	ldrb	r3, [r1, #2]
   8745e:	7083      	strb	r3, [r0, #2]
   87460:	4660      	mov	r0, ip
   87462:	4770      	bx	lr

00087464 <memmove>:
   87464:	4288      	cmp	r0, r1
   87466:	b5f0      	push	{r4, r5, r6, r7, lr}
   87468:	d90d      	bls.n	87486 <memmove+0x22>
   8746a:	188b      	adds	r3, r1, r2
   8746c:	4298      	cmp	r0, r3
   8746e:	d20a      	bcs.n	87486 <memmove+0x22>
   87470:	1884      	adds	r4, r0, r2
   87472:	2a00      	cmp	r2, #0
   87474:	d051      	beq.n	8751a <memmove+0xb6>
   87476:	4622      	mov	r2, r4
   87478:	f813 4d01 	ldrb.w	r4, [r3, #-1]!
   8747c:	4299      	cmp	r1, r3
   8747e:	f802 4d01 	strb.w	r4, [r2, #-1]!
   87482:	d1f9      	bne.n	87478 <memmove+0x14>
   87484:	bdf0      	pop	{r4, r5, r6, r7, pc}
   87486:	2a0f      	cmp	r2, #15
   87488:	d948      	bls.n	8751c <memmove+0xb8>
   8748a:	ea41 0300 	orr.w	r3, r1, r0
   8748e:	079b      	lsls	r3, r3, #30
   87490:	d146      	bne.n	87520 <memmove+0xbc>
   87492:	4615      	mov	r5, r2
   87494:	f100 0410 	add.w	r4, r0, #16
   87498:	f101 0310 	add.w	r3, r1, #16
   8749c:	f853 6c10 	ldr.w	r6, [r3, #-16]
   874a0:	3d10      	subs	r5, #16
   874a2:	f844 6c10 	str.w	r6, [r4, #-16]
   874a6:	f853 6c0c 	ldr.w	r6, [r3, #-12]
   874aa:	2d0f      	cmp	r5, #15
   874ac:	f844 6c0c 	str.w	r6, [r4, #-12]
   874b0:	f853 6c08 	ldr.w	r6, [r3, #-8]
   874b4:	f104 0410 	add.w	r4, r4, #16
   874b8:	f844 6c18 	str.w	r6, [r4, #-24]
   874bc:	f853 6c04 	ldr.w	r6, [r3, #-4]
   874c0:	f103 0310 	add.w	r3, r3, #16
   874c4:	f844 6c14 	str.w	r6, [r4, #-20]
   874c8:	d8e8      	bhi.n	8749c <memmove+0x38>
   874ca:	f1a2 0310 	sub.w	r3, r2, #16
   874ce:	f023 030f 	bic.w	r3, r3, #15
   874d2:	f002 0e0f 	and.w	lr, r2, #15
   874d6:	3310      	adds	r3, #16
   874d8:	f1be 0f03 	cmp.w	lr, #3
   874dc:	4419      	add	r1, r3
   874de:	4403      	add	r3, r0
   874e0:	d921      	bls.n	87526 <memmove+0xc2>
   874e2:	460e      	mov	r6, r1
   874e4:	4674      	mov	r4, lr
   874e6:	1f1d      	subs	r5, r3, #4
   874e8:	f856 7b04 	ldr.w	r7, [r6], #4
   874ec:	3c04      	subs	r4, #4
   874ee:	2c03      	cmp	r4, #3
   874f0:	f845 7f04 	str.w	r7, [r5, #4]!
   874f4:	d8f8      	bhi.n	874e8 <memmove+0x84>
   874f6:	f1ae 0404 	sub.w	r4, lr, #4
   874fa:	f024 0403 	bic.w	r4, r4, #3
   874fe:	3404      	adds	r4, #4
   87500:	4421      	add	r1, r4
   87502:	4423      	add	r3, r4
   87504:	f002 0203 	and.w	r2, r2, #3
   87508:	b162      	cbz	r2, 87524 <memmove+0xc0>
   8750a:	3b01      	subs	r3, #1
   8750c:	440a      	add	r2, r1
   8750e:	f811 4b01 	ldrb.w	r4, [r1], #1
   87512:	428a      	cmp	r2, r1
   87514:	f803 4f01 	strb.w	r4, [r3, #1]!
   87518:	d1f9      	bne.n	8750e <memmove+0xaa>
   8751a:	bdf0      	pop	{r4, r5, r6, r7, pc}
   8751c:	4603      	mov	r3, r0
   8751e:	e7f3      	b.n	87508 <memmove+0xa4>
   87520:	4603      	mov	r3, r0
   87522:	e7f2      	b.n	8750a <memmove+0xa6>
   87524:	bdf0      	pop	{r4, r5, r6, r7, pc}
   87526:	4672      	mov	r2, lr
   87528:	e7ee      	b.n	87508 <memmove+0xa4>
   8752a:	bf00      	nop

0008752c <_Balloc>:
   8752c:	6cc3      	ldr	r3, [r0, #76]	; 0x4c
   8752e:	b570      	push	{r4, r5, r6, lr}
   87530:	4605      	mov	r5, r0
   87532:	460c      	mov	r4, r1
   87534:	b14b      	cbz	r3, 8754a <_Balloc+0x1e>
   87536:	f853 0024 	ldr.w	r0, [r3, r4, lsl #2]
   8753a:	b180      	cbz	r0, 8755e <_Balloc+0x32>
   8753c:	6802      	ldr	r2, [r0, #0]
   8753e:	f843 2024 	str.w	r2, [r3, r4, lsl #2]
   87542:	2300      	movs	r3, #0
   87544:	6103      	str	r3, [r0, #16]
   87546:	60c3      	str	r3, [r0, #12]
   87548:	bd70      	pop	{r4, r5, r6, pc}
   8754a:	2221      	movs	r2, #33	; 0x21
   8754c:	2104      	movs	r1, #4
   8754e:	f000 fe67 	bl	88220 <_calloc_r>
   87552:	64e8      	str	r0, [r5, #76]	; 0x4c
   87554:	4603      	mov	r3, r0
   87556:	2800      	cmp	r0, #0
   87558:	d1ed      	bne.n	87536 <_Balloc+0xa>
   8755a:	2000      	movs	r0, #0
   8755c:	bd70      	pop	{r4, r5, r6, pc}
   8755e:	2101      	movs	r1, #1
   87560:	fa01 f604 	lsl.w	r6, r1, r4
   87564:	1d72      	adds	r2, r6, #5
   87566:	4628      	mov	r0, r5
   87568:	0092      	lsls	r2, r2, #2
   8756a:	f000 fe59 	bl	88220 <_calloc_r>
   8756e:	2800      	cmp	r0, #0
   87570:	d0f3      	beq.n	8755a <_Balloc+0x2e>
   87572:	6044      	str	r4, [r0, #4]
   87574:	6086      	str	r6, [r0, #8]
   87576:	e7e4      	b.n	87542 <_Balloc+0x16>

00087578 <_Bfree>:
   87578:	b131      	cbz	r1, 87588 <_Bfree+0x10>
   8757a:	6cc3      	ldr	r3, [r0, #76]	; 0x4c
   8757c:	684a      	ldr	r2, [r1, #4]
   8757e:	f853 0022 	ldr.w	r0, [r3, r2, lsl #2]
   87582:	6008      	str	r0, [r1, #0]
   87584:	f843 1022 	str.w	r1, [r3, r2, lsl #2]
   87588:	4770      	bx	lr
   8758a:	bf00      	nop

0008758c <__multadd>:
   8758c:	b5f0      	push	{r4, r5, r6, r7, lr}
   8758e:	460c      	mov	r4, r1
   87590:	4605      	mov	r5, r0
   87592:	f04f 0e00 	mov.w	lr, #0
   87596:	690e      	ldr	r6, [r1, #16]
   87598:	b083      	sub	sp, #12
   8759a:	f101 0714 	add.w	r7, r1, #20
   8759e:	6838      	ldr	r0, [r7, #0]
   875a0:	f10e 0e01 	add.w	lr, lr, #1
   875a4:	b281      	uxth	r1, r0
   875a6:	fb02 3301 	mla	r3, r2, r1, r3
   875aa:	0c01      	lsrs	r1, r0, #16
   875ac:	0c18      	lsrs	r0, r3, #16
   875ae:	fb02 0101 	mla	r1, r2, r1, r0
   875b2:	b29b      	uxth	r3, r3
   875b4:	eb03 4301 	add.w	r3, r3, r1, lsl #16
   875b8:	4576      	cmp	r6, lr
   875ba:	f847 3b04 	str.w	r3, [r7], #4
   875be:	ea4f 4311 	mov.w	r3, r1, lsr #16
   875c2:	dcec      	bgt.n	8759e <__multadd+0x12>
   875c4:	b13b      	cbz	r3, 875d6 <__multadd+0x4a>
   875c6:	68a2      	ldr	r2, [r4, #8]
   875c8:	4296      	cmp	r6, r2
   875ca:	da07      	bge.n	875dc <__multadd+0x50>
   875cc:	eb04 0286 	add.w	r2, r4, r6, lsl #2
   875d0:	3601      	adds	r6, #1
   875d2:	6153      	str	r3, [r2, #20]
   875d4:	6126      	str	r6, [r4, #16]
   875d6:	4620      	mov	r0, r4
   875d8:	b003      	add	sp, #12
   875da:	bdf0      	pop	{r4, r5, r6, r7, pc}
   875dc:	6861      	ldr	r1, [r4, #4]
   875de:	4628      	mov	r0, r5
   875e0:	3101      	adds	r1, #1
   875e2:	9301      	str	r3, [sp, #4]
   875e4:	f7ff ffa2 	bl	8752c <_Balloc>
   875e8:	4607      	mov	r7, r0
   875ea:	6922      	ldr	r2, [r4, #16]
   875ec:	f104 010c 	add.w	r1, r4, #12
   875f0:	3202      	adds	r2, #2
   875f2:	0092      	lsls	r2, r2, #2
   875f4:	300c      	adds	r0, #12
   875f6:	f7ff febf 	bl	87378 <memcpy>
   875fa:	6cea      	ldr	r2, [r5, #76]	; 0x4c
   875fc:	6861      	ldr	r1, [r4, #4]
   875fe:	9b01      	ldr	r3, [sp, #4]
   87600:	f852 0021 	ldr.w	r0, [r2, r1, lsl #2]
   87604:	6020      	str	r0, [r4, #0]
   87606:	f842 4021 	str.w	r4, [r2, r1, lsl #2]
   8760a:	463c      	mov	r4, r7
   8760c:	e7de      	b.n	875cc <__multadd+0x40>
   8760e:	bf00      	nop

00087610 <__hi0bits>:
   87610:	0c02      	lsrs	r2, r0, #16
   87612:	0412      	lsls	r2, r2, #16
   87614:	4603      	mov	r3, r0
   87616:	b9b2      	cbnz	r2, 87646 <__hi0bits+0x36>
   87618:	0403      	lsls	r3, r0, #16
   8761a:	2010      	movs	r0, #16
   8761c:	f013 4f7f 	tst.w	r3, #4278190080	; 0xff000000
   87620:	bf04      	itt	eq
   87622:	021b      	lsleq	r3, r3, #8
   87624:	3008      	addeq	r0, #8
   87626:	f013 4f70 	tst.w	r3, #4026531840	; 0xf0000000
   8762a:	bf04      	itt	eq
   8762c:	011b      	lsleq	r3, r3, #4
   8762e:	3004      	addeq	r0, #4
   87630:	f013 4f40 	tst.w	r3, #3221225472	; 0xc0000000
   87634:	bf04      	itt	eq
   87636:	009b      	lsleq	r3, r3, #2
   87638:	3002      	addeq	r0, #2
   8763a:	2b00      	cmp	r3, #0
   8763c:	db02      	blt.n	87644 <__hi0bits+0x34>
   8763e:	005b      	lsls	r3, r3, #1
   87640:	d403      	bmi.n	8764a <__hi0bits+0x3a>
   87642:	2020      	movs	r0, #32
   87644:	4770      	bx	lr
   87646:	2000      	movs	r0, #0
   87648:	e7e8      	b.n	8761c <__hi0bits+0xc>
   8764a:	3001      	adds	r0, #1
   8764c:	4770      	bx	lr
   8764e:	bf00      	nop

00087650 <__lo0bits>:
   87650:	6803      	ldr	r3, [r0, #0]
   87652:	4601      	mov	r1, r0
   87654:	f013 0207 	ands.w	r2, r3, #7
   87658:	d007      	beq.n	8766a <__lo0bits+0x1a>
   8765a:	07da      	lsls	r2, r3, #31
   8765c:	d421      	bmi.n	876a2 <__lo0bits+0x52>
   8765e:	0798      	lsls	r0, r3, #30
   87660:	d421      	bmi.n	876a6 <__lo0bits+0x56>
   87662:	089b      	lsrs	r3, r3, #2
   87664:	600b      	str	r3, [r1, #0]
   87666:	2002      	movs	r0, #2
   87668:	4770      	bx	lr
   8766a:	b298      	uxth	r0, r3
   8766c:	b198      	cbz	r0, 87696 <__lo0bits+0x46>
   8766e:	4610      	mov	r0, r2
   87670:	f013 0fff 	tst.w	r3, #255	; 0xff
   87674:	bf04      	itt	eq
   87676:	0a1b      	lsreq	r3, r3, #8
   87678:	3008      	addeq	r0, #8
   8767a:	071a      	lsls	r2, r3, #28
   8767c:	bf04      	itt	eq
   8767e:	091b      	lsreq	r3, r3, #4
   87680:	3004      	addeq	r0, #4
   87682:	079a      	lsls	r2, r3, #30
   87684:	bf04      	itt	eq
   87686:	089b      	lsreq	r3, r3, #2
   87688:	3002      	addeq	r0, #2
   8768a:	07da      	lsls	r2, r3, #31
   8768c:	d407      	bmi.n	8769e <__lo0bits+0x4e>
   8768e:	085b      	lsrs	r3, r3, #1
   87690:	d104      	bne.n	8769c <__lo0bits+0x4c>
   87692:	2020      	movs	r0, #32
   87694:	4770      	bx	lr
   87696:	0c1b      	lsrs	r3, r3, #16
   87698:	2010      	movs	r0, #16
   8769a:	e7e9      	b.n	87670 <__lo0bits+0x20>
   8769c:	3001      	adds	r0, #1
   8769e:	600b      	str	r3, [r1, #0]
   876a0:	4770      	bx	lr
   876a2:	2000      	movs	r0, #0
   876a4:	4770      	bx	lr
   876a6:	085b      	lsrs	r3, r3, #1
   876a8:	600b      	str	r3, [r1, #0]
   876aa:	2001      	movs	r0, #1
   876ac:	4770      	bx	lr
   876ae:	bf00      	nop

000876b0 <__i2b>:
   876b0:	b510      	push	{r4, lr}
   876b2:	460c      	mov	r4, r1
   876b4:	2101      	movs	r1, #1
   876b6:	f7ff ff39 	bl	8752c <_Balloc>
   876ba:	2201      	movs	r2, #1
   876bc:	6144      	str	r4, [r0, #20]
   876be:	6102      	str	r2, [r0, #16]
   876c0:	bd10      	pop	{r4, pc}
   876c2:	bf00      	nop

000876c4 <__multiply>:
   876c4:	e92d 4ff0 	stmdb	sp!, {r4, r5, r6, r7, r8, r9, sl, fp, lr}
   876c8:	690c      	ldr	r4, [r1, #16]
   876ca:	6915      	ldr	r5, [r2, #16]
   876cc:	b083      	sub	sp, #12
   876ce:	42ac      	cmp	r4, r5
   876d0:	468b      	mov	fp, r1
   876d2:	4616      	mov	r6, r2
   876d4:	da04      	bge.n	876e0 <__multiply+0x1c>
   876d6:	4622      	mov	r2, r4
   876d8:	46b3      	mov	fp, r6
   876da:	462c      	mov	r4, r5
   876dc:	460e      	mov	r6, r1
   876de:	4615      	mov	r5, r2
   876e0:	f8db 3008 	ldr.w	r3, [fp, #8]
   876e4:	eb04 0805 	add.w	r8, r4, r5
   876e8:	f8db 1004 	ldr.w	r1, [fp, #4]
   876ec:	4598      	cmp	r8, r3
   876ee:	bfc8      	it	gt
   876f0:	3101      	addgt	r1, #1
   876f2:	f7ff ff1b 	bl	8752c <_Balloc>
   876f6:	f100 0914 	add.w	r9, r0, #20
   876fa:	eb09 0a88 	add.w	sl, r9, r8, lsl #2
   876fe:	45d1      	cmp	r9, sl
   87700:	9000      	str	r0, [sp, #0]
   87702:	d205      	bcs.n	87710 <__multiply+0x4c>
   87704:	464b      	mov	r3, r9
   87706:	2100      	movs	r1, #0
   87708:	f843 1b04 	str.w	r1, [r3], #4
   8770c:	459a      	cmp	sl, r3
   8770e:	d8fb      	bhi.n	87708 <__multiply+0x44>
   87710:	f106 0c14 	add.w	ip, r6, #20
   87714:	eb0c 0385 	add.w	r3, ip, r5, lsl #2
   87718:	f10b 0b14 	add.w	fp, fp, #20
   8771c:	459c      	cmp	ip, r3
   8771e:	eb0b 0e84 	add.w	lr, fp, r4, lsl #2
   87722:	d24b      	bcs.n	877bc <__multiply+0xf8>
   87724:	f8cd a004 	str.w	sl, [sp, #4]
   87728:	469a      	mov	sl, r3
   8772a:	f8dc 5000 	ldr.w	r5, [ip]
   8772e:	b2af      	uxth	r7, r5
   87730:	b1e7      	cbz	r7, 8776c <__multiply+0xa8>
   87732:	464d      	mov	r5, r9
   87734:	465e      	mov	r6, fp
   87736:	2100      	movs	r1, #0
   87738:	f856 2b04 	ldr.w	r2, [r6], #4
   8773c:	6828      	ldr	r0, [r5, #0]
   8773e:	b293      	uxth	r3, r2
   87740:	b284      	uxth	r4, r0
   87742:	0c12      	lsrs	r2, r2, #16
   87744:	fb07 4303 	mla	r3, r7, r3, r4
   87748:	0c00      	lsrs	r0, r0, #16
   8774a:	fb07 0202 	mla	r2, r7, r2, r0
   8774e:	440b      	add	r3, r1
   87750:	eb02 4113 	add.w	r1, r2, r3, lsr #16
   87754:	b29b      	uxth	r3, r3
   87756:	ea43 4301 	orr.w	r3, r3, r1, lsl #16
   8775a:	45b6      	cmp	lr, r6
   8775c:	f845 3b04 	str.w	r3, [r5], #4
   87760:	ea4f 4111 	mov.w	r1, r1, lsr #16
   87764:	d8e8      	bhi.n	87738 <__multiply+0x74>
   87766:	6029      	str	r1, [r5, #0]
   87768:	f8dc 5000 	ldr.w	r5, [ip]
   8776c:	0c2d      	lsrs	r5, r5, #16
   8776e:	d01d      	beq.n	877ac <__multiply+0xe8>
   87770:	f8d9 3000 	ldr.w	r3, [r9]
   87774:	4648      	mov	r0, r9
   87776:	461c      	mov	r4, r3
   87778:	4659      	mov	r1, fp
   8777a:	2200      	movs	r2, #0
   8777c:	880e      	ldrh	r6, [r1, #0]
   8777e:	0c24      	lsrs	r4, r4, #16
   87780:	fb05 4406 	mla	r4, r5, r6, r4
   87784:	b29b      	uxth	r3, r3
   87786:	4422      	add	r2, r4
   87788:	ea43 4302 	orr.w	r3, r3, r2, lsl #16
   8778c:	f840 3b04 	str.w	r3, [r0], #4
   87790:	f851 3b04 	ldr.w	r3, [r1], #4
   87794:	6804      	ldr	r4, [r0, #0]
   87796:	0c1b      	lsrs	r3, r3, #16
   87798:	b2a6      	uxth	r6, r4
   8779a:	fb05 6303 	mla	r3, r5, r3, r6
   8779e:	458e      	cmp	lr, r1
   877a0:	eb03 4312 	add.w	r3, r3, r2, lsr #16
   877a4:	ea4f 4213 	mov.w	r2, r3, lsr #16
   877a8:	d8e8      	bhi.n	8777c <__multiply+0xb8>
   877aa:	6003      	str	r3, [r0, #0]
   877ac:	f10c 0c04 	add.w	ip, ip, #4
   877b0:	45e2      	cmp	sl, ip
   877b2:	f109 0904 	add.w	r9, r9, #4
   877b6:	d8b8      	bhi.n	8772a <__multiply+0x66>
   877b8:	f8dd a004 	ldr.w	sl, [sp, #4]
   877bc:	f1b8 0f00 	cmp.w	r8, #0
   877c0:	dd0b      	ble.n	877da <__multiply+0x116>
   877c2:	f85a 3c04 	ldr.w	r3, [sl, #-4]
   877c6:	f1aa 0a04 	sub.w	sl, sl, #4
   877ca:	b11b      	cbz	r3, 877d4 <__multiply+0x110>
   877cc:	e005      	b.n	877da <__multiply+0x116>
   877ce:	f85a 3d04 	ldr.w	r3, [sl, #-4]!
   877d2:	b913      	cbnz	r3, 877da <__multiply+0x116>
   877d4:	f1b8 0801 	subs.w	r8, r8, #1
   877d8:	d1f9      	bne.n	877ce <__multiply+0x10a>
   877da:	9800      	ldr	r0, [sp, #0]
   877dc:	f8c0 8010 	str.w	r8, [r0, #16]
   877e0:	b003      	add	sp, #12
   877e2:	e8bd 8ff0 	ldmia.w	sp!, {r4, r5, r6, r7, r8, r9, sl, fp, pc}
   877e6:	bf00      	nop

000877e8 <__pow5mult>:
   877e8:	f012 0303 	ands.w	r3, r2, #3
   877ec:	e92d 41f0 	stmdb	sp!, {r4, r5, r6, r7, r8, lr}
   877f0:	4614      	mov	r4, r2
   877f2:	4607      	mov	r7, r0
   877f4:	d12e      	bne.n	87854 <__pow5mult+0x6c>
   877f6:	460d      	mov	r5, r1
   877f8:	10a4      	asrs	r4, r4, #2
   877fa:	d01c      	beq.n	87836 <__pow5mult+0x4e>
   877fc:	6cbe      	ldr	r6, [r7, #72]	; 0x48
   877fe:	b396      	cbz	r6, 87866 <__pow5mult+0x7e>
   87800:	07e3      	lsls	r3, r4, #31
   87802:	f04f 0800 	mov.w	r8, #0
   87806:	d406      	bmi.n	87816 <__pow5mult+0x2e>
   87808:	1064      	asrs	r4, r4, #1
   8780a:	d014      	beq.n	87836 <__pow5mult+0x4e>
   8780c:	6830      	ldr	r0, [r6, #0]
   8780e:	b1a8      	cbz	r0, 8783c <__pow5mult+0x54>
   87810:	4606      	mov	r6, r0
   87812:	07e3      	lsls	r3, r4, #31
   87814:	d5f8      	bpl.n	87808 <__pow5mult+0x20>
   87816:	4632      	mov	r2, r6
   87818:	4629      	mov	r1, r5
   8781a:	4638      	mov	r0, r7
   8781c:	f7ff ff52 	bl	876c4 <__multiply>
   87820:	b1b5      	cbz	r5, 87850 <__pow5mult+0x68>
   87822:	686a      	ldr	r2, [r5, #4]
   87824:	6cfb      	ldr	r3, [r7, #76]	; 0x4c
   87826:	1064      	asrs	r4, r4, #1
   87828:	f853 1022 	ldr.w	r1, [r3, r2, lsl #2]
   8782c:	6029      	str	r1, [r5, #0]
   8782e:	f843 5022 	str.w	r5, [r3, r2, lsl #2]
   87832:	4605      	mov	r5, r0
   87834:	d1ea      	bne.n	8780c <__pow5mult+0x24>
   87836:	4628      	mov	r0, r5
   87838:	e8bd 81f0 	ldmia.w	sp!, {r4, r5, r6, r7, r8, pc}
   8783c:	4632      	mov	r2, r6
   8783e:	4631      	mov	r1, r6
   87840:	4638      	mov	r0, r7
   87842:	f7ff ff3f 	bl	876c4 <__multiply>
   87846:	6030      	str	r0, [r6, #0]
   87848:	f8c0 8000 	str.w	r8, [r0]
   8784c:	4606      	mov	r6, r0
   8784e:	e7e0      	b.n	87812 <__pow5mult+0x2a>
   87850:	4605      	mov	r5, r0
   87852:	e7d9      	b.n	87808 <__pow5mult+0x20>
   87854:	4a0b      	ldr	r2, [pc, #44]	; (87884 <__pow5mult+0x9c>)
   87856:	3b01      	subs	r3, #1
   87858:	f852 2023 	ldr.w	r2, [r2, r3, lsl #2]
   8785c:	2300      	movs	r3, #0
   8785e:	f7ff fe95 	bl	8758c <__multadd>
   87862:	4605      	mov	r5, r0
   87864:	e7c8      	b.n	877f8 <__pow5mult+0x10>
   87866:	2101      	movs	r1, #1
   87868:	4638      	mov	r0, r7
   8786a:	f7ff fe5f 	bl	8752c <_Balloc>
   8786e:	f240 2171 	movw	r1, #625	; 0x271
   87872:	2201      	movs	r2, #1
   87874:	2300      	movs	r3, #0
   87876:	6141      	str	r1, [r0, #20]
   87878:	6102      	str	r2, [r0, #16]
   8787a:	4606      	mov	r6, r0
   8787c:	64b8      	str	r0, [r7, #72]	; 0x48
   8787e:	6003      	str	r3, [r0, #0]
   87880:	e7be      	b.n	87800 <__pow5mult+0x18>
   87882:	bf00      	nop
   87884:	00088970 	.word	0x00088970

00087888 <__lshift>:
   87888:	e92d 43f8 	stmdb	sp!, {r3, r4, r5, r6, r7, r8, r9, lr}
   8788c:	690b      	ldr	r3, [r1, #16]
   8788e:	1154      	asrs	r4, r2, #5
   87890:	eb04 0803 	add.w	r8, r4, r3
   87894:	688b      	ldr	r3, [r1, #8]
   87896:	f108 0501 	add.w	r5, r8, #1
   8789a:	429d      	cmp	r5, r3
   8789c:	460e      	mov	r6, r1
   8789e:	4691      	mov	r9, r2
   878a0:	4607      	mov	r7, r0
   878a2:	6849      	ldr	r1, [r1, #4]
   878a4:	dd04      	ble.n	878b0 <__lshift+0x28>
   878a6:	005b      	lsls	r3, r3, #1
   878a8:	429d      	cmp	r5, r3
   878aa:	f101 0101 	add.w	r1, r1, #1
   878ae:	dcfa      	bgt.n	878a6 <__lshift+0x1e>
   878b0:	4638      	mov	r0, r7
   878b2:	f7ff fe3b 	bl	8752c <_Balloc>
   878b6:	2c00      	cmp	r4, #0
   878b8:	f100 0314 	add.w	r3, r0, #20
   878bc:	dd06      	ble.n	878cc <__lshift+0x44>
   878be:	2100      	movs	r1, #0
   878c0:	eb03 0284 	add.w	r2, r3, r4, lsl #2
   878c4:	f843 1b04 	str.w	r1, [r3], #4
   878c8:	429a      	cmp	r2, r3
   878ca:	d1fb      	bne.n	878c4 <__lshift+0x3c>
   878cc:	6934      	ldr	r4, [r6, #16]
   878ce:	f106 0114 	add.w	r1, r6, #20
   878d2:	f019 091f 	ands.w	r9, r9, #31
   878d6:	eb01 0e84 	add.w	lr, r1, r4, lsl #2
   878da:	d01d      	beq.n	87918 <__lshift+0x90>
   878dc:	2200      	movs	r2, #0
   878de:	f1c9 0c20 	rsb	ip, r9, #32
   878e2:	680c      	ldr	r4, [r1, #0]
   878e4:	fa04 f409 	lsl.w	r4, r4, r9
   878e8:	4314      	orrs	r4, r2
   878ea:	f843 4b04 	str.w	r4, [r3], #4
   878ee:	f851 2b04 	ldr.w	r2, [r1], #4
   878f2:	458e      	cmp	lr, r1
   878f4:	fa22 f20c 	lsr.w	r2, r2, ip
   878f8:	d8f3      	bhi.n	878e2 <__lshift+0x5a>
   878fa:	601a      	str	r2, [r3, #0]
   878fc:	b10a      	cbz	r2, 87902 <__lshift+0x7a>
   878fe:	f108 0502 	add.w	r5, r8, #2
   87902:	6cfb      	ldr	r3, [r7, #76]	; 0x4c
   87904:	6872      	ldr	r2, [r6, #4]
   87906:	3d01      	subs	r5, #1
   87908:	f853 1022 	ldr.w	r1, [r3, r2, lsl #2]
   8790c:	6105      	str	r5, [r0, #16]
   8790e:	6031      	str	r1, [r6, #0]
   87910:	f843 6022 	str.w	r6, [r3, r2, lsl #2]
   87914:	e8bd 83f8 	ldmia.w	sp!, {r3, r4, r5, r6, r7, r8, r9, pc}
   87918:	3b04      	subs	r3, #4
   8791a:	f851 2b04 	ldr.w	r2, [r1], #4
   8791e:	458e      	cmp	lr, r1
   87920:	f843 2f04 	str.w	r2, [r3, #4]!
   87924:	d8f9      	bhi.n	8791a <__lshift+0x92>
   87926:	e7ec      	b.n	87902 <__lshift+0x7a>

00087928 <__mcmp>:
   87928:	b430      	push	{r4, r5}
   8792a:	690b      	ldr	r3, [r1, #16]
   8792c:	4605      	mov	r5, r0
   8792e:	6900      	ldr	r0, [r0, #16]
   87930:	1ac0      	subs	r0, r0, r3
   87932:	d10f      	bne.n	87954 <__mcmp+0x2c>
   87934:	009b      	lsls	r3, r3, #2
   87936:	3514      	adds	r5, #20
   87938:	3114      	adds	r1, #20
   8793a:	4419      	add	r1, r3
   8793c:	442b      	add	r3, r5
   8793e:	e001      	b.n	87944 <__mcmp+0x1c>
   87940:	429d      	cmp	r5, r3
   87942:	d207      	bcs.n	87954 <__mcmp+0x2c>
   87944:	f853 4d04 	ldr.w	r4, [r3, #-4]!
   87948:	f851 2d04 	ldr.w	r2, [r1, #-4]!
   8794c:	4294      	cmp	r4, r2
   8794e:	d0f7      	beq.n	87940 <__mcmp+0x18>
   87950:	d302      	bcc.n	87958 <__mcmp+0x30>
   87952:	2001      	movs	r0, #1
   87954:	bc30      	pop	{r4, r5}
   87956:	4770      	bx	lr
   87958:	f04f 30ff 	mov.w	r0, #4294967295
   8795c:	e7fa      	b.n	87954 <__mcmp+0x2c>
   8795e:	bf00      	nop

00087960 <__mdiff>:
   87960:	e92d 4ff8 	stmdb	sp!, {r3, r4, r5, r6, r7, r8, r9, sl, fp, lr}
   87964:	690c      	ldr	r4, [r1, #16]
   87966:	4689      	mov	r9, r1
   87968:	6911      	ldr	r1, [r2, #16]
   8796a:	4692      	mov	sl, r2
   8796c:	1a64      	subs	r4, r4, r1
   8796e:	2c00      	cmp	r4, #0
   87970:	d117      	bne.n	879a2 <__mdiff+0x42>
   87972:	0089      	lsls	r1, r1, #2
   87974:	f109 0714 	add.w	r7, r9, #20
   87978:	f102 0614 	add.w	r6, r2, #20
   8797c:	187b      	adds	r3, r7, r1
   8797e:	4431      	add	r1, r6
   87980:	e001      	b.n	87986 <__mdiff+0x26>
   87982:	429f      	cmp	r7, r3
   87984:	d265      	bcs.n	87a52 <__mdiff+0xf2>
   87986:	f853 5d04 	ldr.w	r5, [r3, #-4]!
   8798a:	f851 2d04 	ldr.w	r2, [r1, #-4]!
   8798e:	4295      	cmp	r5, r2
   87990:	d0f7      	beq.n	87982 <__mdiff+0x22>
   87992:	d267      	bcs.n	87a64 <__mdiff+0x104>
   87994:	464b      	mov	r3, r9
   87996:	46bb      	mov	fp, r7
   87998:	46d1      	mov	r9, sl
   8799a:	4637      	mov	r7, r6
   8799c:	469a      	mov	sl, r3
   8799e:	2401      	movs	r4, #1
   879a0:	e005      	b.n	879ae <__mdiff+0x4e>
   879a2:	db61      	blt.n	87a68 <__mdiff+0x108>
   879a4:	2400      	movs	r4, #0
   879a6:	f109 0714 	add.w	r7, r9, #20
   879aa:	f10a 0b14 	add.w	fp, sl, #20
   879ae:	f8d9 1004 	ldr.w	r1, [r9, #4]
   879b2:	f7ff fdbb 	bl	8752c <_Balloc>
   879b6:	465d      	mov	r5, fp
   879b8:	f04f 0800 	mov.w	r8, #0
   879bc:	f8d9 e010 	ldr.w	lr, [r9, #16]
   879c0:	f8da 3010 	ldr.w	r3, [sl, #16]
   879c4:	463e      	mov	r6, r7
   879c6:	60c4      	str	r4, [r0, #12]
   879c8:	eb0b 0c83 	add.w	ip, fp, r3, lsl #2
   879cc:	eb07 078e 	add.w	r7, r7, lr, lsl #2
   879d0:	f100 0414 	add.w	r4, r0, #20
   879d4:	f856 9b04 	ldr.w	r9, [r6], #4
   879d8:	f855 2b04 	ldr.w	r2, [r5], #4
   879dc:	fa1f f389 	uxth.w	r3, r9
   879e0:	4443      	add	r3, r8
   879e2:	fa1f f882 	uxth.w	r8, r2
   879e6:	0c12      	lsrs	r2, r2, #16
   879e8:	eba3 0308 	sub.w	r3, r3, r8
   879ec:	ebc2 4219 	rsb	r2, r2, r9, lsr #16
   879f0:	eb02 4223 	add.w	r2, r2, r3, asr #16
   879f4:	b29b      	uxth	r3, r3
   879f6:	ea43 4302 	orr.w	r3, r3, r2, lsl #16
   879fa:	45ac      	cmp	ip, r5
   879fc:	f844 3b04 	str.w	r3, [r4], #4
   87a00:	ea4f 4822 	mov.w	r8, r2, asr #16
   87a04:	d8e6      	bhi.n	879d4 <__mdiff+0x74>
   87a06:	42b7      	cmp	r7, r6
   87a08:	d917      	bls.n	87a3a <__mdiff+0xda>
   87a0a:	46a4      	mov	ip, r4
   87a0c:	4635      	mov	r5, r6
   87a0e:	f855 3b04 	ldr.w	r3, [r5], #4
   87a12:	b299      	uxth	r1, r3
   87a14:	4441      	add	r1, r8
   87a16:	140a      	asrs	r2, r1, #16
   87a18:	eb02 4213 	add.w	r2, r2, r3, lsr #16
   87a1c:	b289      	uxth	r1, r1
   87a1e:	ea41 4302 	orr.w	r3, r1, r2, lsl #16
   87a22:	42af      	cmp	r7, r5
   87a24:	f84c 3b04 	str.w	r3, [ip], #4
   87a28:	ea4f 4822 	mov.w	r8, r2, asr #16
   87a2c:	d8ef      	bhi.n	87a0e <__mdiff+0xae>
   87a2e:	43f6      	mvns	r6, r6
   87a30:	4437      	add	r7, r6
   87a32:	f027 0703 	bic.w	r7, r7, #3
   87a36:	3704      	adds	r7, #4
   87a38:	443c      	add	r4, r7
   87a3a:	3c04      	subs	r4, #4
   87a3c:	b92b      	cbnz	r3, 87a4a <__mdiff+0xea>
   87a3e:	f854 3d04 	ldr.w	r3, [r4, #-4]!
   87a42:	f10e 3eff 	add.w	lr, lr, #4294967295
   87a46:	2b00      	cmp	r3, #0
   87a48:	d0f9      	beq.n	87a3e <__mdiff+0xde>
   87a4a:	f8c0 e010 	str.w	lr, [r0, #16]
   87a4e:	e8bd 8ff8 	ldmia.w	sp!, {r3, r4, r5, r6, r7, r8, r9, sl, fp, pc}
   87a52:	2100      	movs	r1, #0
   87a54:	f7ff fd6a 	bl	8752c <_Balloc>
   87a58:	2201      	movs	r2, #1
   87a5a:	2300      	movs	r3, #0
   87a5c:	6102      	str	r2, [r0, #16]
   87a5e:	6143      	str	r3, [r0, #20]
   87a60:	e8bd 8ff8 	ldmia.w	sp!, {r3, r4, r5, r6, r7, r8, r9, sl, fp, pc}
   87a64:	46b3      	mov	fp, r6
   87a66:	e7a2      	b.n	879ae <__mdiff+0x4e>
   87a68:	464b      	mov	r3, r9
   87a6a:	f109 0b14 	add.w	fp, r9, #20
   87a6e:	f102 0714 	add.w	r7, r2, #20
   87a72:	4691      	mov	r9, r2
   87a74:	2401      	movs	r4, #1
   87a76:	469a      	mov	sl, r3
   87a78:	e799      	b.n	879ae <__mdiff+0x4e>
   87a7a:	bf00      	nop

00087a7c <__d2b>:
   87a7c:	b5f0      	push	{r4, r5, r6, r7, lr}
   87a7e:	2101      	movs	r1, #1
   87a80:	b083      	sub	sp, #12
   87a82:	461c      	mov	r4, r3
   87a84:	f3c3 550a 	ubfx	r5, r3, #20, #11
   87a88:	4616      	mov	r6, r2
   87a8a:	f7ff fd4f 	bl	8752c <_Balloc>
   87a8e:	f3c4 0413 	ubfx	r4, r4, #0, #20
   87a92:	4607      	mov	r7, r0
   87a94:	b10d      	cbz	r5, 87a9a <__d2b+0x1e>
   87a96:	f444 1480 	orr.w	r4, r4, #1048576	; 0x100000
   87a9a:	9401      	str	r4, [sp, #4]
   87a9c:	b306      	cbz	r6, 87ae0 <__d2b+0x64>
   87a9e:	a802      	add	r0, sp, #8
   87aa0:	f840 6d08 	str.w	r6, [r0, #-8]!
   87aa4:	f7ff fdd4 	bl	87650 <__lo0bits>
   87aa8:	2800      	cmp	r0, #0
   87aaa:	d130      	bne.n	87b0e <__d2b+0x92>
   87aac:	e89d 000c 	ldmia.w	sp, {r2, r3}
   87ab0:	617a      	str	r2, [r7, #20]
   87ab2:	2b00      	cmp	r3, #0
   87ab4:	bf0c      	ite	eq
   87ab6:	2101      	moveq	r1, #1
   87ab8:	2102      	movne	r1, #2
   87aba:	61bb      	str	r3, [r7, #24]
   87abc:	6139      	str	r1, [r7, #16]
   87abe:	b9d5      	cbnz	r5, 87af6 <__d2b+0x7a>
   87ac0:	9a08      	ldr	r2, [sp, #32]
   87ac2:	eb07 0381 	add.w	r3, r7, r1, lsl #2
   87ac6:	f2a0 4032 	subw	r0, r0, #1074	; 0x432
   87aca:	6010      	str	r0, [r2, #0]
   87acc:	6918      	ldr	r0, [r3, #16]
   87ace:	f7ff fd9f 	bl	87610 <__hi0bits>
   87ad2:	9b09      	ldr	r3, [sp, #36]	; 0x24
   87ad4:	ebc0 1041 	rsb	r0, r0, r1, lsl #5
   87ad8:	6018      	str	r0, [r3, #0]
   87ada:	4638      	mov	r0, r7
   87adc:	b003      	add	sp, #12
   87ade:	bdf0      	pop	{r4, r5, r6, r7, pc}
   87ae0:	a801      	add	r0, sp, #4
   87ae2:	f7ff fdb5 	bl	87650 <__lo0bits>
   87ae6:	2201      	movs	r2, #1
   87ae8:	9b01      	ldr	r3, [sp, #4]
   87aea:	4611      	mov	r1, r2
   87aec:	3020      	adds	r0, #32
   87aee:	613a      	str	r2, [r7, #16]
   87af0:	617b      	str	r3, [r7, #20]
   87af2:	2d00      	cmp	r5, #0
   87af4:	d0e4      	beq.n	87ac0 <__d2b+0x44>
   87af6:	f2a5 4333 	subw	r3, r5, #1075	; 0x433
   87afa:	9a08      	ldr	r2, [sp, #32]
   87afc:	4403      	add	r3, r0
   87afe:	6013      	str	r3, [r2, #0]
   87b00:	9b09      	ldr	r3, [sp, #36]	; 0x24
   87b02:	f1c0 0035 	rsb	r0, r0, #53	; 0x35
   87b06:	6018      	str	r0, [r3, #0]
   87b08:	4638      	mov	r0, r7
   87b0a:	b003      	add	sp, #12
   87b0c:	bdf0      	pop	{r4, r5, r6, r7, pc}
   87b0e:	9b01      	ldr	r3, [sp, #4]
   87b10:	f1c0 0220 	rsb	r2, r0, #32
   87b14:	9900      	ldr	r1, [sp, #0]
   87b16:	fa03 f202 	lsl.w	r2, r3, r2
   87b1a:	430a      	orrs	r2, r1
   87b1c:	40c3      	lsrs	r3, r0
   87b1e:	9301      	str	r3, [sp, #4]
   87b20:	617a      	str	r2, [r7, #20]
   87b22:	e7c6      	b.n	87ab2 <__d2b+0x36>

00087b24 <_realloc_r>:
   87b24:	2900      	cmp	r1, #0
   87b26:	f000 8094 	beq.w	87c52 <_realloc_r+0x12e>
   87b2a:	e92d 4ff0 	stmdb	sp!, {r4, r5, r6, r7, r8, r9, sl, fp, lr}
   87b2e:	460c      	mov	r4, r1
   87b30:	4615      	mov	r5, r2
   87b32:	b083      	sub	sp, #12
   87b34:	4680      	mov	r8, r0
   87b36:	f105 060b 	add.w	r6, r5, #11
   87b3a:	f7fb fbcd 	bl	832d8 <__malloc_lock>
   87b3e:	f854 ec04 	ldr.w	lr, [r4, #-4]
   87b42:	2e16      	cmp	r6, #22
   87b44:	f02e 0703 	bic.w	r7, lr, #3
   87b48:	f1a4 0908 	sub.w	r9, r4, #8
   87b4c:	d83c      	bhi.n	87bc8 <_realloc_r+0xa4>
   87b4e:	2210      	movs	r2, #16
   87b50:	4616      	mov	r6, r2
   87b52:	42b5      	cmp	r5, r6
   87b54:	d83d      	bhi.n	87bd2 <_realloc_r+0xae>
   87b56:	4297      	cmp	r7, r2
   87b58:	da43      	bge.n	87be2 <_realloc_r+0xbe>
   87b5a:	4bc6      	ldr	r3, [pc, #792]	; (87e74 <_realloc_r+0x350>)
   87b5c:	eb09 0007 	add.w	r0, r9, r7
   87b60:	6899      	ldr	r1, [r3, #8]
   87b62:	4288      	cmp	r0, r1
   87b64:	f000 80c3 	beq.w	87cee <_realloc_r+0x1ca>
   87b68:	6843      	ldr	r3, [r0, #4]
   87b6a:	f023 0101 	bic.w	r1, r3, #1
   87b6e:	4401      	add	r1, r0
   87b70:	6849      	ldr	r1, [r1, #4]
   87b72:	07c9      	lsls	r1, r1, #31
   87b74:	d54d      	bpl.n	87c12 <_realloc_r+0xee>
   87b76:	f01e 0f01 	tst.w	lr, #1
   87b7a:	f000 809b 	beq.w	87cb4 <_realloc_r+0x190>
   87b7e:	4629      	mov	r1, r5
   87b80:	4640      	mov	r0, r8
   87b82:	f7fb f8b9 	bl	82cf8 <_malloc_r>
   87b86:	4605      	mov	r5, r0
   87b88:	2800      	cmp	r0, #0
   87b8a:	d03b      	beq.n	87c04 <_realloc_r+0xe0>
   87b8c:	f854 3c04 	ldr.w	r3, [r4, #-4]
   87b90:	f1a0 0208 	sub.w	r2, r0, #8
   87b94:	f023 0301 	bic.w	r3, r3, #1
   87b98:	444b      	add	r3, r9
   87b9a:	429a      	cmp	r2, r3
   87b9c:	f000 812b 	beq.w	87df6 <_realloc_r+0x2d2>
   87ba0:	1f3a      	subs	r2, r7, #4
   87ba2:	2a24      	cmp	r2, #36	; 0x24
   87ba4:	f200 8118 	bhi.w	87dd8 <_realloc_r+0x2b4>
   87ba8:	2a13      	cmp	r2, #19
   87baa:	f200 80eb 	bhi.w	87d84 <_realloc_r+0x260>
   87bae:	4603      	mov	r3, r0
   87bb0:	4622      	mov	r2, r4
   87bb2:	6811      	ldr	r1, [r2, #0]
   87bb4:	6019      	str	r1, [r3, #0]
   87bb6:	6851      	ldr	r1, [r2, #4]
   87bb8:	6059      	str	r1, [r3, #4]
   87bba:	6892      	ldr	r2, [r2, #8]
   87bbc:	609a      	str	r2, [r3, #8]
   87bbe:	4621      	mov	r1, r4
   87bc0:	4640      	mov	r0, r8
   87bc2:	f7ff f859 	bl	86c78 <_free_r>
   87bc6:	e01d      	b.n	87c04 <_realloc_r+0xe0>
   87bc8:	f026 0607 	bic.w	r6, r6, #7
   87bcc:	2e00      	cmp	r6, #0
   87bce:	4632      	mov	r2, r6
   87bd0:	dabf      	bge.n	87b52 <_realloc_r+0x2e>
   87bd2:	2500      	movs	r5, #0
   87bd4:	230c      	movs	r3, #12
   87bd6:	4628      	mov	r0, r5
   87bd8:	f8c8 3000 	str.w	r3, [r8]
   87bdc:	b003      	add	sp, #12
   87bde:	e8bd 8ff0 	ldmia.w	sp!, {r4, r5, r6, r7, r8, r9, sl, fp, pc}
   87be2:	4625      	mov	r5, r4
   87be4:	1bbb      	subs	r3, r7, r6
   87be6:	2b0f      	cmp	r3, #15
   87be8:	f8d9 2004 	ldr.w	r2, [r9, #4]
   87bec:	d81d      	bhi.n	87c2a <_realloc_r+0x106>
   87bee:	f002 0201 	and.w	r2, r2, #1
   87bf2:	433a      	orrs	r2, r7
   87bf4:	eb09 0107 	add.w	r1, r9, r7
   87bf8:	f8c9 2004 	str.w	r2, [r9, #4]
   87bfc:	684b      	ldr	r3, [r1, #4]
   87bfe:	f043 0301 	orr.w	r3, r3, #1
   87c02:	604b      	str	r3, [r1, #4]
   87c04:	4640      	mov	r0, r8
   87c06:	f7fb fb6d 	bl	832e4 <__malloc_unlock>
   87c0a:	4628      	mov	r0, r5
   87c0c:	b003      	add	sp, #12
   87c0e:	e8bd 8ff0 	ldmia.w	sp!, {r4, r5, r6, r7, r8, r9, sl, fp, pc}
   87c12:	f023 0303 	bic.w	r3, r3, #3
   87c16:	18f9      	adds	r1, r7, r3
   87c18:	4291      	cmp	r1, r2
   87c1a:	db1d      	blt.n	87c58 <_realloc_r+0x134>
   87c1c:	68c3      	ldr	r3, [r0, #12]
   87c1e:	6882      	ldr	r2, [r0, #8]
   87c20:	4625      	mov	r5, r4
   87c22:	60d3      	str	r3, [r2, #12]
   87c24:	460f      	mov	r7, r1
   87c26:	609a      	str	r2, [r3, #8]
   87c28:	e7dc      	b.n	87be4 <_realloc_r+0xc0>
   87c2a:	f002 0201 	and.w	r2, r2, #1
   87c2e:	eb09 0106 	add.w	r1, r9, r6
   87c32:	f043 0301 	orr.w	r3, r3, #1
   87c36:	4332      	orrs	r2, r6
   87c38:	f8c9 2004 	str.w	r2, [r9, #4]
   87c3c:	444f      	add	r7, r9
   87c3e:	604b      	str	r3, [r1, #4]
   87c40:	687b      	ldr	r3, [r7, #4]
   87c42:	3108      	adds	r1, #8
   87c44:	f043 0301 	orr.w	r3, r3, #1
   87c48:	607b      	str	r3, [r7, #4]
   87c4a:	4640      	mov	r0, r8
   87c4c:	f7ff f814 	bl	86c78 <_free_r>
   87c50:	e7d8      	b.n	87c04 <_realloc_r+0xe0>
   87c52:	4611      	mov	r1, r2
   87c54:	f7fb b850 	b.w	82cf8 <_malloc_r>
   87c58:	f01e 0f01 	tst.w	lr, #1
   87c5c:	d18f      	bne.n	87b7e <_realloc_r+0x5a>
   87c5e:	f854 1c08 	ldr.w	r1, [r4, #-8]
   87c62:	eba9 0a01 	sub.w	sl, r9, r1
   87c66:	f8da 1004 	ldr.w	r1, [sl, #4]
   87c6a:	f021 0103 	bic.w	r1, r1, #3
   87c6e:	440b      	add	r3, r1
   87c70:	443b      	add	r3, r7
   87c72:	4293      	cmp	r3, r2
   87c74:	db26      	blt.n	87cc4 <_realloc_r+0x1a0>
   87c76:	4655      	mov	r5, sl
   87c78:	68c1      	ldr	r1, [r0, #12]
   87c7a:	6880      	ldr	r0, [r0, #8]
   87c7c:	1f3a      	subs	r2, r7, #4
   87c7e:	60c1      	str	r1, [r0, #12]
   87c80:	6088      	str	r0, [r1, #8]
   87c82:	f855 0f08 	ldr.w	r0, [r5, #8]!
   87c86:	f8da 100c 	ldr.w	r1, [sl, #12]
   87c8a:	2a24      	cmp	r2, #36	; 0x24
   87c8c:	60c1      	str	r1, [r0, #12]
   87c8e:	6088      	str	r0, [r1, #8]
   87c90:	d826      	bhi.n	87ce0 <_realloc_r+0x1bc>
   87c92:	2a13      	cmp	r2, #19
   87c94:	f240 8081 	bls.w	87d9a <_realloc_r+0x276>
   87c98:	6821      	ldr	r1, [r4, #0]
   87c9a:	2a1b      	cmp	r2, #27
   87c9c:	f8ca 1008 	str.w	r1, [sl, #8]
   87ca0:	6861      	ldr	r1, [r4, #4]
   87ca2:	f8ca 100c 	str.w	r1, [sl, #12]
   87ca6:	f200 80ad 	bhi.w	87e04 <_realloc_r+0x2e0>
   87caa:	f104 0008 	add.w	r0, r4, #8
   87cae:	f10a 0210 	add.w	r2, sl, #16
   87cb2:	e074      	b.n	87d9e <_realloc_r+0x27a>
   87cb4:	f854 3c08 	ldr.w	r3, [r4, #-8]
   87cb8:	eba9 0a03 	sub.w	sl, r9, r3
   87cbc:	f8da 1004 	ldr.w	r1, [sl, #4]
   87cc0:	f021 0103 	bic.w	r1, r1, #3
   87cc4:	187b      	adds	r3, r7, r1
   87cc6:	4293      	cmp	r3, r2
   87cc8:	f6ff af59 	blt.w	87b7e <_realloc_r+0x5a>
   87ccc:	4655      	mov	r5, sl
   87cce:	f8da 100c 	ldr.w	r1, [sl, #12]
   87cd2:	f855 0f08 	ldr.w	r0, [r5, #8]!
   87cd6:	1f3a      	subs	r2, r7, #4
   87cd8:	2a24      	cmp	r2, #36	; 0x24
   87cda:	60c1      	str	r1, [r0, #12]
   87cdc:	6088      	str	r0, [r1, #8]
   87cde:	d9d8      	bls.n	87c92 <_realloc_r+0x16e>
   87ce0:	4621      	mov	r1, r4
   87ce2:	4628      	mov	r0, r5
   87ce4:	461f      	mov	r7, r3
   87ce6:	46d1      	mov	r9, sl
   87ce8:	f7ff fbbc 	bl	87464 <memmove>
   87cec:	e77a      	b.n	87be4 <_realloc_r+0xc0>
   87cee:	6841      	ldr	r1, [r0, #4]
   87cf0:	f106 0010 	add.w	r0, r6, #16
   87cf4:	f021 0b03 	bic.w	fp, r1, #3
   87cf8:	44bb      	add	fp, r7
   87cfa:	4583      	cmp	fp, r0
   87cfc:	da58      	bge.n	87db0 <_realloc_r+0x28c>
   87cfe:	f01e 0f01 	tst.w	lr, #1
   87d02:	f47f af3c 	bne.w	87b7e <_realloc_r+0x5a>
   87d06:	f854 1c08 	ldr.w	r1, [r4, #-8]
   87d0a:	eba9 0a01 	sub.w	sl, r9, r1
   87d0e:	f8da 1004 	ldr.w	r1, [sl, #4]
   87d12:	f021 0103 	bic.w	r1, r1, #3
   87d16:	448b      	add	fp, r1
   87d18:	4558      	cmp	r0, fp
   87d1a:	dcd3      	bgt.n	87cc4 <_realloc_r+0x1a0>
   87d1c:	4655      	mov	r5, sl
   87d1e:	f8da 100c 	ldr.w	r1, [sl, #12]
   87d22:	f855 0f08 	ldr.w	r0, [r5, #8]!
   87d26:	1f3a      	subs	r2, r7, #4
   87d28:	2a24      	cmp	r2, #36	; 0x24
   87d2a:	60c1      	str	r1, [r0, #12]
   87d2c:	6088      	str	r0, [r1, #8]
   87d2e:	f200 808d 	bhi.w	87e4c <_realloc_r+0x328>
   87d32:	2a13      	cmp	r2, #19
   87d34:	f240 8087 	bls.w	87e46 <_realloc_r+0x322>
   87d38:	6821      	ldr	r1, [r4, #0]
   87d3a:	2a1b      	cmp	r2, #27
   87d3c:	f8ca 1008 	str.w	r1, [sl, #8]
   87d40:	6861      	ldr	r1, [r4, #4]
   87d42:	f8ca 100c 	str.w	r1, [sl, #12]
   87d46:	f200 8088 	bhi.w	87e5a <_realloc_r+0x336>
   87d4a:	f104 0108 	add.w	r1, r4, #8
   87d4e:	f10a 0210 	add.w	r2, sl, #16
   87d52:	6808      	ldr	r0, [r1, #0]
   87d54:	6010      	str	r0, [r2, #0]
   87d56:	6848      	ldr	r0, [r1, #4]
   87d58:	6050      	str	r0, [r2, #4]
   87d5a:	6889      	ldr	r1, [r1, #8]
   87d5c:	6091      	str	r1, [r2, #8]
   87d5e:	ebab 0206 	sub.w	r2, fp, r6
   87d62:	eb0a 0106 	add.w	r1, sl, r6
   87d66:	f042 0201 	orr.w	r2, r2, #1
   87d6a:	6099      	str	r1, [r3, #8]
   87d6c:	604a      	str	r2, [r1, #4]
   87d6e:	f8da 3004 	ldr.w	r3, [sl, #4]
   87d72:	4640      	mov	r0, r8
   87d74:	f003 0301 	and.w	r3, r3, #1
   87d78:	431e      	orrs	r6, r3
   87d7a:	f8ca 6004 	str.w	r6, [sl, #4]
   87d7e:	f7fb fab1 	bl	832e4 <__malloc_unlock>
   87d82:	e742      	b.n	87c0a <_realloc_r+0xe6>
   87d84:	6823      	ldr	r3, [r4, #0]
   87d86:	2a1b      	cmp	r2, #27
   87d88:	6003      	str	r3, [r0, #0]
   87d8a:	6863      	ldr	r3, [r4, #4]
   87d8c:	6043      	str	r3, [r0, #4]
   87d8e:	d827      	bhi.n	87de0 <_realloc_r+0x2bc>
   87d90:	f100 0308 	add.w	r3, r0, #8
   87d94:	f104 0208 	add.w	r2, r4, #8
   87d98:	e70b      	b.n	87bb2 <_realloc_r+0x8e>
   87d9a:	4620      	mov	r0, r4
   87d9c:	462a      	mov	r2, r5
   87d9e:	6801      	ldr	r1, [r0, #0]
   87da0:	461f      	mov	r7, r3
   87da2:	6011      	str	r1, [r2, #0]
   87da4:	6841      	ldr	r1, [r0, #4]
   87da6:	46d1      	mov	r9, sl
   87da8:	6051      	str	r1, [r2, #4]
   87daa:	6883      	ldr	r3, [r0, #8]
   87dac:	6093      	str	r3, [r2, #8]
   87dae:	e719      	b.n	87be4 <_realloc_r+0xc0>
   87db0:	ebab 0b06 	sub.w	fp, fp, r6
   87db4:	eb09 0106 	add.w	r1, r9, r6
   87db8:	f04b 0201 	orr.w	r2, fp, #1
   87dbc:	6099      	str	r1, [r3, #8]
   87dbe:	604a      	str	r2, [r1, #4]
   87dc0:	f854 3c04 	ldr.w	r3, [r4, #-4]
   87dc4:	4640      	mov	r0, r8
   87dc6:	f003 0301 	and.w	r3, r3, #1
   87dca:	431e      	orrs	r6, r3
   87dcc:	f844 6c04 	str.w	r6, [r4, #-4]
   87dd0:	f7fb fa88 	bl	832e4 <__malloc_unlock>
   87dd4:	4625      	mov	r5, r4
   87dd6:	e718      	b.n	87c0a <_realloc_r+0xe6>
   87dd8:	4621      	mov	r1, r4
   87dda:	f7ff fb43 	bl	87464 <memmove>
   87dde:	e6ee      	b.n	87bbe <_realloc_r+0x9a>
   87de0:	68a3      	ldr	r3, [r4, #8]
   87de2:	2a24      	cmp	r2, #36	; 0x24
   87de4:	6083      	str	r3, [r0, #8]
   87de6:	68e3      	ldr	r3, [r4, #12]
   87de8:	60c3      	str	r3, [r0, #12]
   87dea:	d018      	beq.n	87e1e <_realloc_r+0x2fa>
   87dec:	f100 0310 	add.w	r3, r0, #16
   87df0:	f104 0210 	add.w	r2, r4, #16
   87df4:	e6dd      	b.n	87bb2 <_realloc_r+0x8e>
   87df6:	f850 3c04 	ldr.w	r3, [r0, #-4]
   87dfa:	4625      	mov	r5, r4
   87dfc:	f023 0303 	bic.w	r3, r3, #3
   87e00:	441f      	add	r7, r3
   87e02:	e6ef      	b.n	87be4 <_realloc_r+0xc0>
   87e04:	68a1      	ldr	r1, [r4, #8]
   87e06:	2a24      	cmp	r2, #36	; 0x24
   87e08:	f8ca 1010 	str.w	r1, [sl, #16]
   87e0c:	68e1      	ldr	r1, [r4, #12]
   87e0e:	f8ca 1014 	str.w	r1, [sl, #20]
   87e12:	d00d      	beq.n	87e30 <_realloc_r+0x30c>
   87e14:	f104 0010 	add.w	r0, r4, #16
   87e18:	f10a 0218 	add.w	r2, sl, #24
   87e1c:	e7bf      	b.n	87d9e <_realloc_r+0x27a>
   87e1e:	6922      	ldr	r2, [r4, #16]
   87e20:	f100 0318 	add.w	r3, r0, #24
   87e24:	6102      	str	r2, [r0, #16]
   87e26:	6961      	ldr	r1, [r4, #20]
   87e28:	f104 0218 	add.w	r2, r4, #24
   87e2c:	6141      	str	r1, [r0, #20]
   87e2e:	e6c0      	b.n	87bb2 <_realloc_r+0x8e>
   87e30:	6922      	ldr	r2, [r4, #16]
   87e32:	f104 0018 	add.w	r0, r4, #24
   87e36:	f8ca 2018 	str.w	r2, [sl, #24]
   87e3a:	6961      	ldr	r1, [r4, #20]
   87e3c:	f10a 0220 	add.w	r2, sl, #32
   87e40:	f8ca 101c 	str.w	r1, [sl, #28]
   87e44:	e7ab      	b.n	87d9e <_realloc_r+0x27a>
   87e46:	4621      	mov	r1, r4
   87e48:	462a      	mov	r2, r5
   87e4a:	e782      	b.n	87d52 <_realloc_r+0x22e>
   87e4c:	4621      	mov	r1, r4
   87e4e:	4628      	mov	r0, r5
   87e50:	9301      	str	r3, [sp, #4]
   87e52:	f7ff fb07 	bl	87464 <memmove>
   87e56:	9b01      	ldr	r3, [sp, #4]
   87e58:	e781      	b.n	87d5e <_realloc_r+0x23a>
   87e5a:	68a1      	ldr	r1, [r4, #8]
   87e5c:	2a24      	cmp	r2, #36	; 0x24
   87e5e:	f8ca 1010 	str.w	r1, [sl, #16]
   87e62:	68e1      	ldr	r1, [r4, #12]
   87e64:	f8ca 1014 	str.w	r1, [sl, #20]
   87e68:	d006      	beq.n	87e78 <_realloc_r+0x354>
   87e6a:	f104 0110 	add.w	r1, r4, #16
   87e6e:	f10a 0218 	add.w	r2, sl, #24
   87e72:	e76e      	b.n	87d52 <_realloc_r+0x22e>
   87e74:	20070568 	.word	0x20070568
   87e78:	6922      	ldr	r2, [r4, #16]
   87e7a:	f104 0118 	add.w	r1, r4, #24
   87e7e:	f8ca 2018 	str.w	r2, [sl, #24]
   87e82:	6960      	ldr	r0, [r4, #20]
   87e84:	f10a 0220 	add.w	r2, sl, #32
   87e88:	f8ca 001c 	str.w	r0, [sl, #28]
   87e8c:	e761      	b.n	87d52 <_realloc_r+0x22e>
   87e8e:	bf00      	nop

00087e90 <__sread>:
   87e90:	b510      	push	{r4, lr}
   87e92:	460c      	mov	r4, r1
   87e94:	f9b1 100e 	ldrsh.w	r1, [r1, #14]
   87e98:	f000 faa2 	bl	883e0 <_read_r>
   87e9c:	2800      	cmp	r0, #0
   87e9e:	db03      	blt.n	87ea8 <__sread+0x18>
   87ea0:	6d23      	ldr	r3, [r4, #80]	; 0x50
   87ea2:	4403      	add	r3, r0
   87ea4:	6523      	str	r3, [r4, #80]	; 0x50
   87ea6:	bd10      	pop	{r4, pc}
   87ea8:	89a3      	ldrh	r3, [r4, #12]
   87eaa:	f423 5380 	bic.w	r3, r3, #4096	; 0x1000
   87eae:	81a3      	strh	r3, [r4, #12]
   87eb0:	bd10      	pop	{r4, pc}
   87eb2:	bf00      	nop

00087eb4 <__swrite>:
   87eb4:	e92d 41f0 	stmdb	sp!, {r4, r5, r6, r7, r8, lr}
   87eb8:	460c      	mov	r4, r1
   87eba:	f9b1 100c 	ldrsh.w	r1, [r1, #12]
   87ebe:	461f      	mov	r7, r3
   87ec0:	05cb      	lsls	r3, r1, #23
   87ec2:	4616      	mov	r6, r2
   87ec4:	4605      	mov	r5, r0
   87ec6:	d507      	bpl.n	87ed8 <__swrite+0x24>
   87ec8:	f9b4 100e 	ldrsh.w	r1, [r4, #14]
   87ecc:	2302      	movs	r3, #2
   87ece:	2200      	movs	r2, #0
   87ed0:	f000 fa70 	bl	883b4 <_lseek_r>
   87ed4:	f9b4 100c 	ldrsh.w	r1, [r4, #12]
   87ed8:	f421 5180 	bic.w	r1, r1, #4096	; 0x1000
   87edc:	81a1      	strh	r1, [r4, #12]
   87ede:	463b      	mov	r3, r7
   87ee0:	4632      	mov	r2, r6
   87ee2:	f9b4 100e 	ldrsh.w	r1, [r4, #14]
   87ee6:	4628      	mov	r0, r5
   87ee8:	e8bd 41f0 	ldmia.w	sp!, {r4, r5, r6, r7, r8, lr}
   87eec:	f000 b920 	b.w	88130 <_write_r>

00087ef0 <__sseek>:
   87ef0:	b510      	push	{r4, lr}
   87ef2:	460c      	mov	r4, r1
   87ef4:	f9b1 100e 	ldrsh.w	r1, [r1, #14]
   87ef8:	f000 fa5c 	bl	883b4 <_lseek_r>
   87efc:	89a3      	ldrh	r3, [r4, #12]
   87efe:	1c42      	adds	r2, r0, #1
   87f00:	bf0e      	itee	eq
   87f02:	f423 5380 	biceq.w	r3, r3, #4096	; 0x1000
   87f06:	f443 5380 	orrne.w	r3, r3, #4096	; 0x1000
   87f0a:	6520      	strne	r0, [r4, #80]	; 0x50
   87f0c:	81a3      	strh	r3, [r4, #12]
   87f0e:	bd10      	pop	{r4, pc}

00087f10 <__sclose>:
   87f10:	f9b1 100e 	ldrsh.w	r1, [r1, #14]
   87f14:	f000 b9b4 	b.w	88280 <_close_r>

00087f18 <__ssprint_r>:
   87f18:	e92d 4ff0 	stmdb	sp!, {r4, r5, r6, r7, r8, r9, sl, fp, lr}
   87f1c:	6893      	ldr	r3, [r2, #8]
   87f1e:	b083      	sub	sp, #12
   87f20:	4690      	mov	r8, r2
   87f22:	2b00      	cmp	r3, #0
   87f24:	d070      	beq.n	88008 <__ssprint_r+0xf0>
   87f26:	4682      	mov	sl, r0
   87f28:	460c      	mov	r4, r1
   87f2a:	6817      	ldr	r7, [r2, #0]
   87f2c:	688d      	ldr	r5, [r1, #8]
   87f2e:	6808      	ldr	r0, [r1, #0]
   87f30:	e042      	b.n	87fb8 <__ssprint_r+0xa0>
   87f32:	89a3      	ldrh	r3, [r4, #12]
   87f34:	f413 6f90 	tst.w	r3, #1152	; 0x480
   87f38:	d02e      	beq.n	87f98 <__ssprint_r+0x80>
   87f3a:	6965      	ldr	r5, [r4, #20]
   87f3c:	6921      	ldr	r1, [r4, #16]
   87f3e:	eb05 0545 	add.w	r5, r5, r5, lsl #1
   87f42:	eba0 0b01 	sub.w	fp, r0, r1
   87f46:	eb05 75d5 	add.w	r5, r5, r5, lsr #31
   87f4a:	f10b 0001 	add.w	r0, fp, #1
   87f4e:	106d      	asrs	r5, r5, #1
   87f50:	4430      	add	r0, r6
   87f52:	42a8      	cmp	r0, r5
   87f54:	462a      	mov	r2, r5
   87f56:	bf84      	itt	hi
   87f58:	4605      	movhi	r5, r0
   87f5a:	462a      	movhi	r2, r5
   87f5c:	055b      	lsls	r3, r3, #21
   87f5e:	d538      	bpl.n	87fd2 <__ssprint_r+0xba>
   87f60:	4611      	mov	r1, r2
   87f62:	4650      	mov	r0, sl
   87f64:	f7fa fec8 	bl	82cf8 <_malloc_r>
   87f68:	2800      	cmp	r0, #0
   87f6a:	d03c      	beq.n	87fe6 <__ssprint_r+0xce>
   87f6c:	465a      	mov	r2, fp
   87f6e:	6921      	ldr	r1, [r4, #16]
   87f70:	9001      	str	r0, [sp, #4]
   87f72:	f7ff fa01 	bl	87378 <memcpy>
   87f76:	89a2      	ldrh	r2, [r4, #12]
   87f78:	9b01      	ldr	r3, [sp, #4]
   87f7a:	f422 6290 	bic.w	r2, r2, #1152	; 0x480
   87f7e:	f042 0280 	orr.w	r2, r2, #128	; 0x80
   87f82:	81a2      	strh	r2, [r4, #12]
   87f84:	eba5 020b 	sub.w	r2, r5, fp
   87f88:	eb03 000b 	add.w	r0, r3, fp
   87f8c:	6165      	str	r5, [r4, #20]
   87f8e:	46b3      	mov	fp, r6
   87f90:	4635      	mov	r5, r6
   87f92:	6123      	str	r3, [r4, #16]
   87f94:	6020      	str	r0, [r4, #0]
   87f96:	60a2      	str	r2, [r4, #8]
   87f98:	465a      	mov	r2, fp
   87f9a:	4649      	mov	r1, r9
   87f9c:	f7ff fa62 	bl	87464 <memmove>
   87fa0:	f8d8 3008 	ldr.w	r3, [r8, #8]
   87fa4:	68a2      	ldr	r2, [r4, #8]
   87fa6:	6820      	ldr	r0, [r4, #0]
   87fa8:	1b55      	subs	r5, r2, r5
   87faa:	4458      	add	r0, fp
   87fac:	1b9e      	subs	r6, r3, r6
   87fae:	60a5      	str	r5, [r4, #8]
   87fb0:	6020      	str	r0, [r4, #0]
   87fb2:	f8c8 6008 	str.w	r6, [r8, #8]
   87fb6:	b33e      	cbz	r6, 88008 <__ssprint_r+0xf0>
   87fb8:	687e      	ldr	r6, [r7, #4]
   87fba:	463b      	mov	r3, r7
   87fbc:	3708      	adds	r7, #8
   87fbe:	2e00      	cmp	r6, #0
   87fc0:	d0fa      	beq.n	87fb8 <__ssprint_r+0xa0>
   87fc2:	42ae      	cmp	r6, r5
   87fc4:	f8d3 9000 	ldr.w	r9, [r3]
   87fc8:	46ab      	mov	fp, r5
   87fca:	d2b2      	bcs.n	87f32 <__ssprint_r+0x1a>
   87fcc:	4635      	mov	r5, r6
   87fce:	46b3      	mov	fp, r6
   87fd0:	e7e2      	b.n	87f98 <__ssprint_r+0x80>
   87fd2:	4650      	mov	r0, sl
   87fd4:	f7ff fda6 	bl	87b24 <_realloc_r>
   87fd8:	4603      	mov	r3, r0
   87fda:	2800      	cmp	r0, #0
   87fdc:	d1d2      	bne.n	87f84 <__ssprint_r+0x6c>
   87fde:	6921      	ldr	r1, [r4, #16]
   87fe0:	4650      	mov	r0, sl
   87fe2:	f7fe fe49 	bl	86c78 <_free_r>
   87fe6:	230c      	movs	r3, #12
   87fe8:	2200      	movs	r2, #0
   87fea:	f04f 30ff 	mov.w	r0, #4294967295
   87fee:	f8ca 3000 	str.w	r3, [sl]
   87ff2:	89a3      	ldrh	r3, [r4, #12]
   87ff4:	f043 0340 	orr.w	r3, r3, #64	; 0x40
   87ff8:	81a3      	strh	r3, [r4, #12]
   87ffa:	f8c8 2008 	str.w	r2, [r8, #8]
   87ffe:	f8c8 2004 	str.w	r2, [r8, #4]
   88002:	b003      	add	sp, #12
   88004:	e8bd 8ff0 	ldmia.w	sp!, {r4, r5, r6, r7, r8, r9, sl, fp, pc}
   88008:	2000      	movs	r0, #0
   8800a:	f8c8 0004 	str.w	r0, [r8, #4]
   8800e:	b003      	add	sp, #12
   88010:	e8bd 8ff0 	ldmia.w	sp!, {r4, r5, r6, r7, r8, r9, sl, fp, pc}

00088014 <__swbuf_r>:
   88014:	b5f8      	push	{r3, r4, r5, r6, r7, lr}
   88016:	460d      	mov	r5, r1
   88018:	4614      	mov	r4, r2
   8801a:	4606      	mov	r6, r0
   8801c:	b110      	cbz	r0, 88024 <__swbuf_r+0x10>
   8801e:	6b83      	ldr	r3, [r0, #56]	; 0x38
   88020:	2b00      	cmp	r3, #0
   88022:	d04b      	beq.n	880bc <__swbuf_r+0xa8>
   88024:	f9b4 200c 	ldrsh.w	r2, [r4, #12]
   88028:	69a3      	ldr	r3, [r4, #24]
   8802a:	b291      	uxth	r1, r2
   8802c:	0708      	lsls	r0, r1, #28
   8802e:	60a3      	str	r3, [r4, #8]
   88030:	d539      	bpl.n	880a6 <__swbuf_r+0x92>
   88032:	6923      	ldr	r3, [r4, #16]
   88034:	2b00      	cmp	r3, #0
   88036:	d036      	beq.n	880a6 <__swbuf_r+0x92>
   88038:	b2ed      	uxtb	r5, r5
   8803a:	0489      	lsls	r1, r1, #18
   8803c:	462f      	mov	r7, r5
   8803e:	d515      	bpl.n	8806c <__swbuf_r+0x58>
   88040:	6822      	ldr	r2, [r4, #0]
   88042:	6961      	ldr	r1, [r4, #20]
   88044:	1ad3      	subs	r3, r2, r3
   88046:	428b      	cmp	r3, r1
   88048:	da1c      	bge.n	88084 <__swbuf_r+0x70>
   8804a:	3301      	adds	r3, #1
   8804c:	68a1      	ldr	r1, [r4, #8]
   8804e:	1c50      	adds	r0, r2, #1
   88050:	3901      	subs	r1, #1
   88052:	60a1      	str	r1, [r4, #8]
   88054:	6020      	str	r0, [r4, #0]
   88056:	7015      	strb	r5, [r2, #0]
   88058:	6962      	ldr	r2, [r4, #20]
   8805a:	429a      	cmp	r2, r3
   8805c:	d01a      	beq.n	88094 <__swbuf_r+0x80>
   8805e:	89a3      	ldrh	r3, [r4, #12]
   88060:	07db      	lsls	r3, r3, #31
   88062:	d501      	bpl.n	88068 <__swbuf_r+0x54>
   88064:	2d0a      	cmp	r5, #10
   88066:	d015      	beq.n	88094 <__swbuf_r+0x80>
   88068:	4638      	mov	r0, r7
   8806a:	bdf8      	pop	{r3, r4, r5, r6, r7, pc}
   8806c:	6e61      	ldr	r1, [r4, #100]	; 0x64
   8806e:	f442 5200 	orr.w	r2, r2, #8192	; 0x2000
   88072:	f421 5100 	bic.w	r1, r1, #8192	; 0x2000
   88076:	81a2      	strh	r2, [r4, #12]
   88078:	6822      	ldr	r2, [r4, #0]
   8807a:	6661      	str	r1, [r4, #100]	; 0x64
   8807c:	6961      	ldr	r1, [r4, #20]
   8807e:	1ad3      	subs	r3, r2, r3
   88080:	428b      	cmp	r3, r1
   88082:	dbe2      	blt.n	8804a <__swbuf_r+0x36>
   88084:	4621      	mov	r1, r4
   88086:	4630      	mov	r0, r6
   88088:	f7fe fc78 	bl	8697c <_fflush_r>
   8808c:	b940      	cbnz	r0, 880a0 <__swbuf_r+0x8c>
   8808e:	2301      	movs	r3, #1
   88090:	6822      	ldr	r2, [r4, #0]
   88092:	e7db      	b.n	8804c <__swbuf_r+0x38>
   88094:	4621      	mov	r1, r4
   88096:	4630      	mov	r0, r6
   88098:	f7fe fc70 	bl	8697c <_fflush_r>
   8809c:	2800      	cmp	r0, #0
   8809e:	d0e3      	beq.n	88068 <__swbuf_r+0x54>
   880a0:	f04f 37ff 	mov.w	r7, #4294967295
   880a4:	e7e0      	b.n	88068 <__swbuf_r+0x54>
   880a6:	4621      	mov	r1, r4
   880a8:	4630      	mov	r0, r6
   880aa:	f7fd fb9f 	bl	857ec <__swsetup_r>
   880ae:	2800      	cmp	r0, #0
   880b0:	d1f6      	bne.n	880a0 <__swbuf_r+0x8c>
   880b2:	f9b4 200c 	ldrsh.w	r2, [r4, #12]
   880b6:	6923      	ldr	r3, [r4, #16]
   880b8:	b291      	uxth	r1, r2
   880ba:	e7bd      	b.n	88038 <__swbuf_r+0x24>
   880bc:	f7fe fcb6 	bl	86a2c <__sinit>
   880c0:	e7b0      	b.n	88024 <__swbuf_r+0x10>
   880c2:	bf00      	nop

000880c4 <_wcrtomb_r>:
   880c4:	b5f0      	push	{r4, r5, r6, r7, lr}
   880c6:	4606      	mov	r6, r0
   880c8:	b085      	sub	sp, #20
   880ca:	461f      	mov	r7, r3
   880cc:	b189      	cbz	r1, 880f2 <_wcrtomb_r+0x2e>
   880ce:	4c10      	ldr	r4, [pc, #64]	; (88110 <_wcrtomb_r+0x4c>)
   880d0:	4d10      	ldr	r5, [pc, #64]	; (88114 <_wcrtomb_r+0x50>)
   880d2:	6824      	ldr	r4, [r4, #0]
   880d4:	6b64      	ldr	r4, [r4, #52]	; 0x34
   880d6:	2c00      	cmp	r4, #0
   880d8:	bf08      	it	eq
   880da:	462c      	moveq	r4, r5
   880dc:	f8d4 40e0 	ldr.w	r4, [r4, #224]	; 0xe0
   880e0:	47a0      	blx	r4
   880e2:	1c43      	adds	r3, r0, #1
   880e4:	d103      	bne.n	880ee <_wcrtomb_r+0x2a>
   880e6:	2200      	movs	r2, #0
   880e8:	238a      	movs	r3, #138	; 0x8a
   880ea:	603a      	str	r2, [r7, #0]
   880ec:	6033      	str	r3, [r6, #0]
   880ee:	b005      	add	sp, #20
   880f0:	bdf0      	pop	{r4, r5, r6, r7, pc}
   880f2:	460c      	mov	r4, r1
   880f4:	4a06      	ldr	r2, [pc, #24]	; (88110 <_wcrtomb_r+0x4c>)
   880f6:	4d07      	ldr	r5, [pc, #28]	; (88114 <_wcrtomb_r+0x50>)
   880f8:	6811      	ldr	r1, [r2, #0]
   880fa:	4622      	mov	r2, r4
   880fc:	6b4c      	ldr	r4, [r1, #52]	; 0x34
   880fe:	a901      	add	r1, sp, #4
   88100:	2c00      	cmp	r4, #0
   88102:	bf08      	it	eq
   88104:	462c      	moveq	r4, r5
   88106:	f8d4 40e0 	ldr.w	r4, [r4, #224]	; 0xe0
   8810a:	47a0      	blx	r4
   8810c:	e7e9      	b.n	880e2 <_wcrtomb_r+0x1e>
   8810e:	bf00      	nop
   88110:	20070138 	.word	0x20070138
   88114:	2007097c 	.word	0x2007097c

00088118 <__ascii_wctomb>:
   88118:	b119      	cbz	r1, 88122 <__ascii_wctomb+0xa>
   8811a:	2aff      	cmp	r2, #255	; 0xff
   8811c:	d803      	bhi.n	88126 <__ascii_wctomb+0xe>
   8811e:	700a      	strb	r2, [r1, #0]
   88120:	2101      	movs	r1, #1
   88122:	4608      	mov	r0, r1
   88124:	4770      	bx	lr
   88126:	238a      	movs	r3, #138	; 0x8a
   88128:	f04f 31ff 	mov.w	r1, #4294967295
   8812c:	6003      	str	r3, [r0, #0]
   8812e:	e7f8      	b.n	88122 <__ascii_wctomb+0xa>

00088130 <_write_r>:
   88130:	b5f8      	push	{r3, r4, r5, r6, r7, lr}
   88132:	460e      	mov	r6, r1
   88134:	2500      	movs	r5, #0
   88136:	4c08      	ldr	r4, [pc, #32]	; (88158 <_write_r+0x28>)
   88138:	4611      	mov	r1, r2
   8813a:	4607      	mov	r7, r0
   8813c:	461a      	mov	r2, r3
   8813e:	4630      	mov	r0, r6
   88140:	6025      	str	r5, [r4, #0]
   88142:	f7f8 ff9f 	bl	81084 <_write>
   88146:	1c43      	adds	r3, r0, #1
   88148:	d000      	beq.n	8814c <_write_r+0x1c>
   8814a:	bdf8      	pop	{r3, r4, r5, r6, r7, pc}
   8814c:	6823      	ldr	r3, [r4, #0]
   8814e:	2b00      	cmp	r3, #0
   88150:	d0fb      	beq.n	8814a <_write_r+0x1a>
   88152:	603b      	str	r3, [r7, #0]
   88154:	bdf8      	pop	{r3, r4, r5, r6, r7, pc}
   88156:	bf00      	nop
   88158:	20072780 	.word	0x20072780

0008815c <__register_exitproc>:
   8815c:	e92d 43f8 	stmdb	sp!, {r3, r4, r5, r6, r7, r8, r9, lr}
   88160:	4d2c      	ldr	r5, [pc, #176]	; (88214 <__register_exitproc+0xb8>)
   88162:	4606      	mov	r6, r0
   88164:	6828      	ldr	r0, [r5, #0]
   88166:	4698      	mov	r8, r3
   88168:	460f      	mov	r7, r1
   8816a:	4691      	mov	r9, r2
   8816c:	f7ff f82c 	bl	871c8 <__retarget_lock_acquire_recursive>
   88170:	4b29      	ldr	r3, [pc, #164]	; (88218 <__register_exitproc+0xbc>)
   88172:	681c      	ldr	r4, [r3, #0]
   88174:	f8d4 3148 	ldr.w	r3, [r4, #328]	; 0x148
   88178:	2b00      	cmp	r3, #0
   8817a:	d03e      	beq.n	881fa <__register_exitproc+0x9e>
   8817c:	685a      	ldr	r2, [r3, #4]
   8817e:	2a1f      	cmp	r2, #31
   88180:	dc1c      	bgt.n	881bc <__register_exitproc+0x60>
   88182:	f102 0e01 	add.w	lr, r2, #1
   88186:	b176      	cbz	r6, 881a6 <__register_exitproc+0x4a>
   88188:	2101      	movs	r1, #1
   8818a:	eb03 0482 	add.w	r4, r3, r2, lsl #2
   8818e:	f8c4 9088 	str.w	r9, [r4, #136]	; 0x88
   88192:	f8d3 0188 	ldr.w	r0, [r3, #392]	; 0x188
   88196:	4091      	lsls	r1, r2
   88198:	4308      	orrs	r0, r1
   8819a:	2e02      	cmp	r6, #2
   8819c:	f8c3 0188 	str.w	r0, [r3, #392]	; 0x188
   881a0:	f8c4 8108 	str.w	r8, [r4, #264]	; 0x108
   881a4:	d023      	beq.n	881ee <__register_exitproc+0x92>
   881a6:	3202      	adds	r2, #2
   881a8:	f8c3 e004 	str.w	lr, [r3, #4]
   881ac:	6828      	ldr	r0, [r5, #0]
   881ae:	f843 7022 	str.w	r7, [r3, r2, lsl #2]
   881b2:	f7ff f80b 	bl	871cc <__retarget_lock_release_recursive>
   881b6:	2000      	movs	r0, #0
   881b8:	e8bd 83f8 	ldmia.w	sp!, {r3, r4, r5, r6, r7, r8, r9, pc}
   881bc:	4b17      	ldr	r3, [pc, #92]	; (8821c <__register_exitproc+0xc0>)
   881be:	b30b      	cbz	r3, 88204 <__register_exitproc+0xa8>
   881c0:	f44f 70c8 	mov.w	r0, #400	; 0x190
   881c4:	f7fa fd90 	bl	82ce8 <malloc>
   881c8:	4603      	mov	r3, r0
   881ca:	b1d8      	cbz	r0, 88204 <__register_exitproc+0xa8>
   881cc:	2000      	movs	r0, #0
   881ce:	f8d4 1148 	ldr.w	r1, [r4, #328]	; 0x148
   881d2:	f04f 0e01 	mov.w	lr, #1
   881d6:	6058      	str	r0, [r3, #4]
   881d8:	6019      	str	r1, [r3, #0]
   881da:	4602      	mov	r2, r0
   881dc:	f8c4 3148 	str.w	r3, [r4, #328]	; 0x148
   881e0:	f8c3 0188 	str.w	r0, [r3, #392]	; 0x188
   881e4:	f8c3 018c 	str.w	r0, [r3, #396]	; 0x18c
   881e8:	2e00      	cmp	r6, #0
   881ea:	d0dc      	beq.n	881a6 <__register_exitproc+0x4a>
   881ec:	e7cc      	b.n	88188 <__register_exitproc+0x2c>
   881ee:	f8d3 018c 	ldr.w	r0, [r3, #396]	; 0x18c
   881f2:	4301      	orrs	r1, r0
   881f4:	f8c3 118c 	str.w	r1, [r3, #396]	; 0x18c
   881f8:	e7d5      	b.n	881a6 <__register_exitproc+0x4a>
   881fa:	f504 73a6 	add.w	r3, r4, #332	; 0x14c
   881fe:	f8c4 3148 	str.w	r3, [r4, #328]	; 0x148
   88202:	e7bb      	b.n	8817c <__register_exitproc+0x20>
   88204:	6828      	ldr	r0, [r5, #0]
   88206:	f7fe ffe1 	bl	871cc <__retarget_lock_release_recursive>
   8820a:	f04f 30ff 	mov.w	r0, #4294967295
   8820e:	e8bd 83f8 	ldmia.w	sp!, {r3, r4, r5, r6, r7, r8, r9, pc}
   88212:	bf00      	nop
   88214:	20070978 	.word	0x20070978
   88218:	000887d8 	.word	0x000887d8
   8821c:	00082ce9 	.word	0x00082ce9

00088220 <_calloc_r>:
   88220:	b510      	push	{r4, lr}
   88222:	fb02 f101 	mul.w	r1, r2, r1
   88226:	f7fa fd67 	bl	82cf8 <_malloc_r>
   8822a:	4604      	mov	r4, r0
   8822c:	b1d8      	cbz	r0, 88266 <_calloc_r+0x46>
   8822e:	f850 2c04 	ldr.w	r2, [r0, #-4]
   88232:	f022 0203 	bic.w	r2, r2, #3
   88236:	3a04      	subs	r2, #4
   88238:	2a24      	cmp	r2, #36	; 0x24
   8823a:	d818      	bhi.n	8826e <_calloc_r+0x4e>
   8823c:	2a13      	cmp	r2, #19
   8823e:	d914      	bls.n	8826a <_calloc_r+0x4a>
   88240:	2300      	movs	r3, #0
   88242:	2a1b      	cmp	r2, #27
   88244:	6003      	str	r3, [r0, #0]
   88246:	6043      	str	r3, [r0, #4]
   88248:	d916      	bls.n	88278 <_calloc_r+0x58>
   8824a:	2a24      	cmp	r2, #36	; 0x24
   8824c:	6083      	str	r3, [r0, #8]
   8824e:	60c3      	str	r3, [r0, #12]
   88250:	bf11      	iteee	ne
   88252:	f100 0210 	addne.w	r2, r0, #16
   88256:	6103      	streq	r3, [r0, #16]
   88258:	6143      	streq	r3, [r0, #20]
   8825a:	f100 0218 	addeq.w	r2, r0, #24
   8825e:	2300      	movs	r3, #0
   88260:	6013      	str	r3, [r2, #0]
   88262:	6053      	str	r3, [r2, #4]
   88264:	6093      	str	r3, [r2, #8]
   88266:	4620      	mov	r0, r4
   88268:	bd10      	pop	{r4, pc}
   8826a:	4602      	mov	r2, r0
   8826c:	e7f7      	b.n	8825e <_calloc_r+0x3e>
   8826e:	2100      	movs	r1, #0
   88270:	f7fa ffe4 	bl	8323c <memset>
   88274:	4620      	mov	r0, r4
   88276:	bd10      	pop	{r4, pc}
   88278:	f100 0208 	add.w	r2, r0, #8
   8827c:	e7ef      	b.n	8825e <_calloc_r+0x3e>
   8827e:	bf00      	nop

00088280 <_close_r>:
   88280:	b538      	push	{r3, r4, r5, lr}
   88282:	2300      	movs	r3, #0
   88284:	4c06      	ldr	r4, [pc, #24]	; (882a0 <_close_r+0x20>)
   88286:	4605      	mov	r5, r0
   88288:	4608      	mov	r0, r1
   8828a:	6023      	str	r3, [r4, #0]
   8828c:	f7f9 fb72 	bl	81974 <_close>
   88290:	1c43      	adds	r3, r0, #1
   88292:	d000      	beq.n	88296 <_close_r+0x16>
   88294:	bd38      	pop	{r3, r4, r5, pc}
   88296:	6823      	ldr	r3, [r4, #0]
   88298:	2b00      	cmp	r3, #0
   8829a:	d0fb      	beq.n	88294 <_close_r+0x14>
   8829c:	602b      	str	r3, [r5, #0]
   8829e:	bd38      	pop	{r3, r4, r5, pc}
   882a0:	20072780 	.word	0x20072780

000882a4 <_fclose_r>:
   882a4:	b570      	push	{r4, r5, r6, lr}
   882a6:	b159      	cbz	r1, 882c0 <_fclose_r+0x1c>
   882a8:	4605      	mov	r5, r0
   882aa:	460c      	mov	r4, r1
   882ac:	b110      	cbz	r0, 882b4 <_fclose_r+0x10>
   882ae:	6b83      	ldr	r3, [r0, #56]	; 0x38
   882b0:	2b00      	cmp	r3, #0
   882b2:	d03c      	beq.n	8832e <_fclose_r+0x8a>
   882b4:	6e63      	ldr	r3, [r4, #100]	; 0x64
   882b6:	07d8      	lsls	r0, r3, #31
   882b8:	d505      	bpl.n	882c6 <_fclose_r+0x22>
   882ba:	f9b4 300c 	ldrsh.w	r3, [r4, #12]
   882be:	b92b      	cbnz	r3, 882cc <_fclose_r+0x28>
   882c0:	2600      	movs	r6, #0
   882c2:	4630      	mov	r0, r6
   882c4:	bd70      	pop	{r4, r5, r6, pc}
   882c6:	89a3      	ldrh	r3, [r4, #12]
   882c8:	0599      	lsls	r1, r3, #22
   882ca:	d53c      	bpl.n	88346 <_fclose_r+0xa2>
   882cc:	4621      	mov	r1, r4
   882ce:	4628      	mov	r0, r5
   882d0:	f7fe fab8 	bl	86844 <__sflush_r>
   882d4:	6ae3      	ldr	r3, [r4, #44]	; 0x2c
   882d6:	4606      	mov	r6, r0
   882d8:	b133      	cbz	r3, 882e8 <_fclose_r+0x44>
   882da:	69e1      	ldr	r1, [r4, #28]
   882dc:	4628      	mov	r0, r5
   882de:	4798      	blx	r3
   882e0:	2800      	cmp	r0, #0
   882e2:	bfb8      	it	lt
   882e4:	f04f 36ff 	movlt.w	r6, #4294967295
   882e8:	89a3      	ldrh	r3, [r4, #12]
   882ea:	061a      	lsls	r2, r3, #24
   882ec:	d422      	bmi.n	88334 <_fclose_r+0x90>
   882ee:	6b21      	ldr	r1, [r4, #48]	; 0x30
   882f0:	b141      	cbz	r1, 88304 <_fclose_r+0x60>
   882f2:	f104 0340 	add.w	r3, r4, #64	; 0x40
   882f6:	4299      	cmp	r1, r3
   882f8:	d002      	beq.n	88300 <_fclose_r+0x5c>
   882fa:	4628      	mov	r0, r5
   882fc:	f7fe fcbc 	bl	86c78 <_free_r>
   88300:	2300      	movs	r3, #0
   88302:	6323      	str	r3, [r4, #48]	; 0x30
   88304:	6c61      	ldr	r1, [r4, #68]	; 0x44
   88306:	b121      	cbz	r1, 88312 <_fclose_r+0x6e>
   88308:	4628      	mov	r0, r5
   8830a:	f7fe fcb5 	bl	86c78 <_free_r>
   8830e:	2300      	movs	r3, #0
   88310:	6463      	str	r3, [r4, #68]	; 0x44
   88312:	f7fe fbbb 	bl	86a8c <__sfp_lock_acquire>
   88316:	2200      	movs	r2, #0
   88318:	6e63      	ldr	r3, [r4, #100]	; 0x64
   8831a:	81a2      	strh	r2, [r4, #12]
   8831c:	07db      	lsls	r3, r3, #31
   8831e:	d50e      	bpl.n	8833e <_fclose_r+0x9a>
   88320:	6da0      	ldr	r0, [r4, #88]	; 0x58
   88322:	f7fe ff4f 	bl	871c4 <__retarget_lock_close_recursive>
   88326:	f7fe fbb7 	bl	86a98 <__sfp_lock_release>
   8832a:	4630      	mov	r0, r6
   8832c:	bd70      	pop	{r4, r5, r6, pc}
   8832e:	f7fe fb7d 	bl	86a2c <__sinit>
   88332:	e7bf      	b.n	882b4 <_fclose_r+0x10>
   88334:	6921      	ldr	r1, [r4, #16]
   88336:	4628      	mov	r0, r5
   88338:	f7fe fc9e 	bl	86c78 <_free_r>
   8833c:	e7d7      	b.n	882ee <_fclose_r+0x4a>
   8833e:	6da0      	ldr	r0, [r4, #88]	; 0x58
   88340:	f7fe ff44 	bl	871cc <__retarget_lock_release_recursive>
   88344:	e7ec      	b.n	88320 <_fclose_r+0x7c>
   88346:	6da0      	ldr	r0, [r4, #88]	; 0x58
   88348:	f7fe ff3e 	bl	871c8 <__retarget_lock_acquire_recursive>
   8834c:	f9b4 300c 	ldrsh.w	r3, [r4, #12]
   88350:	2b00      	cmp	r3, #0
   88352:	d1bb      	bne.n	882cc <_fclose_r+0x28>
   88354:	6e66      	ldr	r6, [r4, #100]	; 0x64
   88356:	f016 0601 	ands.w	r6, r6, #1
   8835a:	d1b1      	bne.n	882c0 <_fclose_r+0x1c>
   8835c:	6da0      	ldr	r0, [r4, #88]	; 0x58
   8835e:	f7fe ff35 	bl	871cc <__retarget_lock_release_recursive>
   88362:	4630      	mov	r0, r6
   88364:	bd70      	pop	{r4, r5, r6, pc}
   88366:	bf00      	nop

00088368 <_fstat_r>:
   88368:	b570      	push	{r4, r5, r6, lr}
   8836a:	460d      	mov	r5, r1
   8836c:	2300      	movs	r3, #0
   8836e:	4c07      	ldr	r4, [pc, #28]	; (8838c <_fstat_r+0x24>)
   88370:	4606      	mov	r6, r0
   88372:	4611      	mov	r1, r2
   88374:	4628      	mov	r0, r5
   88376:	6023      	str	r3, [r4, #0]
   88378:	f7f9 faff 	bl	8197a <_fstat>
   8837c:	1c43      	adds	r3, r0, #1
   8837e:	d000      	beq.n	88382 <_fstat_r+0x1a>
   88380:	bd70      	pop	{r4, r5, r6, pc}
   88382:	6823      	ldr	r3, [r4, #0]
   88384:	2b00      	cmp	r3, #0
   88386:	d0fb      	beq.n	88380 <_fstat_r+0x18>
   88388:	6033      	str	r3, [r6, #0]
   8838a:	bd70      	pop	{r4, r5, r6, pc}
   8838c:	20072780 	.word	0x20072780

00088390 <_isatty_r>:
   88390:	b538      	push	{r3, r4, r5, lr}
   88392:	2300      	movs	r3, #0
   88394:	4c06      	ldr	r4, [pc, #24]	; (883b0 <_isatty_r+0x20>)
   88396:	4605      	mov	r5, r0
   88398:	4608      	mov	r0, r1
   8839a:	6023      	str	r3, [r4, #0]
   8839c:	f7f9 faf2 	bl	81984 <_isatty>
   883a0:	1c43      	adds	r3, r0, #1
   883a2:	d000      	beq.n	883a6 <_isatty_r+0x16>
   883a4:	bd38      	pop	{r3, r4, r5, pc}
   883a6:	6823      	ldr	r3, [r4, #0]
   883a8:	2b00      	cmp	r3, #0
   883aa:	d0fb      	beq.n	883a4 <_isatty_r+0x14>
   883ac:	602b      	str	r3, [r5, #0]
   883ae:	bd38      	pop	{r3, r4, r5, pc}
   883b0:	20072780 	.word	0x20072780

000883b4 <_lseek_r>:
   883b4:	b5f8      	push	{r3, r4, r5, r6, r7, lr}
   883b6:	460e      	mov	r6, r1
   883b8:	2500      	movs	r5, #0
   883ba:	4c08      	ldr	r4, [pc, #32]	; (883dc <_lseek_r+0x28>)
   883bc:	4611      	mov	r1, r2
   883be:	4607      	mov	r7, r0
   883c0:	461a      	mov	r2, r3
   883c2:	4630      	mov	r0, r6
   883c4:	6025      	str	r5, [r4, #0]
   883c6:	f7f9 fadf 	bl	81988 <_lseek>
   883ca:	1c43      	adds	r3, r0, #1
   883cc:	d000      	beq.n	883d0 <_lseek_r+0x1c>
   883ce:	bdf8      	pop	{r3, r4, r5, r6, r7, pc}
   883d0:	6823      	ldr	r3, [r4, #0]
   883d2:	2b00      	cmp	r3, #0
   883d4:	d0fb      	beq.n	883ce <_lseek_r+0x1a>
   883d6:	603b      	str	r3, [r7, #0]
   883d8:	bdf8      	pop	{r3, r4, r5, r6, r7, pc}
   883da:	bf00      	nop
   883dc:	20072780 	.word	0x20072780

000883e0 <_read_r>:
   883e0:	b5f8      	push	{r3, r4, r5, r6, r7, lr}
   883e2:	460e      	mov	r6, r1
   883e4:	2500      	movs	r5, #0
   883e6:	4c08      	ldr	r4, [pc, #32]	; (88408 <_read_r+0x28>)
   883e8:	4611      	mov	r1, r2
   883ea:	4607      	mov	r7, r0
   883ec:	461a      	mov	r2, r3
   883ee:	4630      	mov	r0, r6
   883f0:	6025      	str	r5, [r4, #0]
   883f2:	f7f8 fdbd 	bl	80f70 <_read>
   883f6:	1c43      	adds	r3, r0, #1
   883f8:	d000      	beq.n	883fc <_read_r+0x1c>
   883fa:	bdf8      	pop	{r3, r4, r5, r6, r7, pc}
   883fc:	6823      	ldr	r3, [r4, #0]
   883fe:	2b00      	cmp	r3, #0
   88400:	d0fb      	beq.n	883fa <_read_r+0x1a>
   88402:	603b      	str	r3, [r7, #0]
   88404:	bdf8      	pop	{r3, r4, r5, r6, r7, pc}
   88406:	bf00      	nop
   88408:	20072780 	.word	0x20072780

0008840c <__aeabi_d2iz>:
   8840c:	ea4f 0241 	mov.w	r2, r1, lsl #1
   88410:	f512 1200 	adds.w	r2, r2, #2097152	; 0x200000
   88414:	d215      	bcs.n	88442 <__aeabi_d2iz+0x36>
   88416:	d511      	bpl.n	8843c <__aeabi_d2iz+0x30>
   88418:	f46f 7378 	mvn.w	r3, #992	; 0x3e0
   8841c:	ebb3 5262 	subs.w	r2, r3, r2, asr #21
   88420:	d912      	bls.n	88448 <__aeabi_d2iz+0x3c>
   88422:	ea4f 23c1 	mov.w	r3, r1, lsl #11
   88426:	f043 4300 	orr.w	r3, r3, #2147483648	; 0x80000000
   8842a:	ea43 5350 	orr.w	r3, r3, r0, lsr #21
   8842e:	f011 4f00 	tst.w	r1, #2147483648	; 0x80000000
   88432:	fa23 f002 	lsr.w	r0, r3, r2
   88436:	bf18      	it	ne
   88438:	4240      	negne	r0, r0
   8843a:	4770      	bx	lr
   8843c:	f04f 0000 	mov.w	r0, #0
   88440:	4770      	bx	lr
   88442:	ea50 3001 	orrs.w	r0, r0, r1, lsl #12
   88446:	d105      	bne.n	88454 <__aeabi_d2iz+0x48>
   88448:	f011 4000 	ands.w	r0, r1, #2147483648	; 0x80000000
   8844c:	bf08      	it	eq
   8844e:	f06f 4000 	mvneq.w	r0, #2147483648	; 0x80000000
   88452:	4770      	bx	lr
   88454:	f04f 0000 	mov.w	r0, #0
   88458:	4770      	bx	lr
   8845a:	bf00      	nop

0008845c <__aeabi_uldivmod>:
   8845c:	b953      	cbnz	r3, 88474 <__aeabi_uldivmod+0x18>
   8845e:	b94a      	cbnz	r2, 88474 <__aeabi_uldivmod+0x18>
   88460:	2900      	cmp	r1, #0
   88462:	bf08      	it	eq
   88464:	2800      	cmpeq	r0, #0
   88466:	bf1c      	itt	ne
   88468:	f04f 31ff 	movne.w	r1, #4294967295
   8846c:	f04f 30ff 	movne.w	r0, #4294967295
   88470:	f000 b97a 	b.w	88768 <__aeabi_idiv0>
   88474:	f1ad 0c08 	sub.w	ip, sp, #8
   88478:	e96d ce04 	strd	ip, lr, [sp, #-16]!
   8847c:	f000 f806 	bl	8848c <__udivmoddi4>
   88480:	f8dd e004 	ldr.w	lr, [sp, #4]
   88484:	e9dd 2302 	ldrd	r2, r3, [sp, #8]
   88488:	b004      	add	sp, #16
   8848a:	4770      	bx	lr

0008848c <__udivmoddi4>:
   8848c:	e92d 47f0 	stmdb	sp!, {r4, r5, r6, r7, r8, r9, sl, lr}
   88490:	468c      	mov	ip, r1
   88492:	460e      	mov	r6, r1
   88494:	4604      	mov	r4, r0
   88496:	9d08      	ldr	r5, [sp, #32]
   88498:	2b00      	cmp	r3, #0
   8849a:	d150      	bne.n	8853e <__udivmoddi4+0xb2>
   8849c:	428a      	cmp	r2, r1
   8849e:	4617      	mov	r7, r2
   884a0:	d96c      	bls.n	8857c <__udivmoddi4+0xf0>
   884a2:	fab2 fe82 	clz	lr, r2
   884a6:	f1be 0f00 	cmp.w	lr, #0
   884aa:	d00b      	beq.n	884c4 <__udivmoddi4+0x38>
   884ac:	f1ce 0c20 	rsb	ip, lr, #32
   884b0:	fa01 f60e 	lsl.w	r6, r1, lr
   884b4:	fa20 fc0c 	lsr.w	ip, r0, ip
   884b8:	fa02 f70e 	lsl.w	r7, r2, lr
   884bc:	ea4c 0c06 	orr.w	ip, ip, r6
   884c0:	fa00 f40e 	lsl.w	r4, r0, lr
   884c4:	0c3a      	lsrs	r2, r7, #16
   884c6:	fbbc f9f2 	udiv	r9, ip, r2
   884ca:	b2bb      	uxth	r3, r7
   884cc:	fb02 cc19 	mls	ip, r2, r9, ip
   884d0:	fb09 fa03 	mul.w	sl, r9, r3
   884d4:	ea4f 4814 	mov.w	r8, r4, lsr #16
   884d8:	ea48 460c 	orr.w	r6, r8, ip, lsl #16
   884dc:	45b2      	cmp	sl, r6
   884de:	d90a      	bls.n	884f6 <__udivmoddi4+0x6a>
   884e0:	19f6      	adds	r6, r6, r7
   884e2:	f109 31ff 	add.w	r1, r9, #4294967295
   884e6:	f080 8125 	bcs.w	88734 <__udivmoddi4+0x2a8>
   884ea:	45b2      	cmp	sl, r6
   884ec:	f240 8122 	bls.w	88734 <__udivmoddi4+0x2a8>
   884f0:	f1a9 0902 	sub.w	r9, r9, #2
   884f4:	443e      	add	r6, r7
   884f6:	eba6 060a 	sub.w	r6, r6, sl
   884fa:	fbb6 f0f2 	udiv	r0, r6, r2
   884fe:	fb02 6610 	mls	r6, r2, r0, r6
   88502:	fb00 f303 	mul.w	r3, r0, r3
   88506:	b2a4      	uxth	r4, r4
   88508:	ea44 4406 	orr.w	r4, r4, r6, lsl #16
   8850c:	42a3      	cmp	r3, r4
   8850e:	d909      	bls.n	88524 <__udivmoddi4+0x98>
   88510:	19e4      	adds	r4, r4, r7
   88512:	f100 32ff 	add.w	r2, r0, #4294967295
   88516:	f080 810b 	bcs.w	88730 <__udivmoddi4+0x2a4>
   8851a:	42a3      	cmp	r3, r4
   8851c:	f240 8108 	bls.w	88730 <__udivmoddi4+0x2a4>
   88520:	3802      	subs	r0, #2
   88522:	443c      	add	r4, r7
   88524:	2100      	movs	r1, #0
   88526:	1ae4      	subs	r4, r4, r3
   88528:	ea40 4009 	orr.w	r0, r0, r9, lsl #16
   8852c:	2d00      	cmp	r5, #0
   8852e:	d062      	beq.n	885f6 <__udivmoddi4+0x16a>
   88530:	2300      	movs	r3, #0
   88532:	fa24 f40e 	lsr.w	r4, r4, lr
   88536:	602c      	str	r4, [r5, #0]
   88538:	606b      	str	r3, [r5, #4]
   8853a:	e8bd 87f0 	ldmia.w	sp!, {r4, r5, r6, r7, r8, r9, sl, pc}
   8853e:	428b      	cmp	r3, r1
   88540:	d907      	bls.n	88552 <__udivmoddi4+0xc6>
   88542:	2d00      	cmp	r5, #0
   88544:	d055      	beq.n	885f2 <__udivmoddi4+0x166>
   88546:	2100      	movs	r1, #0
   88548:	e885 0041 	stmia.w	r5, {r0, r6}
   8854c:	4608      	mov	r0, r1
   8854e:	e8bd 87f0 	ldmia.w	sp!, {r4, r5, r6, r7, r8, r9, sl, pc}
   88552:	fab3 f183 	clz	r1, r3
   88556:	2900      	cmp	r1, #0
   88558:	f040 808f 	bne.w	8867a <__udivmoddi4+0x1ee>
   8855c:	42b3      	cmp	r3, r6
   8855e:	d302      	bcc.n	88566 <__udivmoddi4+0xda>
   88560:	4282      	cmp	r2, r0
   88562:	f200 80fc 	bhi.w	8875e <__udivmoddi4+0x2d2>
   88566:	1a84      	subs	r4, r0, r2
   88568:	eb66 0603 	sbc.w	r6, r6, r3
   8856c:	2001      	movs	r0, #1
   8856e:	46b4      	mov	ip, r6
   88570:	2d00      	cmp	r5, #0
   88572:	d040      	beq.n	885f6 <__udivmoddi4+0x16a>
   88574:	e885 1010 	stmia.w	r5, {r4, ip}
   88578:	e8bd 87f0 	ldmia.w	sp!, {r4, r5, r6, r7, r8, r9, sl, pc}
   8857c:	b912      	cbnz	r2, 88584 <__udivmoddi4+0xf8>
   8857e:	2701      	movs	r7, #1
   88580:	fbb7 f7f2 	udiv	r7, r7, r2
   88584:	fab7 fe87 	clz	lr, r7
   88588:	f1be 0f00 	cmp.w	lr, #0
   8858c:	d135      	bne.n	885fa <__udivmoddi4+0x16e>
   8858e:	2101      	movs	r1, #1
   88590:	1bf6      	subs	r6, r6, r7
   88592:	ea4f 4c17 	mov.w	ip, r7, lsr #16
   88596:	fa1f f887 	uxth.w	r8, r7
   8859a:	fbb6 f2fc 	udiv	r2, r6, ip
   8859e:	fb0c 6612 	mls	r6, ip, r2, r6
   885a2:	fb08 f002 	mul.w	r0, r8, r2
   885a6:	0c23      	lsrs	r3, r4, #16
   885a8:	ea43 4606 	orr.w	r6, r3, r6, lsl #16
   885ac:	42b0      	cmp	r0, r6
   885ae:	d907      	bls.n	885c0 <__udivmoddi4+0x134>
   885b0:	19f6      	adds	r6, r6, r7
   885b2:	f102 33ff 	add.w	r3, r2, #4294967295
   885b6:	d202      	bcs.n	885be <__udivmoddi4+0x132>
   885b8:	42b0      	cmp	r0, r6
   885ba:	f200 80d2 	bhi.w	88762 <__udivmoddi4+0x2d6>
   885be:	461a      	mov	r2, r3
   885c0:	1a36      	subs	r6, r6, r0
   885c2:	fbb6 f0fc 	udiv	r0, r6, ip
   885c6:	fb0c 6610 	mls	r6, ip, r0, r6
   885ca:	fb08 f800 	mul.w	r8, r8, r0
   885ce:	b2a3      	uxth	r3, r4
   885d0:	ea43 4406 	orr.w	r4, r3, r6, lsl #16
   885d4:	45a0      	cmp	r8, r4
   885d6:	d907      	bls.n	885e8 <__udivmoddi4+0x15c>
   885d8:	19e4      	adds	r4, r4, r7
   885da:	f100 33ff 	add.w	r3, r0, #4294967295
   885de:	d202      	bcs.n	885e6 <__udivmoddi4+0x15a>
   885e0:	45a0      	cmp	r8, r4
   885e2:	f200 80b9 	bhi.w	88758 <__udivmoddi4+0x2cc>
   885e6:	4618      	mov	r0, r3
   885e8:	eba4 0408 	sub.w	r4, r4, r8
   885ec:	ea40 4002 	orr.w	r0, r0, r2, lsl #16
   885f0:	e79c      	b.n	8852c <__udivmoddi4+0xa0>
   885f2:	4629      	mov	r1, r5
   885f4:	4628      	mov	r0, r5
   885f6:	e8bd 87f0 	ldmia.w	sp!, {r4, r5, r6, r7, r8, r9, sl, pc}
   885fa:	fa07 f70e 	lsl.w	r7, r7, lr
   885fe:	f1ce 0320 	rsb	r3, lr, #32
   88602:	fa26 f203 	lsr.w	r2, r6, r3
   88606:	ea4f 4c17 	mov.w	ip, r7, lsr #16
   8860a:	fbb2 f1fc 	udiv	r1, r2, ip
   8860e:	fa1f f887 	uxth.w	r8, r7
   88612:	fb0c 2211 	mls	r2, ip, r1, r2
   88616:	fa06 f60e 	lsl.w	r6, r6, lr
   8861a:	fa20 f303 	lsr.w	r3, r0, r3
   8861e:	fb01 f908 	mul.w	r9, r1, r8
   88622:	4333      	orrs	r3, r6
   88624:	0c1e      	lsrs	r6, r3, #16
   88626:	ea46 4602 	orr.w	r6, r6, r2, lsl #16
   8862a:	45b1      	cmp	r9, r6
   8862c:	fa00 f40e 	lsl.w	r4, r0, lr
   88630:	d909      	bls.n	88646 <__udivmoddi4+0x1ba>
   88632:	19f6      	adds	r6, r6, r7
   88634:	f101 32ff 	add.w	r2, r1, #4294967295
   88638:	f080 808c 	bcs.w	88754 <__udivmoddi4+0x2c8>
   8863c:	45b1      	cmp	r9, r6
   8863e:	f240 8089 	bls.w	88754 <__udivmoddi4+0x2c8>
   88642:	3902      	subs	r1, #2
   88644:	443e      	add	r6, r7
   88646:	eba6 0609 	sub.w	r6, r6, r9
   8864a:	fbb6 f0fc 	udiv	r0, r6, ip
   8864e:	fb0c 6210 	mls	r2, ip, r0, r6
   88652:	fb00 f908 	mul.w	r9, r0, r8
   88656:	b29e      	uxth	r6, r3
   88658:	ea46 4602 	orr.w	r6, r6, r2, lsl #16
   8865c:	45b1      	cmp	r9, r6
   8865e:	d907      	bls.n	88670 <__udivmoddi4+0x1e4>
   88660:	19f6      	adds	r6, r6, r7
   88662:	f100 33ff 	add.w	r3, r0, #4294967295
   88666:	d271      	bcs.n	8874c <__udivmoddi4+0x2c0>
   88668:	45b1      	cmp	r9, r6
   8866a:	d96f      	bls.n	8874c <__udivmoddi4+0x2c0>
   8866c:	3802      	subs	r0, #2
   8866e:	443e      	add	r6, r7
   88670:	eba6 0609 	sub.w	r6, r6, r9
   88674:	ea40 4101 	orr.w	r1, r0, r1, lsl #16
   88678:	e78f      	b.n	8859a <__udivmoddi4+0x10e>
   8867a:	f1c1 0720 	rsb	r7, r1, #32
   8867e:	fa22 f807 	lsr.w	r8, r2, r7
   88682:	408b      	lsls	r3, r1
   88684:	ea48 0303 	orr.w	r3, r8, r3
   88688:	fa26 f407 	lsr.w	r4, r6, r7
   8868c:	ea4f 4e13 	mov.w	lr, r3, lsr #16
   88690:	fbb4 f9fe 	udiv	r9, r4, lr
   88694:	fa1f fc83 	uxth.w	ip, r3
   88698:	fb0e 4419 	mls	r4, lr, r9, r4
   8869c:	408e      	lsls	r6, r1
   8869e:	fa20 f807 	lsr.w	r8, r0, r7
   886a2:	fb09 fa0c 	mul.w	sl, r9, ip
   886a6:	ea48 0806 	orr.w	r8, r8, r6
   886aa:	ea4f 4618 	mov.w	r6, r8, lsr #16
   886ae:	ea46 4404 	orr.w	r4, r6, r4, lsl #16
   886b2:	45a2      	cmp	sl, r4
   886b4:	fa02 f201 	lsl.w	r2, r2, r1
   886b8:	fa00 f601 	lsl.w	r6, r0, r1
   886bc:	d908      	bls.n	886d0 <__udivmoddi4+0x244>
   886be:	18e4      	adds	r4, r4, r3
   886c0:	f109 30ff 	add.w	r0, r9, #4294967295
   886c4:	d244      	bcs.n	88750 <__udivmoddi4+0x2c4>
   886c6:	45a2      	cmp	sl, r4
   886c8:	d942      	bls.n	88750 <__udivmoddi4+0x2c4>
   886ca:	f1a9 0902 	sub.w	r9, r9, #2
   886ce:	441c      	add	r4, r3
   886d0:	eba4 040a 	sub.w	r4, r4, sl
   886d4:	fbb4 f0fe 	udiv	r0, r4, lr
   886d8:	fb0e 4410 	mls	r4, lr, r0, r4
   886dc:	fb00 fc0c 	mul.w	ip, r0, ip
   886e0:	fa1f f888 	uxth.w	r8, r8
   886e4:	ea48 4404 	orr.w	r4, r8, r4, lsl #16
   886e8:	45a4      	cmp	ip, r4
   886ea:	d907      	bls.n	886fc <__udivmoddi4+0x270>
   886ec:	18e4      	adds	r4, r4, r3
   886ee:	f100 3eff 	add.w	lr, r0, #4294967295
   886f2:	d229      	bcs.n	88748 <__udivmoddi4+0x2bc>
   886f4:	45a4      	cmp	ip, r4
   886f6:	d927      	bls.n	88748 <__udivmoddi4+0x2bc>
   886f8:	3802      	subs	r0, #2
   886fa:	441c      	add	r4, r3
   886fc:	ea40 4009 	orr.w	r0, r0, r9, lsl #16
   88700:	fba0 8902 	umull	r8, r9, r0, r2
   88704:	eba4 0c0c 	sub.w	ip, r4, ip
   88708:	45cc      	cmp	ip, r9
   8870a:	46c2      	mov	sl, r8
   8870c:	46ce      	mov	lr, r9
   8870e:	d315      	bcc.n	8873c <__udivmoddi4+0x2b0>
   88710:	d012      	beq.n	88738 <__udivmoddi4+0x2ac>
   88712:	b155      	cbz	r5, 8872a <__udivmoddi4+0x29e>
   88714:	ebb6 030a 	subs.w	r3, r6, sl
   88718:	eb6c 060e 	sbc.w	r6, ip, lr
   8871c:	fa06 f707 	lsl.w	r7, r6, r7
   88720:	40cb      	lsrs	r3, r1
   88722:	431f      	orrs	r7, r3
   88724:	40ce      	lsrs	r6, r1
   88726:	602f      	str	r7, [r5, #0]
   88728:	606e      	str	r6, [r5, #4]
   8872a:	2100      	movs	r1, #0
   8872c:	e8bd 87f0 	ldmia.w	sp!, {r4, r5, r6, r7, r8, r9, sl, pc}
   88730:	4610      	mov	r0, r2
   88732:	e6f7      	b.n	88524 <__udivmoddi4+0x98>
   88734:	4689      	mov	r9, r1
   88736:	e6de      	b.n	884f6 <__udivmoddi4+0x6a>
   88738:	4546      	cmp	r6, r8
   8873a:	d2ea      	bcs.n	88712 <__udivmoddi4+0x286>
   8873c:	ebb8 0a02 	subs.w	sl, r8, r2
   88740:	eb69 0e03 	sbc.w	lr, r9, r3
   88744:	3801      	subs	r0, #1
   88746:	e7e4      	b.n	88712 <__udivmoddi4+0x286>
   88748:	4670      	mov	r0, lr
   8874a:	e7d7      	b.n	886fc <__udivmoddi4+0x270>
   8874c:	4618      	mov	r0, r3
   8874e:	e78f      	b.n	88670 <__udivmoddi4+0x1e4>
   88750:	4681      	mov	r9, r0
   88752:	e7bd      	b.n	886d0 <__udivmoddi4+0x244>
   88754:	4611      	mov	r1, r2
   88756:	e776      	b.n	88646 <__udivmoddi4+0x1ba>
   88758:	3802      	subs	r0, #2
   8875a:	443c      	add	r4, r7
   8875c:	e744      	b.n	885e8 <__udivmoddi4+0x15c>
   8875e:	4608      	mov	r0, r1
   88760:	e706      	b.n	88570 <__udivmoddi4+0xe4>
   88762:	3a02      	subs	r2, #2
   88764:	443e      	add	r6, r7
   88766:	e72b      	b.n	885c0 <__udivmoddi4+0x134>

00088768 <__aeabi_idiv0>:
   88768:	4770      	bx	lr
   8876a:	bf00      	nop
   8876c:	312e3025 	.word	0x312e3025
   88770:	00006630 	.word	0x00006630
   88774:	79202c78 	.word	0x79202c78
   88778:	3a7a202c 	.word	0x3a7a202c
   8877c:	2c732520 	.word	0x2c732520
   88780:	2c732520 	.word	0x2c732520
   88784:	0a732520 	.word	0x0a732520
   88788:	00000000 	.word	0x00000000
   8878c:	2078614d 	.word	0x2078614d
   88790:	66667562 	.word	0x66667562
   88794:	76207265 	.word	0x76207265
   88798:	65756c61 	.word	0x65756c61
   8879c:	7525203a 	.word	0x7525203a
   887a0:	6e69202c 	.word	0x6e69202c
   887a4:	3a786564 	.word	0x3a786564
   887a8:	0a752520 	.word	0x0a752520
   887ac:	00000000 	.word	0x00000000
   887b0:	736e6f43 	.word	0x736e6f43
   887b4:	20656c6f 	.word	0x20656c6f
   887b8:	64616572 	.word	0x64616572
   887bc:	00000a79 	.word	0x00000a79
   887c0:	3d3d3d3d 	.word	0x3d3d3d3d
   887c4:	3d3d3d3d 	.word	0x3d3d3d3d
   887c8:	3d3d3d3d 	.word	0x3d3d3d3d
   887cc:	00000a3d 	.word	0x00000a3d
   887d0:	74727173 	.word	0x74727173
   887d4:	00000000 	.word	0x00000000

000887d8 <_global_impure_ptr>:
   887d8:	20070140 00464e49 00666e69 004e414e     @.. INF.inf.NAN.
   887e8:	006e616e 33323130 37363534 42413938     nan.0123456789AB
   887f8:	46454443 00000000 33323130 37363534     CDEF....01234567
   88808:	62613938 66656463 00000000 6c756e28     89abcdef....(nul
   88818:	0000296c 00000030                       l)..0...

00088820 <blanks.7223>:
   88820:	20202020 20202020 20202020 20202020                     

00088830 <zeroes.7224>:
   88830:	30303030 30303030 30303030 30303030     0000000000000000

00088840 <blanks.7217>:
   88840:	20202020 20202020 20202020 20202020                     

00088850 <zeroes.7218>:
   88850:	30303030 30303030 30303030 30303030     0000000000000000
   88860:	69666e49 7974696e 00000000 004e614e     Infinity....NaN.
   88870:	00000043 49534f50 00000058 0000002e     C...POSIX.......

00088880 <__mprec_bigtens>:
   88880:	37e08000 4341c379 b5056e17 4693b8b5     ...7y.AC.n.....F
   88890:	e93ff9f5 4d384f03 f9301d32 5a827748     ..?..O8M2.0.Hw.Z
   888a0:	7f73bf3c 75154fdd                       <.s..O.u

000888a8 <__mprec_tens>:
   888a8:	00000000 3ff00000 00000000 40240000     .......?......$@
   888b8:	00000000 40590000 00000000 408f4000     ......Y@.....@.@
   888c8:	00000000 40c38800 00000000 40f86a00     .......@.....j.@
   888d8:	00000000 412e8480 00000000 416312d0     .......A......cA
   888e8:	00000000 4197d784 00000000 41cdcd65     .......A....e..A
   888f8:	20000000 4202a05f e8000000 42374876     ... _..B....vH7B
   88908:	a2000000 426d1a94 e5400000 42a2309c     ......mB..@..0.B
   88918:	1e900000 42d6bcc4 26340000 430c6bf5     .......B..4&.k.C
   88928:	37e08000 4341c379 85d8a000 43763457     ...7y.AC....W4vC
   88938:	674ec800 43abc16d 60913d00 43e158e4     ..Ngm..C.=.`.X.C
   88948:	78b58c40 4415af1d d6e2ef50 444b1ae4     @..x...DP.....KD
   88958:	064dd592 4480f0cf c7e14af6 44b52d02     ..M....D.J...-.D
   88968:	79d99db4 44ea7843                       ...yCx.D

00088970 <p05.6055>:
   88970:	00000005 00000019 0000007d              ........}...

0008897c <_ctype_>:
   8897c:	20202000 20202020 28282020 20282828     .         ((((( 
   8898c:	20202020 20202020 20202020 20202020                     
   8899c:	10108820 10101010 10101010 10101010      ...............
   889ac:	04040410 04040404 10040404 10101010     ................
   889bc:	41411010 41414141 01010101 01010101     ..AAAAAA........
   889cc:	01010101 01010101 01010101 10101010     ................
   889dc:	42421010 42424242 02020202 02020202     ..BBBBBB........
   889ec:	02020202 02020202 02020202 10101010     ................
   889fc:	00000020 00000000 00000000 00000000      ...............
	...

00088a80 <_init>:
   88a80:	b5f8      	push	{r3, r4, r5, r6, r7, lr}
   88a82:	bf00      	nop
   88a84:	bcf8      	pop	{r3, r4, r5, r6, r7}
   88a86:	bc08      	pop	{r3}
   88a88:	469e      	mov	lr, r3
   88a8a:	4770      	bx	lr

00088a8c <__init_array_start>:
   88a8c:	000858b5 	.word	0x000858b5

00088a90 <__frame_dummy_init_array_entry>:
   88a90:	00080119                                ....

00088a94 <_fini>:
   88a94:	b5f8      	push	{r3, r4, r5, r6, r7, lr}
   88a96:	bf00      	nop
   88a98:	bcf8      	pop	{r3, r4, r5, r6, r7}
   88a9a:	bc08      	pop	{r3}
   88a9c:	469e      	mov	lr, r3
   88a9e:	4770      	bx	lr

00088aa0 <__fini_array_start>:
   88aa0:	000800f5 	.word	0x000800f5

Disassembly of section .relocate:

20070000 <SystemInit>:
20070000:	f44f 6380 	mov.w	r3, #1024	; 0x400
20070004:	4a20      	ldr	r2, [pc, #128]	; (20070088 <SystemInit+0x88>)
20070006:	6013      	str	r3, [r2, #0]
20070008:	f502 7200 	add.w	r2, r2, #512	; 0x200
2007000c:	6013      	str	r3, [r2, #0]
2007000e:	4b1f      	ldr	r3, [pc, #124]	; (2007008c <SystemInit+0x8c>)
20070010:	6a1b      	ldr	r3, [r3, #32]
20070012:	f013 7f80 	tst.w	r3, #16777216	; 0x1000000
20070016:	d107      	bne.n	20070028 <SystemInit+0x28>
20070018:	4a1d      	ldr	r2, [pc, #116]	; (20070090 <SystemInit+0x90>)
2007001a:	4b1c      	ldr	r3, [pc, #112]	; (2007008c <SystemInit+0x8c>)
2007001c:	621a      	str	r2, [r3, #32]
2007001e:	461a      	mov	r2, r3
20070020:	6e93      	ldr	r3, [r2, #104]	; 0x68
20070022:	f013 0f01 	tst.w	r3, #1
20070026:	d0fb      	beq.n	20070020 <SystemInit+0x20>
20070028:	4a1a      	ldr	r2, [pc, #104]	; (20070094 <SystemInit+0x94>)
2007002a:	4b18      	ldr	r3, [pc, #96]	; (2007008c <SystemInit+0x8c>)
2007002c:	621a      	str	r2, [r3, #32]
2007002e:	461a      	mov	r2, r3
20070030:	6e93      	ldr	r3, [r2, #104]	; 0x68
20070032:	f413 3f80 	tst.w	r3, #65536	; 0x10000
20070036:	d0fb      	beq.n	20070030 <SystemInit+0x30>
20070038:	4a14      	ldr	r2, [pc, #80]	; (2007008c <SystemInit+0x8c>)
2007003a:	6b13      	ldr	r3, [r2, #48]	; 0x30
2007003c:	f023 0303 	bic.w	r3, r3, #3
20070040:	f043 0301 	orr.w	r3, r3, #1
20070044:	6313      	str	r3, [r2, #48]	; 0x30
20070046:	6e93      	ldr	r3, [r2, #104]	; 0x68
20070048:	f013 0f08 	tst.w	r3, #8
2007004c:	d0fb      	beq.n	20070046 <SystemInit+0x46>
2007004e:	4a12      	ldr	r2, [pc, #72]	; (20070098 <SystemInit+0x98>)
20070050:	4b0e      	ldr	r3, [pc, #56]	; (2007008c <SystemInit+0x8c>)
20070052:	629a      	str	r2, [r3, #40]	; 0x28
20070054:	461a      	mov	r2, r3
20070056:	6e93      	ldr	r3, [r2, #104]	; 0x68
20070058:	f013 0f02 	tst.w	r3, #2
2007005c:	d0fb      	beq.n	20070056 <SystemInit+0x56>
2007005e:	2211      	movs	r2, #17
20070060:	4b0a      	ldr	r3, [pc, #40]	; (2007008c <SystemInit+0x8c>)
20070062:	631a      	str	r2, [r3, #48]	; 0x30
20070064:	461a      	mov	r2, r3
20070066:	6e93      	ldr	r3, [r2, #104]	; 0x68
20070068:	f013 0f08 	tst.w	r3, #8
2007006c:	d0fb      	beq.n	20070066 <SystemInit+0x66>
2007006e:	2212      	movs	r2, #18
20070070:	4b06      	ldr	r3, [pc, #24]	; (2007008c <SystemInit+0x8c>)
20070072:	631a      	str	r2, [r3, #48]	; 0x30
20070074:	461a      	mov	r2, r3
20070076:	6e93      	ldr	r3, [r2, #104]	; 0x68
20070078:	f013 0f08 	tst.w	r3, #8
2007007c:	d0fb      	beq.n	20070076 <SystemInit+0x76>
2007007e:	4a07      	ldr	r2, [pc, #28]	; (2007009c <SystemInit+0x9c>)
20070080:	4b07      	ldr	r3, [pc, #28]	; (200700a0 <SystemInit+0xa0>)
20070082:	601a      	str	r2, [r3, #0]
20070084:	4770      	bx	lr
20070086:	bf00      	nop
20070088:	400e0a00 	.word	0x400e0a00
2007008c:	400e0600 	.word	0x400e0600
20070090:	00370809 	.word	0x00370809
20070094:	01370809 	.word	0x01370809
20070098:	200d3f01 	.word	0x200d3f01
2007009c:	0501bd00 	.word	0x0501bd00
200700a0:	20070130 	.word	0x20070130

200700a4 <system_init_flash>:
200700a4:	4b1b      	ldr	r3, [pc, #108]	; (20070114 <system_init_flash+0x70>)
200700a6:	4298      	cmp	r0, r3
200700a8:	d915      	bls.n	200700d6 <system_init_flash+0x32>
200700aa:	4b1b      	ldr	r3, [pc, #108]	; (20070118 <system_init_flash+0x74>)
200700ac:	4298      	cmp	r0, r3
200700ae:	d919      	bls.n	200700e4 <system_init_flash+0x40>
200700b0:	4b1a      	ldr	r3, [pc, #104]	; (2007011c <system_init_flash+0x78>)
200700b2:	4298      	cmp	r0, r3
200700b4:	d91e      	bls.n	200700f4 <system_init_flash+0x50>
200700b6:	4b1a      	ldr	r3, [pc, #104]	; (20070120 <system_init_flash+0x7c>)
200700b8:	4298      	cmp	r0, r3
200700ba:	d923      	bls.n	20070104 <system_init_flash+0x60>
200700bc:	4b19      	ldr	r3, [pc, #100]	; (20070124 <system_init_flash+0x80>)
200700be:	4298      	cmp	r0, r3
200700c0:	bf94      	ite	ls
200700c2:	f44f 6380 	movls.w	r3, #1024	; 0x400
200700c6:	f44f 63a0 	movhi.w	r3, #1280	; 0x500
200700ca:	4a17      	ldr	r2, [pc, #92]	; (20070128 <system_init_flash+0x84>)
200700cc:	6013      	str	r3, [r2, #0]
200700ce:	f502 7200 	add.w	r2, r2, #512	; 0x200
200700d2:	6013      	str	r3, [r2, #0]
200700d4:	4770      	bx	lr
200700d6:	2300      	movs	r3, #0
200700d8:	4a13      	ldr	r2, [pc, #76]	; (20070128 <system_init_flash+0x84>)
200700da:	6013      	str	r3, [r2, #0]
200700dc:	f502 7200 	add.w	r2, r2, #512	; 0x200
200700e0:	6013      	str	r3, [r2, #0]
200700e2:	4770      	bx	lr
200700e4:	f44f 7380 	mov.w	r3, #256	; 0x100
200700e8:	4a0f      	ldr	r2, [pc, #60]	; (20070128 <system_init_flash+0x84>)
200700ea:	6013      	str	r3, [r2, #0]
200700ec:	f502 7200 	add.w	r2, r2, #512	; 0x200
200700f0:	6013      	str	r3, [r2, #0]
200700f2:	4770      	bx	lr
200700f4:	f44f 7300 	mov.w	r3, #512	; 0x200
200700f8:	4a0b      	ldr	r2, [pc, #44]	; (20070128 <system_init_flash+0x84>)
200700fa:	6013      	str	r3, [r2, #0]
200700fc:	f502 7200 	add.w	r2, r2, #512	; 0x200
20070100:	6013      	str	r3, [r2, #0]
20070102:	4770      	bx	lr
20070104:	f44f 7340 	mov.w	r3, #768	; 0x300
20070108:	4a07      	ldr	r2, [pc, #28]	; (20070128 <system_init_flash+0x84>)
2007010a:	6013      	str	r3, [r2, #0]
2007010c:	f502 7200 	add.w	r2, r2, #512	; 0x200
20070110:	6013      	str	r3, [r2, #0]
20070112:	4770      	bx	lr
20070114:	0121eabf 	.word	0x0121eabf
20070118:	02faf07f 	.word	0x02faf07f
2007011c:	03d08fff 	.word	0x03d08fff
20070120:	04c4b3ff 	.word	0x04c4b3ff
20070124:	055d4a7f 	.word	0x055d4a7f
20070128:	400e0a00 	.word	0x400e0a00

2007012c <g_interrupt_enabled>:
2007012c:	00000001                                ....

20070130 <SystemCoreClock>:
20070130:	003d0900                                ..=.

20070134 <__fdlib_version>:
20070134:	00000001                                ....

20070138 <_impure_ptr>:
20070138:	20070140 00000000                       @.. ....

20070140 <impure_data>:
20070140:	00000000 2007042c 20070494 200704fc     ....,.. ... ... 
	...
200701e8:	00000001 00000000 abcd330e e66d1234     .........3..4.m.
200701f8:	0005deec 0000000b 00000000 00000000     ................
	...

20070568 <__malloc_av_>:
	...
20070570:	20070568 20070568 20070570 20070570     h.. h.. p.. p.. 
20070580:	20070578 20070578 20070580 20070580     x.. x.. ... ... 
20070590:	20070588 20070588 20070590 20070590     ... ... ... ... 
200705a0:	20070598 20070598 200705a0 200705a0     ... ... ... ... 
200705b0:	200705a8 200705a8 200705b0 200705b0     ... ... ... ... 
200705c0:	200705b8 200705b8 200705c0 200705c0     ... ... ... ... 
200705d0:	200705c8 200705c8 200705d0 200705d0     ... ... ... ... 
200705e0:	200705d8 200705d8 200705e0 200705e0     ... ... ... ... 
200705f0:	200705e8 200705e8 200705f0 200705f0     ... ... ... ... 
20070600:	200705f8 200705f8 20070600 20070600     ... ... ... ... 
20070610:	20070608 20070608 20070610 20070610     ... ... ... ... 
20070620:	20070618 20070618 20070620 20070620     ... ...  ..  .. 
20070630:	20070628 20070628 20070630 20070630     (.. (.. 0.. 0.. 
20070640:	20070638 20070638 20070640 20070640     8.. 8.. @.. @.. 
20070650:	20070648 20070648 20070650 20070650     H.. H.. P.. P.. 
20070660:	20070658 20070658 20070660 20070660     X.. X.. `.. `.. 
20070670:	20070668 20070668 20070670 20070670     h.. h.. p.. p.. 
20070680:	20070678 20070678 20070680 20070680     x.. x.. ... ... 
20070690:	20070688 20070688 20070690 20070690     ... ... ... ... 
200706a0:	20070698 20070698 200706a0 200706a0     ... ... ... ... 
200706b0:	200706a8 200706a8 200706b0 200706b0     ... ... ... ... 
200706c0:	200706b8 200706b8 200706c0 200706c0     ... ... ... ... 
200706d0:	200706c8 200706c8 200706d0 200706d0     ... ... ... ... 
200706e0:	200706d8 200706d8 200706e0 200706e0     ... ... ... ... 
200706f0:	200706e8 200706e8 200706f0 200706f0     ... ... ... ... 
20070700:	200706f8 200706f8 20070700 20070700     ... ... ... ... 
20070710:	20070708 20070708 20070710 20070710     ... ... ... ... 
20070720:	20070718 20070718 20070720 20070720     ... ...  ..  .. 
20070730:	20070728 20070728 20070730 20070730     (.. (.. 0.. 0.. 
20070740:	20070738 20070738 20070740 20070740     8.. 8.. @.. @.. 
20070750:	20070748 20070748 20070750 20070750     H.. H.. P.. P.. 
20070760:	20070758 20070758 20070760 20070760     X.. X.. `.. `.. 
20070770:	20070768 20070768 20070770 20070770     h.. h.. p.. p.. 
20070780:	20070778 20070778 20070780 20070780     x.. x.. ... ... 
20070790:	20070788 20070788 20070790 20070790     ... ... ... ... 
200707a0:	20070798 20070798 200707a0 200707a0     ... ... ... ... 
200707b0:	200707a8 200707a8 200707b0 200707b0     ... ... ... ... 
200707c0:	200707b8 200707b8 200707c0 200707c0     ... ... ... ... 
200707d0:	200707c8 200707c8 200707d0 200707d0     ... ... ... ... 
200707e0:	200707d8 200707d8 200707e0 200707e0     ... ... ... ... 
200707f0:	200707e8 200707e8 200707f0 200707f0     ... ... ... ... 
20070800:	200707f8 200707f8 20070800 20070800     ... ... ... ... 
20070810:	20070808 20070808 20070810 20070810     ... ... ... ... 
20070820:	20070818 20070818 20070820 20070820     ... ...  ..  .. 
20070830:	20070828 20070828 20070830 20070830     (.. (.. 0.. 0.. 
20070840:	20070838 20070838 20070840 20070840     8.. 8.. @.. @.. 
20070850:	20070848 20070848 20070850 20070850     H.. H.. P.. P.. 
20070860:	20070858 20070858 20070860 20070860     X.. X.. `.. `.. 
20070870:	20070868 20070868 20070870 20070870     h.. h.. p.. p.. 
20070880:	20070878 20070878 20070880 20070880     x.. x.. ... ... 
20070890:	20070888 20070888 20070890 20070890     ... ... ... ... 
200708a0:	20070898 20070898 200708a0 200708a0     ... ... ... ... 
200708b0:	200708a8 200708a8 200708b0 200708b0     ... ... ... ... 
200708c0:	200708b8 200708b8 200708c0 200708c0     ... ... ... ... 
200708d0:	200708c8 200708c8 200708d0 200708d0     ... ... ... ... 
200708e0:	200708d8 200708d8 200708e0 200708e0     ... ... ... ... 
200708f0:	200708e8 200708e8 200708f0 200708f0     ... ... ... ... 
20070900:	200708f8 200708f8 20070900 20070900     ... ... ... ... 
20070910:	20070908 20070908 20070910 20070910     ... ... ... ... 
20070920:	20070918 20070918 20070920 20070920     ... ...  ..  .. 
20070930:	20070928 20070928 20070930 20070930     (.. (.. 0.. 0.. 
20070940:	20070938 20070938 20070940 20070940     8.. 8.. @.. @.. 
20070950:	20070948 20070948 20070950 20070950     H.. H.. P.. P.. 
20070960:	20070958 20070958 20070960 20070960     X.. X.. `.. `.. 

20070970 <__malloc_sbrk_base>:
20070970:	ffffffff                                ....

20070974 <__malloc_trim_threshold>:
20070974:	00020000                                ....

20070978 <__atexit_recursive_mutex>:
20070978:	2007275c                                \'. 

2007097c <__global_locale>:
2007097c:	00000043 00000000 00000000 00000000     C...............
	...
2007099c:	00000043 00000000 00000000 00000000     C...............
	...
200709bc:	00000043 00000000 00000000 00000000     C...............
	...
200709dc:	00000043 00000000 00000000 00000000     C...............
	...
200709fc:	00000043 00000000 00000000 00000000     C...............
	...
20070a1c:	00000043 00000000 00000000 00000000     C...............
	...
20070a3c:	00000043 00000000 00000000 00000000     C...............
	...
20070a5c:	00088119 000872c1 00000000 0008897c     .....r......|...
20070a6c:	0008887c 00088788 00088788 00088788     |...............
20070a7c:	00088788 00088788 00088788 00088788     ................
20070a8c:	00088788 00088788 ffffffff ffffffff     ................
20070a9c:	ffffffff 0000ffff 53410001 00494943     ..........ASCII.
	...
20070ac4:	53410000 00494943 00000000 00000000     ..ASCII.........
	...
